# file opened: main.asm
    1 0000                  device zxspectrum48 ; There is no ZX Spectrum, it is needed for the sjasmplus assembler.
    2 0000              ordos_wnd equ 49110
    3 0000              ordos_sdma equ 49104
    4 0000              ordos_watf equ 49098
    5 0000              ordos_wfile equ 49143
    6 0000              ordos_stop equ 49122
    7 0000              ordos_dirm equ 49128
    8 0000              ordos_start equ 49149
    9 0000              ordos_mxdsk equ 49080
   10 0000              ordos_rmax equ 49089
   11 0000              ordos_wdisk equ 49119
   12 0000              ordos_rdisk equ 49116
   13 0000              ordos_rfile equ 49146
   14 0000              ordos_pscf equ 49125
   15 0000              ordos_rnd equ 49113
   16 0000              ordos_eras equ 49134
   17 0000              ordos_atf equ 49101
   18 0000              fontaddress equ 62417
   19 0000              inverceaddress equ 62419
   20 0000              keyrusaddress equ 62437
   21 0000              printhexa equ 63509
   22 0000              printchata equ 63503
   23 0000              printchatc equ 63497
   24 0000              writebyteinothermem equ 63545
   25 0000              setposcursor equ 63548
   26 0000              getposcursor equ 63518
   27 0000              printhlstr equ 63512
   28 0000              getkeyboardchara equ 63491
   29 0000              getkeyboardstatea equ 63506
   30 0000              getkeyboardcodea equ 63515
   31 0000              unpackcharcode equ 63533
   32 0000              i8255_setup equ 62979
   33 0000              i8255_port_c equ 62978
   34 0000              i8255_port_a equ 62976
   35 0000              diskviewresidentprogram equ 43008
   36 0000              gotovbox equ 262
   37 0000
   38 0000                  org 0x00F0
   39 00F0
   40 00F0              ; 20 uint8_t appName[] = {'K','F','T','P','2','$',' ',' '};
   41 00F0              appname:
   42 00F0 4B           	db 75
   43 00F1 46           	db 70
   44 00F2 54           	db 84
   45 00F3 50           	db 80
   46 00F4 32           	db 50
   47 00F5 24           	db 36
   48 00F6 20           	db 32
   49 00F7 20           	db 32
   50 00F8
   51 00F8
   52 00F8 00 01            DB 0x00, 0x01
   53 00FA
   54 00FA 00 3A            DB 0x00, 0x3A
   55 00FC
   56 00FC 00 00 00 00      DB 0x00, 0x00, 0x00, 0x00
   57 0100
   58 0100              ; 31 void main(){
   59 0100              main:
   60 0100              ; 32     #ifdef _IS_MAIN_STACK
   61 0100              ; 33         sp = 0x6FFF;
   62 0100              ; 34     #else
   63 0100              ; 35         nop();
   64 0100 00           	nop
   65 0101              ; 36         nop();
   66 0101 00           	nop
   67 0102              ; 37         nop();
   68 0102 00           	nop
   69 0103              ; 38     #endif
   70 0103              ; 39     mainStart();
   71 0103 C3 09 01     	jp mainstart
   72 0106              ; 40 }
   73 0106              ; 41
   74 0106              ; 42 ///Exec VBOX
   75 0106              ; 43 uint8_t jmpToVBOX = 0xc3;
   76 0106              jmptovbox:
   77 0106 C3           	db 195
   78 0107              ; 44 uint16_t startVboxAddr = 0x0000;
   79 0107              startvboxaddr:
   80 0107 00 00        	dw 0
   81 0109              ; 46 void mainStart() {
   82 0109              mainstart:
   83 0109              ; 47     h = 24;
   84 0109 26 18        	ld h, 24
   85 010B              ; 48     l = 60;
   86 010B 2E 3C        	ld l, 60
   87 010D              ; 49     setPosCursor();
   88 010D CD 3C F8     	call setposcursor
   89 0110              ; 50
   90 0110              ; 51     HelpViewShow();
   91 0110 CD E5 0E     	call helpviewshow
   92 0113              ; 52     FtpStateViewShow();
   93 0113 CD E7 1B     	call ftpstateviewshow
   94 0116              ; 53     WifiStateViewShow();
   95 0116 CD C9 15     	call wifistateviewshow
   96 0119              ; 54     FtpViewShow();
   97 0119 CD 31 20     	call ftpviewshow
   98 011C              ; 55     DiskViewShow();
   99 011C CD 7A 16     	call diskviewshow
  100 011F              ; 56
  101 011F              ; 57     CurrentViewChangeIdA(a = FtpViewId);
  102 011F 3E 02        	ld a, 2
  103 0121 CD 63 0F     	call currentviewchangeida
  104 0124              ; 58
  105 0124              ; 59     #ifdef _IS_SIMULATOR
  106 0124              ; 60         DiskViewReload();
  107 0124              ; 61     #else
  108 0124              ; 62         NetUpdateData();
  109 0124 CD BA 14     	call netupdatedata
  110 0127              ; 63         ThreadsTickNow();
  111 0127 CD 41 14     	call threadsticknow
  112 012A              ; 64     #endif
  113 012A              ; 65
  114 012A              ; 66     for(;;){
  115 012A              __l_1:
  116 012A              ; 67         #ifdef _IS_SIMULATOR
  117 012A              ; 68             getKeyboardCharA();
  118 012A              ; 69             KeyboardEventA();
  119 012A              ; 70         #else
  120 012A              ; 71             getKeyboardStateA();
  121 012A CD 12 F8     	call getkeyboardstatea
  122 012D              ; 72             if (a == 0xFF) {
  123 012D FE FF        	cp 255
  124 012F C2 3B 01     	jp nz, __l_3
  125 0132              ; 73                 getKeyboardCodeA();
  126 0132 CD 1B F8     	call getkeyboardcodea
  127 0135              ; 74                 KeyboardEventA();
  128 0135 CD 41 01     	call keyboardeventa
  129 0138 C3 3E 01     	jp __l_4
  130 013B              __l_3:
  131 013B              ; 75             } else {
  132 013B              ; 76                 ThreadsTick();
  133 013B CD 47 14     	call threadstick
  134 013E              __l_4:
  135 013E C3 2A 01     	jp __l_1
  136 0141              ; 77             }
  137 0141              ; 78         #endif
  138 0141              ; 79     }
  139 0141              ; 80 }
  140 0141              ; 81
  141 0141              ; 82 void KeyboardEventA() {
  142 0141              keyboardeventa:
  143 0141              ; 83     push_pop(bc) {
  144 0141 C5           	push bc
  145 0142              ; 84         b = a; //Save
  146 0142 47           	ld b, a
  147 0143              ; 85         if ((a = b) == 0x03) { //F4
  148 0143 78           	ld a, b
  149 0144 FE 03        	cp 3
  150 0146 C2 52 01     	jp nz, __l_5
  151 0149              ; 86             vboxClearCash();
  152 0149 CD 98 39     	call vboxclearcash
  153 014C              ; 87             ordos_start();
  154 014C CD FD BF     	call ordos_start
  155 014F C3 93 01     	jp __l_6
  156 0152              __l_5:
  157 0152              ; 88         } else if ((a = b) == 0x02) { //F3 Open FTP settings
  158 0152 78           	ld a, b
  159 0153 FE 02        	cp 2
  160 0155 C2 69 01     	jp nz, __l_7
  161 0158              ; 89             CurrentViewDiskOrFtpViewByIdA(a = CurrentViewId);
  162 0158 3A 8F 10     	ld a, (currentviewid)
  163 015B CD 55 10     	call currentviewdiskorftpviewbyida
  164 015E              ; 90             if (a == 1) {
  165 015E FE 01        	cp 1
  166 0160 C2 66 01     	jp nz, __l_9
  167 0163              ; 91                 FtpSettingsViewShow();
  168 0163 CD EA 1C     	call ftpsettingsviewshow
  169 0166              __l_9:
  170 0166 C3 93 01     	jp __l_8
  171 0169              __l_7:
  172 0169              ; 92             }
  173 0169              ; 93         } else if ((a = b) == 0x01) { //F2 Open WiFi settings
  174 0169 78           	ld a, b
  175 016A FE 01        	cp 1
  176 016C C2 80 01     	jp nz, __l_11
  177 016F              ; 94             CurrentViewDiskOrFtpViewByIdA(a = CurrentViewId);
  178 016F 3A 8F 10     	ld a, (currentviewid)
  179 0172 CD 55 10     	call currentviewdiskorftpviewbyida
  180 0175              ; 95             if (a == 1) {
  181 0175 FE 01        	cp 1
  182 0177 C2 7D 01     	jp nz, __l_13
  183 017A              ; 96                 WiFiSettingsViewShow();
  184 017A CD FD 09     	call wifisettingsviewshow
  185 017D              __l_13:
  186 017D C3 93 01     	jp __l_12
  187 0180              __l_11:
  188 0180              ; 97             }
  189 0180              ; 98         } else if ((a = b) == 0x00) { //F1 Open help
  190 0180 78           	ld a, b
  191 0181 B7           	or a
  192 0182 C2 93 01     	jp nz, __l_15
  193 0185              ; 99             CurrentViewDiskOrFtpViewByIdA(a = CurrentViewId);
  194 0185 3A 8F 10     	ld a, (currentviewid)
  195 0188 CD 55 10     	call currentviewdiskorftpviewbyida
  196 018B              ; 100             if (a == 1) {
  197 018B FE 01        	cp 1
  198 018D C2 93 01     	jp nz, __l_17
  199 0190              ; 101                 HelpInfoViewShow();
  200 0190 CD 7C 2E     	call helpinfoviewshow
  201 0193              __l_17:
  202 0193              __l_15:
  203 0193              __l_12:
  204 0193              __l_8:
  205 0193              __l_6:
  206 0193              ; 102             }
  207 0193              ; 103         }
  208 0193              ; 104
  209 0193              ; 105         c = 0;
  210 0193 0E 00        	ld c, 0
  211 0195              ; 106         if ((a = CurrentViewId) == DiskViewId) {
  212 0195 3A 8F 10     	ld a, (currentviewid)
  213 0198 FE 01        	cp 1
  214 019A C2 A6 01     	jp nz, __l_19
  215 019D              ; 107             DiskViewKeyA(a = b);
  216 019D 78           	ld a, b
  217 019E CD 3C 18     	call diskviewkeya
  218 01A1              ; 108             c = 1;
  219 01A1 0E 01        	ld c, 1
  220 01A3 C3 1A 02     	jp __l_20
  221 01A6              __l_19:
  222 01A6              ; 109         } else if ((a = CurrentViewId) == FtpViewId) {
  223 01A6 3A 8F 10     	ld a, (currentviewid)
  224 01A9 FE 02        	cp 2
  225 01AB C2 B7 01     	jp nz, __l_21
  226 01AE              ; 110             FtpViewKeyA(a = b);
  227 01AE 78           	ld a, b
  228 01AF CD 9B 22     	call ftpviewkeya
  229 01B2              ; 111             c = 1;
  230 01B2 0E 01        	ld c, 1
  231 01B4 C3 1A 02     	jp __l_22
  232 01B7              __l_21:
  233 01B7              ; 112         } else if ((a = CurrentViewId) == SelectDiskViewId) {
  234 01B7 3A 8F 10     	ld a, (currentviewid)
  235 01BA FE 03        	cp 3
  236 01BC C2 C8 01     	jp nz, __l_23
  237 01BF              ; 113             SelectDiskViewKeyA(a = b);
  238 01BF 78           	ld a, b
  239 01C0 CD 73 1B     	call selectdiskviewkeya
  240 01C3              ; 114             c = 1;
  241 01C3 0E 01        	ld c, 1
  242 01C5 C3 1A 02     	jp __l_24
  243 01C8              __l_23:
  244 01C8              ; 115         } else if ((a = CurrentViewId) == WiFiSettingsViewId) {
  245 01C8 3A 8F 10     	ld a, (currentviewid)
  246 01CB FE 05        	cp 5
  247 01CD C2 D9 01     	jp nz, __l_25
  248 01D0              ; 116             WiFiSettingsViewKeyA(a = b);
  249 01D0 78           	ld a, b
  250 01D1 CD 19 0B     	call wifisettingsviewkeya
  251 01D4              ; 117             c = 1;
  252 01D4 0E 01        	ld c, 1
  253 01D6 C3 1A 02     	jp __l_26
  254 01D9              __l_25:
  255 01D9              ; 118         } else if ((a = CurrentViewId) == WiFiNetworksViewId) {
  256 01D9 3A 8F 10     	ld a, (currentviewid)
  257 01DC FE 07        	cp 7
  258 01DE C2 EA 01     	jp nz, __l_27
  259 01E1              ; 119             WiFiNetworksViewKeyA(a = b);
  260 01E1 78           	ld a, b
  261 01E2 CD 56 27     	call wifinetworksviewkeya
  262 01E5              ; 120             c = 1;
  263 01E5 0E 01        	ld c, 1
  264 01E7 C3 1A 02     	jp __l_28
  265 01EA              __l_27:
  266 01EA              ; 121         } else if ((a = CurrentViewId) == FtpSettingsViewId) {
  267 01EA 3A 8F 10     	ld a, (currentviewid)
  268 01ED FE 08        	cp 8
  269 01EF C2 FB 01     	jp nz, __l_29
  270 01F2              ; 122             FtpSettingsViewKeyA(a = b);
  271 01F2 78           	ld a, b
  272 01F3 CD 15 1F     	call ftpsettingsviewkeya
  273 01F6              ; 123             c = 1;
  274 01F6 0E 01        	ld c, 1
  275 01F8 C3 1A 02     	jp __l_30
  276 01FB              __l_29:
  277 01FB              ; 124         } else if ((a = CurrentViewId) == FtpMakeDirectoryId) {
  278 01FB 3A 8F 10     	ld a, (currentviewid)
  279 01FE FE 0B        	cp 11
  280 0200 C2 0C 02     	jp nz, __l_31
  281 0203              ; 125             FtpMakeDirectoryKeyA(a = b);
  282 0203 78           	ld a, b
  283 0204 CD F8 2D     	call ftpmakedirectorykeya
  284 0207              ; 126             c = 1;
  285 0207 0E 01        	ld c, 1
  286 0209 C3 1A 02     	jp __l_32
  287 020C              __l_31:
  288 020C              ; 127         } else if ((a = CurrentViewId) == HelpInfoViewId) {
  289 020C 3A 8F 10     	ld a, (currentviewid)
  290 020F FE 0C        	cp 12
  291 0211 C2 1A 02     	jp nz, __l_33
  292 0214              ; 128             HelpInfoViewKeyA(a = b);
  293 0214 78           	ld a, b
  294 0215 CD 4B 2F     	call helpinfoviewkeya
  295 0218              ; 129             c = 1;
  296 0218 0E 01        	ld c, 1
  297 021A              __l_33:
  298 021A              __l_32:
  299 021A              __l_30:
  300 021A              __l_28:
  301 021A              __l_26:
  302 021A              __l_24:
  303 021A              __l_22:
  304 021A              __l_20:
  305 021A C1           	pop bc
  306 021B C9           	ret
  307 021C              ; 11 void i8255Init() {
  308 021C              i8255init:
  309 021C C9           	ret
  310 021D              ; 12
  311 021D              ; 13 }
  312 021D              ; 14
  313 021D              ; 15 void i8255PortAOut() {
  314 021D              i8255portaout:
  315 021D              ; 16     a = i8255SETUPPortAOut;
  316 021D 3E 81        	ld a, 129
  317 021F              ; 17     i8255_SETUP = a;
  318 021F 32 03 F6     	ld (i8255_setup), a
  319 0222 C9           	ret
  320 0223              ; 18 }
  321 0223              ; 19
  322 0223              ; 20 void i8255_WaitingForReady() {
  323 0223              i8255_waitingforready:
  324 0223              ; 21     push_pop(bc) {
  325 0223 C5           	push bc
  326 0224              ; 22         b = 0;
  327 0224 06 00        	ld b, 0
  328 0226              ; 23         do {
  329 0226              __l_35:
  330 0226              ; 24             a = i8255_PORT_C;
  331 0226 3A 02 F6     	ld a, (i8255_port_c)
  332 0229              ; 25             a &= ESP_Reg_Ready;
  333 0229 E6 02        	and 2
  334 022B              ; 26             c = a;
  335 022B 4F           	ld c, a
  336 022C              __l_36:
  337 022C              ; 27             #ifdef _IS_ESP_DELAY
  338 022C              ; 28                 if ((a = c) == 0) {
  339 022C              ; 29                     i8255_DelayA(a = 1); //5 200
  340 022C              ; 30                     b++;
  341 022C              ; 31                     if ((a = b) >= 100) { //253
  342 022C              ; 32                         c = ESP_Reg_Ready;
  343 022C              ; 33                         a = ESPError_TimeOut;
  344 022C              ; 34                         ESPError = a;
  345 022C              ; 35                     }
  346 022C              ; 36                 }
  347 022C              ; 37             #endif
  348 022C              ; 38         } while ((a = c) == 0);
  349 022C 79           	ld a, c
  350 022D B7           	or a
  351 022E CA 26 02     	jp z, __l_35
  352 0231 C1           	pop bc
  353 0232 C9           	ret
  354 0233              ; 39     }
  355 0233              ; 40 }
  356 0233              ; 41
  357 0233              ; 42 /// Проверка что ESP занят
  358 0233              ; 43 void i8255_WaitingForBusy() {
  359 0233              i8255_waitingforbusy:
  360 0233              ; 44     do {
  361 0233              __l_38:
  362 0233              ; 45         a = i8255_PORT_C;
  363 0233 3A 02 F6     	ld a, (i8255_port_c)
  364 0236              ; 46         a &= ESP_Reg_Busy;
  365 0236 E6 01        	and 1
  366 0238              __l_39:
  367 0238              ; 47     } while (a > 0);
  368 0238 B7           	or a
  369 0239 C2 33 02     	jp nz, __l_38
  370 023C C9           	ret
  371 023D              ; 48 }
  372 023D              ; 49
  373 023D              ; 50 void i8255PortAIn() {
  374 023D              i8255portain:
  375 023D              ; 51     a = i8255SETUPPortAIn;
  376 023D 3E 91        	ld a, 145
  377 023F              ; 52     i8255_SETUP = a;
  378 023F 32 03 F6     	ld (i8255_setup), a
  379 0242 C9           	ret
  380 0243              ; 53 }
  381 0243              ; 54
  382 0243              ; 55 /// Сигнал Clock
  383 0243              ; 56 /// A include IsWrite, IsBegin, IsEnd
  384 0243              ; 57 /// A = 1 - Write
  385 0243              ; 58 void i8255_SckIsWriteA() {
  386 0243              i8255_sckiswritea:
  387 0243              ; 59     a |= ESP_Reg_Sck;
  388 0243 F6 10        	or 16
  389 0245              ; 60     i8255_PORT_C = a;
  390 0245 32 02 F6     	ld (i8255_port_c), a
  391 0248 C9           	ret
  392 0249              ; 61     #ifdef _IS_ESP_DELAY
  393 0249              ; 62         i8255_DelayA(a = 1); //20 40
  394 0249              ; 63     #endif
  395 0249              ; 64 }
  396 0249              ; 65
  397 0249              ; 66 void i8255_Sck0() {
  398 0249              i8255_sck0:
  399 0249              ; 67     a = 0;
  400 0249 3E 00        	ld a, 0
  401 024B              ; 68     i8255_PORT_C = a;
  402 024B 32 02 F6     	ld (i8255_port_c), a
  403 024E C9           	ret
  404 024F              ; 69     #ifdef _IS_ESP_DELAY
  405 024F              ; 70         i8255_DelayA(a = 1); //20 40
  406 024F              ; 71     #endif
  407 024F              ; 72 }
  408 024F              ; 73
  409 024F              ; 74 void i8255_DelayA() {
  410 024F              i8255_delaya:
  411 024F              ; 75     do {
  412 024F              __l_41:
  413 024F              ; 76         nop();
  414 024F 00           	nop
  415 0250              ; 77         a--;
  416 0250 3D           	dec a
  417 0251              __l_42:
  418 0251              ; 78     } while (a > 0);
  419 0251 B7           	or a
  420 0252 C2 4F 02     	jp nz, __l_41
  421 0255 C9           	ret
  422 0256              ; 79 }
  423 0256              ; 80
  424 0256              ; 81 void i8255_ReadReg() {
  425 0256              i8255_readreg:
  426 0256              ; 82     a = i8255_PORT_C;
  427 0256 3A 02 F6     	ld a, (i8255_port_c)
  428 0259 C9           	ret
  429 025A              ; 83 }
  430 025A              ; 84
  431 025A              ; 85 void i8255_ReadData() {
  432 025A              i8255_readdata:
  433 025A              ; 86     a = i8255_PORT_A;
  434 025A 3A 00 F6     	ld a, (i8255_port_a)
  435 025D C9           	ret
  436 025E              ; 87 }
  437 025E              ; 88
  438 025E              ; 89 void i8255_WriteData() {
  439 025E              i8255_writedata:
  440 025E              ; 90     i8255_PORT_A = a;
  441 025E 32 00 F6     	ld (i8255_port_a), a
  442 0261 C9           	ret
  443 0262              ; 91 }
  444 0262              ; 92
  445 0262              ; 93 uint8_t i8255_PortA_IsOut = 1;
  446 0262              i8255_porta_isout:
  447 0262 01           	db 1
  448 0263              ; 12 void ESPSendByteAC() {
  449 0263              espsendbyteac:
  450 0263              ; 13     push_pop(bc) {
  451 0263 C5           	push bc
  452 0264              ; 14         b = a;
  453 0264 47           	ld b, a
  454 0265              ; 15         // Проверим - не занят ли ESP
  455 0265              ; 16         i8255_WaitingForBusy();
  456 0265 CD 33 02     	call i8255_waitingforbusy
  457 0268              ; 17         // A на выход
  458 0268              ; 18         i8255PortAOut();
  459 0268 CD 1D 02     	call i8255portaout
  460 026B              ; 19         // Установить A в порт A
  461 026B              ; 20         i8255_WriteData(a = b);
  462 026B 78           	ld a, b
  463 026C CD 5E 02     	call i8255_writedata
  464 026F              ; 21         // Послать сигнал что данные готовы
  465 026F              ; 22         a = ESP_Reg_IsWrite;
  466 026F 3E 20        	ld a, 32
  467 0271              ; 23         a |= c;
  468 0271 B1           	or c
  469 0272              ; 24         i8255_SckIsWriteA();
  470 0272 CD 43 02     	call i8255_sckiswritea
  471 0275              ; 25         // Ждем подтверждения
  472 0275              ; 26         i8255_WaitingForReady();
  473 0275 CD 23 02     	call i8255_waitingforready
  474 0278              ; 27         //
  475 0278              ; 28         i8255_Sck0();
  476 0278 CD 49 02     	call i8255_sck0
  477 027B C1           	pop bc
  478 027C C9           	ret
  479 027D              ; 29     }
  480 027D              ; 30 }
  481 027D              ; 31
  482 027D              ; 32 /// A - Data
  483 027D              ; 33 /// D - Register
  484 027D              ; 34 void ESPGetByteAD() {
  485 027D              espgetbytead:
  486 027D              ; 35     push_pop(bc) {
  487 027D C5           	push bc
  488 027E              ; 36         // Проверим - не занят ли ESP
  489 027E              ; 37         i8255_WaitingForBusy();
  490 027E CD 33 02     	call i8255_waitingforbusy
  491 0281              ; 38         // A на вход
  492 0281              ; 39         i8255PortAIn();
  493 0281 CD 3D 02     	call i8255portain
  494 0284              ; 40         // Послать сигнал что готовы к данным
  495 0284              ; 41         i8255_SckIsWriteA(a = 0);
  496 0284 3E 00        	ld a, 0
  497 0286 CD 43 02     	call i8255_sckiswritea
  498 0289              ; 42         // Ждем данные
  499 0289              ; 43         i8255_WaitingForReady();
  500 0289 CD 23 02     	call i8255_waitingforready
  501 028C              ; 44         // Читаем данные
  502 028C              ; 45         i8255_ReadData();
  503 028C CD 5A 02     	call i8255_readdata
  504 028F              ; 46         b = a;
  505 028F 47           	ld b, a
  506 0290              ; 47         // Читаем регистр
  507 0290              ; 48         i8255_ReadReg();
  508 0290 CD 56 02     	call i8255_readreg
  509 0293              ; 49         d = a;
  510 0293 57           	ld d, a
  511 0294              ; 50         //
  512 0294              ; 51         i8255_Sck0();
  513 0294 CD 49 02     	call i8255_sck0
  514 0297              ; 52         //
  515 0297              ; 53         a = b;
  516 0297 78           	ld a, b
  517 0298 C1           	pop bc
  518 0299 C9           	ret
  519 029A              ; 54     }
  520 029A              ; 55 }
  521 029A              ; 56
  522 029A              ; 57 /// h = key
  523 029A              ; 58 /// l = len buffer
  524 029A              ; 59 void ESPSendHL() {
  525 029A              espsendhl:
  526 029A              ; 60     ESPErrorClear();
  527 029A CD 4B 03     	call esperrorclear
  528 029D              ; 61     push_pop(bc, hl) {
  529 029D C5           	push bc
  530 029E E5           	push hl
  531 029F              ; 62         //-- Send Key
  532 029F              ; 63         c = ESP_Reg_IsBegin;
  533 029F 0E 40        	ld c, 64
  534 02A1              ; 64         if ((a = l) == 0) {
  535 02A1 7D           	ld a, l
  536 02A2 B7           	or a
  537 02A3 C2 AA 02     	jp nz, __l_44
  538 02A6              ; 65             a = c;
  539 02A6 79           	ld a, c
  540 02A7              ; 66             a |= ESP_Reg_IsEnd;
  541 02A7 F6 80        	or 128
  542 02A9              ; 67             c = a;
  543 02A9 4F           	ld c, a
  544 02AA              __l_44:
  545 02AA              ; 68         }
  546 02AA              ; 69         ESPSendByteAC(a = h);
  547 02AA 7C           	ld a, h
  548 02AB CD 63 02     	call espsendbyteac
  549 02AE              ; 70         if ((a = ESPError) == 0) { // Нет ошибок - продолжаем
  550 02AE 3A 51 03     	ld a, (esperror)
  551 02B1 B7           	or a
  552 02B2 C2 DF 02     	jp nz, __l_46
  553 02B5              ; 71             //-- Send Data
  554 02B5              ; 72             if ((a = l) > 0) {
  555 02B5 7D           	ld a, l
  556 02B6 B7           	or a
  557 02B7 CA DF 02     	jp z, __l_48
  558 02BA              ; 73                 b = l;
  559 02BA 45           	ld b, l
  560 02BB              ; 74                 hl = Net_buffer;
  561 02BB 21 B1 3A     	ld hl, net_buffer
  562 02BE              ; 75                 do {
  563 02BE              __l_50:
  564 02BE              ; 76                     if ((a = b) == 1) {
  565 02BE 78           	ld a, b
  566 02BF FE 01        	cp 1
  567 02C1 C2 C9 02     	jp nz, __l_53
  568 02C4              ; 77                         c = ESP_Reg_IsEnd;
  569 02C4 0E 80        	ld c, 128
  570 02C6 C3 CB 02     	jp __l_54
  571 02C9              __l_53:
  572 02C9              ; 78                     } else {
  573 02C9              ; 79                         c = 0;
  574 02C9 0E 00        	ld c, 0
  575 02CB              __l_54:
  576 02CB              ; 80                     }
  577 02CB              ; 81                     ESPSendByteAC(a = *hl);
  578 02CB 7E           	ld a, (hl)
  579 02CC CD 63 02     	call espsendbyteac
  580 02CF              ; 82                     if ((a = ESPError) > 0) { // Есть ошибки - выходим
  581 02CF 3A 51 03     	ld a, (esperror)
  582 02D2 B7           	or a
  583 02D3 CA D8 02     	jp z, __l_55
  584 02D6              ; 83                         b = 1;
  585 02D6 06 01        	ld b, 1
  586 02D8              __l_55:
  587 02D8              ; 84                     }
  588 02D8              ; 85                     hl++;
  589 02D8 23           	inc hl
  590 02D9              ; 86                     b--;
  591 02D9 05           	dec b
  592 02DA              __l_51:
  593 02DA              ; 87                 } while ((a = b) > 0);
  594 02DA 78           	ld a, b
  595 02DB B7           	or a
  596 02DC C2 BE 02     	jp nz, __l_50
  597 02DF              __l_48:
  598 02DF              __l_46:
  599 02DF E1           	pop hl
  600 02E0 C1           	pop bc
  601 02E1 C9           	ret
  602 02E2              ; 88             }
  603 02E2              ; 89         }
  604 02E2              ; 90     }
  605 02E2              ; 91 }
  606 02E2              ; 92
  607 02E2              ; 93 /// [вх] h = key
  608 02E2              ; 94 /// [вх] l = len buffer
  609 02E2              ; 95 /// [вых] l = len buffer
  610 02E2              ; 96 void ESPSendAndGetHL() {
  611 02E2              espsendandgethl:
  612 02E2              ; 97     ESPErrorClear();
  613 02E2 CD 4B 03     	call esperrorclear
  614 02E5              ; 98     push_pop(bc, de) {
  615 02E5 C5           	push bc
  616 02E6 D5           	push de
  617 02E7              ; 99         //-- Send Key
  618 02E7              ; 100         c = ESP_Reg_IsBegin;
  619 02E7 0E 40        	ld c, 64
  620 02E9              ; 101         ESPSendByteAC(a = h);
  621 02E9 7C           	ld a, h
  622 02EA CD 63 02     	call espsendbyteac
  623 02ED              ; 102         if ((a = ESPError) == 0) { // Нет ошибок - продолжаем
  624 02ED 3A 51 03     	ld a, (esperror)
  625 02F0 B7           	or a
  626 02F1 C2 48 03     	jp nz, __l_57
  627 02F4              ; 103             //-- Send Data
  628 02F4              ; 104             if ((a = l) > 0) {
  629 02F4 7D           	ld a, l
  630 02F5 B7           	or a
  631 02F6 CA 15 03     	jp z, __l_59
  632 02F9              ; 105                 b = l;
  633 02F9 45           	ld b, l
  634 02FA              ; 106                 hl = Net_buffer;
  635 02FA 21 B1 3A     	ld hl, net_buffer
  636 02FD              ; 107                 do {
  637 02FD              __l_61:
  638 02FD              ; 108                     if ((a = b) == 1) {
  639 02FD 78           	ld a, b
  640 02FE FE 01        	cp 1
  641 0300 C2 08 03     	jp nz, __l_64
  642 0303              ; 109                         c = ESP_Reg_IsEnd;
  643 0303 0E 80        	ld c, 128
  644 0305 C3 0A 03     	jp __l_65
  645 0308              __l_64:
  646 0308              ; 110                     } else {
  647 0308              ; 111                         c = 0;
  648 0308 0E 00        	ld c, 0
  649 030A              __l_65:
  650 030A              ; 112                     }
  651 030A              ; 113                     ESPSendByteAC(a = *hl);
  652 030A 7E           	ld a, (hl)
  653 030B CD 63 02     	call espsendbyteac
  654 030E              ; 114                     hl++;
  655 030E 23           	inc hl
  656 030F              ; 115                     b--;
  657 030F 05           	dec b
  658 0310              __l_62:
  659 0310              ; 116                 } while ((a = b) > 0);
  660 0310 78           	ld a, b
  661 0311 B7           	or a
  662 0312 C2 FD 02     	jp nz, __l_61
  663 0315              __l_59:
  664 0315              ; 117             }
  665 0315              ; 118             //-- Get Data
  666 0315              ; 119             b = 0;
  667 0315 06 00        	ld b, 0
  668 0317              ; 120             hl = Net_buffer;
  669 0317 21 B1 3A     	ld hl, net_buffer
  670 031A              ; 121             c = 1;
  671 031A 0E 01        	ld c, 1
  672 031C              ; 122             do {
  673 031C              __l_66:
  674 031C              ; 123                 ESPGetByteAD(); // a - data d - reg
  675 031C CD 7D 02     	call espgetbytead
  676 031F              ; 124                 e = a;
  677 031F 5F           	ld e, a
  678 0320              ; 125                 //ESP_Reg_In_IsEnd
  679 0320              ; 126                 //a = ESP_Reg_In_NoData + ESP_Reg_In_IsEnd;
  680 0320              ; 127                 a = ESP_Reg_In_NoData;
  681 0320 3E 04        	ld a, 4
  682 0322              ; 128                 a &= d;
  683 0322 A2           	and d
  684 0323              ; 129                 if (a == 0) {
  685 0323 B7           	or a
  686 0324 C2 3F 03     	jp nz, __l_69
  687 0327              ; 130                     a = ESP_Reg_In_IsEnd;
  688 0327 3E 08        	ld a, 8
  689 0329              ; 131                     a &= d;
  690 0329 A2           	and d
  691 032A              ; 132                     if (a > 0) {
  692 032A B7           	or a
  693 032B CA 30 03     	jp z, __l_71
  694 032E              ; 133                         c = 0;
  695 032E 0E 00        	ld c, 0
  696 0330              __l_71:
  697 0330              ; 134                     }
  698 0330              ; 135                     a = e;
  699 0330 7B           	ld a, e
  700 0331              ; 136                     *hl = a;
  701 0331 77           	ld (hl), a
  702 0332              ; 137                     hl++;
  703 0332 23           	inc hl
  704 0333              ; 138                     b++;
  705 0333 04           	inc b
  706 0334              ; 139                     if ((a = b) == 0xFF) {
  707 0334 78           	ld a, b
  708 0335 FE FF        	cp 255
  709 0337 C2 3C 03     	jp nz, __l_73
  710 033A              ; 140                         c = 0;
  711 033A 0E 00        	ld c, 0
  712 033C              __l_73:
  713 033C C3 41 03     	jp __l_70
  714 033F              __l_69:
  715 033F              ; 141                     }
  716 033F              ; 142                 } else {
  717 033F              ; 143                     c = 0;
  718 033F 0E 00        	ld c, 0
  719 0341              __l_70:
  720 0341              __l_67:
  721 0341              ; 144                 }
  722 0341              ; 145             } while ((a = c) == 1);
  723 0341 79           	ld a, c
  724 0342 FE 01        	cp 1
  725 0344 CA 1C 03     	jp z, __l_66
  726 0347              ; 146             l = b;
  727 0347 68           	ld l, b
  728 0348              __l_57:
  729 0348 D1           	pop de
  730 0349 C1           	pop bc
  731 034A C9           	ret
  732 034B              ; 147         }
  733 034B              ; 148     }
  734 034B              ; 149 }
  735 034B              ; 150
  736 034B              ; 151 void ESPErrorClear() {
  737 034B              esperrorclear:
  738 034B              ; 152     a = ESPError_No;
  739 034B 3E 00        	ld a, 0
  740 034D              ; 153     ESPError = a;
  741 034D 32 51 03     	ld (esperror), a
  742 0350 C9           	ret
  743 0351              ; 154 }
  744 0351              ; 155
  745 0351              ; 156 uint8_t ESPError = 0;
  746 0351              esperror:
  747 0351 00           	db 0
  748 0352              ; 11 void NetWiFiGetSsidPassword() {
  749 0352              netwifigetssidpassword:
  750 0352              ; 12     push_pop(hl, bc) {
  751 0352 E5           	push hl
  752 0353 C5           	push bc
  753 0354              ; 13         h = 1; // GET_SSID_PASSWORD, // 1
  754 0354 26 01        	ld h, 1
  755 0356              ; 14         l = 0; // Len NedBuffer
  756 0356 2E 00        	ld l, 0
  757 0358              ; 15         ESPSendAndGetHL();
  758 0358 CD E2 02     	call espsendandgethl
  759 035B              ; 16         b = 16;
  760 035B 06 10        	ld b, 16
  761 035D              ; 17         c = l;
  762 035D 4D           	ld c, l
  763 035E              ; 18         hl = WiFiSettingsViewPassValue;
  764 035E 21 6C 0C     	ld hl, wifisettingsviewpassvalue
  765 0361              ; 19         ParserBufferToHL();
  766 0361 CD 0E 06     	call parserbuffertohl
  767 0364 C1           	pop bc
  768 0365 E1           	pop hl
  769 0366 C9           	ret
  770 0367              ; 20     }
  771 0367              ; 21 }
  772 0367              ; 22
  773 0367              ; 23 void NetWiFiSetSsidPassword() {
  774 0367              netwifisetssidpassword:
  775 0367              ; 24     push_pop(hl, bc) {
  776 0367 E5           	push hl
  777 0368 C5           	push bc
  778 0369              ; 25         hl = WiFiSettingsViewPassValue;
  779 0369 21 6C 0C     	ld hl, wifisettingsviewpassvalue
  780 036C              ; 26         ParserHLToBuffer(b = 16);
  781 036C 06 10        	ld b, 16
  782 036E CD 2A 06     	call parserhltobuffer
  783 0371              ; 27         h = 2; // SET_SSID_PASSWORD, // 2
  784 0371 26 02        	ld h, 2
  785 0373              ; 28         l = 16; // Len NedBuffer
  786 0373 2E 10        	ld l, 16
  787 0375              ; 29         ESPSendHL();
  788 0375 CD 9A 02     	call espsendhl
  789 0378 C1           	pop bc
  790 0379 E1           	pop hl
  791 037A C9           	ret
  792 037B              ; 30     }
  793 037B              ; 31 }
  794 037B              ; 32
  795 037B              ; 33 void NetWiFiGetSsidIp() {
  796 037B              netwifigetssidip:
  797 037B              ; 34     push_pop(hl, bc) {
  798 037B E5           	push hl
  799 037C C5           	push bc
  800 037D              ; 35         h = 3; // GET_SSID_IP, // 3
  801 037D 26 03        	ld h, 3
  802 037F              ; 36         l = 0; // Len NedBuffer
  803 037F 2E 00        	ld l, 0
  804 0381              ; 37         ESPSendAndGetHL();
  805 0381 CD E2 02     	call espsendandgethl
  806 0384              ; 38         b = 16;
  807 0384 06 10        	ld b, 16
  808 0386              ; 39         c = l;
  809 0386 4D           	ld c, l
  810 0387              ; 40         hl = WiFiSettingsViewIpValue;
  811 0387 21 8E 0C     	ld hl, wifisettingsviewipvalue
  812 038A              ; 41         ParserBufferToHL();
  813 038A CD 0E 06     	call parserbuffertohl
  814 038D C1           	pop bc
  815 038E E1           	pop hl
  816 038F C9           	ret
  817 0390              ; 42     }
  818 0390              ; 43 }
  819 0390              ; 44
  820 0390              ; 45 void NetWiFiGetSsidMac() {
  821 0390              netwifigetssidmac:
  822 0390              ; 46     push_pop(hl, bc) {
  823 0390 E5           	push hl
  824 0391 C5           	push bc
  825 0392              ; 47         h = 4; // GET_SSID_MAC, // 4
  826 0392 26 04        	ld h, 4
  827 0394              ; 48         l = 0; // Len NedBuffer
  828 0394 2E 00        	ld l, 0
  829 0396              ; 49         ESPSendAndGetHL();
  830 0396 CD E2 02     	call espsendandgethl
  831 0399              ; 50         b = 18;
  832 0399 06 12        	ld b, 18
  833 039B              ; 51         c = l;
  834 039B 4D           	ld c, l
  835 039C              ; 52         hl = WiFiSettingsViewMacValue;
  836 039C 21 7C 0C     	ld hl, wifisettingsviewmacvalue
  837 039F              ; 53         ParserBufferSumToHL();
  838 039F CD BF 07     	call parserbuffersumtohl
  839 03A2 C1           	pop bc
  840 03A3 E1           	pop hl
  841 03A4 C9           	ret
  842 03A5              ; 54     }
  843 03A5              ; 55 }
  844 03A5              ; 56
  845 03A5              ; 57 void NetWiFiGetSsid() {
  846 03A5              netwifigetssid:
  847 03A5              ; 58     push_pop(hl, bc) {
  848 03A5 E5           	push hl
  849 03A6 C5           	push bc
  850 03A7              ; 59         h = 5; // GET_SSID, // 5
  851 03A7 26 05        	ld h, 5
  852 03A9              ; 60         l = 0; // Len NedBuffer
  853 03A9 2E 00        	ld l, 0
  854 03AB              ; 61         ESPSendAndGetHL();
  855 03AB CD E2 02     	call espsendandgethl
  856 03AE              ; 62         b = 16;
  857 03AE 06 10        	ld b, 16
  858 03B0              ; 63         c = l;
  859 03B0 4D           	ld c, l
  860 03B1              ; 64         hl = WiFiSettingsViewSsidValue;
  861 03B1 21 5C 0C     	ld hl, wifisettingsviewssidvalue
  862 03B4              ; 65         ParserBufferToHL();
  863 03B4 CD 0E 06     	call parserbuffertohl
  864 03B7 C1           	pop bc
  865 03B8 E1           	pop hl
  866 03B9 C9           	ret
  867 03BA              ; 66     }
  868 03BA              ; 67 }
  869 03BA              ; 68
  870 03BA              ; 69 void NetFtpGetUrl() {
  871 03BA              netftpgeturl:
  872 03BA              ; 70     push_pop(hl, bc) {
  873 03BA E5           	push hl
  874 03BB C5           	push bc
  875 03BC              ; 71         h = 6; // GET_FTP_URL, // 6
  876 03BC 26 06        	ld h, 6
  877 03BE              ; 72         l = 0; // Len NedBuffer
  878 03BE 2E 00        	ld l, 0
  879 03C0              ; 73         ESPSendAndGetHL();
  880 03C0 CD E2 02     	call espsendandgethl
  881 03C3              ; 74         b = 16;
  882 03C3 06 10        	ld b, 16
  883 03C5              ; 75         c = l;
  884 03C5 4D           	ld c, l
  885 03C6              ; 76         hl = FtpStateViewIpValue;
  886 03C6 21 C6 1C     	ld hl, ftpstateviewipvalue
  887 03C9              ; 77         ParserBufferToHL();
  888 03C9 CD 0E 06     	call parserbuffertohl
  889 03CC C1           	pop bc
  890 03CD E1           	pop hl
  891 03CE C9           	ret
  892 03CF              ; 78     }
  893 03CF              ; 79 }
  894 03CF              ; 80
  895 03CF              ; 81 void NetFtpSetUrl() {
  896 03CF              netftpseturl:
  897 03CF              ; 82     push_pop(hl, bc) {
  898 03CF E5           	push hl
  899 03D0 C5           	push bc
  900 03D1              ; 83         hl = FtpStateViewIpValue;
  901 03D1 21 C6 1C     	ld hl, ftpstateviewipvalue
  902 03D4              ; 84         ParserHLToBuffer(b = 16);
  903 03D4 06 10        	ld b, 16
  904 03D6 CD 2A 06     	call parserhltobuffer
  905 03D9              ; 85         h = 7; // SET_FTP_URL, // 7
  906 03D9 26 07        	ld h, 7
  907 03DB              ; 86         l = 16; // Len NedBuffer
  908 03DB 2E 10        	ld l, 16
  909 03DD              ; 87         ESPSendHL();
  910 03DD CD 9A 02     	call espsendhl
  911 03E0 C1           	pop bc
  912 03E1 E1           	pop hl
  913 03E2 C9           	ret
  914 03E3              ; 88     }
  915 03E3              ; 89 }
  916 03E3              ; 90
  917 03E3              ; 91 void NetFtpGetUser() {
  918 03E3              netftpgetuser:
  919 03E3              ; 92     push_pop(hl, bc) {
  920 03E3 E5           	push hl
  921 03E4 C5           	push bc
  922 03E5              ; 93         h = 8; // GET_FTP_USER, // 8
  923 03E5 26 08        	ld h, 8
  924 03E7              ; 94         l = 0; // Len NedBuffer
  925 03E7 2E 00        	ld l, 0
  926 03E9              ; 95         ESPSendAndGetHL();
  927 03E9 CD E2 02     	call espsendandgethl
  928 03EC              ; 96         b = 16;
  929 03EC 06 10        	ld b, 16
  930 03EE              ; 97         c = l;
  931 03EE 4D           	ld c, l
  932 03EF              ; 98         hl = FtpSettingsViewValueUser;
  933 03EF 21 01 20     	ld hl, ftpsettingsviewvalueuser
  934 03F2              ; 99         ParserBufferToHL();
  935 03F2 CD 0E 06     	call parserbuffertohl
  936 03F5 C1           	pop bc
  937 03F6 E1           	pop hl
  938 03F7 C9           	ret
  939 03F8              ; 100     }
  940 03F8              ; 101 }
  941 03F8              ; 102
  942 03F8              ; 103 void NetFtpSetUser() {
  943 03F8              netftpsetuser:
  944 03F8              ; 104     push_pop(hl, bc) {
  945 03F8 E5           	push hl
  946 03F9 C5           	push bc
  947 03FA              ; 105         hl = FtpSettingsViewValueUser;
  948 03FA 21 01 20     	ld hl, ftpsettingsviewvalueuser
  949 03FD              ; 106         ParserHLToBuffer(b = 16);
  950 03FD 06 10        	ld b, 16
  951 03FF CD 2A 06     	call parserhltobuffer
  952 0402              ; 107         h = 9; // SET_FTP_USER, // 9
  953 0402 26 09        	ld h, 9
  954 0404              ; 108         l = 16; // Len NedBuffer
  955 0404 2E 10        	ld l, 16
  956 0406              ; 109         ESPSendHL();
  957 0406 CD 9A 02     	call espsendhl
  958 0409 C1           	pop bc
  959 040A E1           	pop hl
  960 040B C9           	ret
  961 040C              ; 110     }
  962 040C              ; 111 }
  963 040C              ; 112
  964 040C              ; 113 void NetFtpGetPassword() {
  965 040C              netftpgetpassword:
  966 040C              ; 114     push_pop(hl, bc) {
  967 040C E5           	push hl
  968 040D C5           	push bc
  969 040E              ; 115         h = 10; // GET_FTP_PASS, // 10
  970 040E 26 0A        	ld h, 10
  971 0410              ; 116         l = 0; // Len NedBuffer
  972 0410 2E 00        	ld l, 0
  973 0412              ; 117         ESPSendAndGetHL();
  974 0412 CD E2 02     	call espsendandgethl
  975 0415              ; 118         b = 16;
  976 0415 06 10        	ld b, 16
  977 0417              ; 119         c = l;
  978 0417 4D           	ld c, l
  979 0418              ; 120         hl = FtpSettingsViewValuePass;
  980 0418 21 11 20     	ld hl, ftpsettingsviewvaluepass
  981 041B              ; 121         ParserBufferToHL();
  982 041B CD 0E 06     	call parserbuffertohl
  983 041E C1           	pop bc
  984 041F E1           	pop hl
  985 0420 C9           	ret
  986 0421              ; 122     }
  987 0421              ; 123 }
  988 0421              ; 124
  989 0421              ; 125 void NetFtpSetPassword() {
  990 0421              netftpsetpassword:
  991 0421              ; 126     push_pop(hl, bc) {
  992 0421 E5           	push hl
  993 0422 C5           	push bc
  994 0423              ; 127         hl = FtpSettingsViewValuePass;
  995 0423 21 11 20     	ld hl, ftpsettingsviewvaluepass
  996 0426              ; 128         ParserHLToBuffer(b = 16);
  997 0426 06 10        	ld b, 16
  998 0428 CD 2A 06     	call parserhltobuffer
  999 042B              ; 129         h = 11; // SET_FTP_PASS, // 11
 1000 042B 26 0B        	ld h, 11
 1001 042D              ; 130         l = 16; // Len NedBuffer
 1002 042D 2E 10        	ld l, 16
 1003 042F              ; 131         ESPSendHL();
 1004 042F CD 9A 02     	call espsendhl
 1005 0432 C1           	pop bc
 1006 0433 E1           	pop hl
 1007 0434 C9           	ret
 1008 0435              ; 132     }
 1009 0435              ; 133 }
 1010 0435              ; 134
 1011 0435              ; 135 void NetFtpGetHomeDir() {
 1012 0435              netftpgethomedir:
 1013 0435              ; 136     push_pop(hl, bc) {
 1014 0435 E5           	push hl
 1015 0436 C5           	push bc
 1016 0437              ; 137         h = 12; // GET_FTP_HOME_DIR, // 12
 1017 0437 26 0C        	ld h, 12
 1018 0439              ; 138         l = 0; // Len NedBuffer
 1019 0439 2E 00        	ld l, 0
 1020 043B              ; 139         ESPSendAndGetHL();
 1021 043B CD E2 02     	call espsendandgethl
 1022 043E              ; 140         b = 16;
 1023 043E 06 10        	ld b, 16
 1024 0440              ; 141         c = l;
 1025 0440 4D           	ld c, l
 1026 0441              ; 142         hl = FtpSettingsViewValueHomeDir;
 1027 0441 21 21 20     	ld hl, ftpsettingsviewvaluehomedir
 1028 0444              ; 143         ParserBufferToHL();
 1029 0444 CD 0E 06     	call parserbuffertohl
 1030 0447 C1           	pop bc
 1031 0448 E1           	pop hl
 1032 0449 C9           	ret
 1033 044A              ; 144     }
 1034 044A              ; 145 }
 1035 044A              ; 146
 1036 044A              ; 147 void NetFtpSetHomeDir() {
 1037 044A              netftpsethomedir:
 1038 044A              ; 148     push_pop(hl, bc) {
 1039 044A E5           	push hl
 1040 044B C5           	push bc
 1041 044C              ; 149         hl = FtpSettingsViewValueHomeDir;
 1042 044C 21 21 20     	ld hl, ftpsettingsviewvaluehomedir
 1043 044F              ; 150         ParserHLToBuffer(b = 16);
 1044 044F 06 10        	ld b, 16
 1045 0451 CD 2A 06     	call parserhltobuffer
 1046 0454              ; 151         h = 13; // SET_FTP_HOME_DIR, // 13
 1047 0454 26 0D        	ld h, 13
 1048 0456              ; 152         l = 16; // Len NedBuffer
 1049 0456 2E 10        	ld l, 16
 1050 0458              ; 153         ESPSendHL();
 1051 0458 CD 9A 02     	call espsendhl
 1052 045B C1           	pop bc
 1053 045C E1           	pop hl
 1054 045D C9           	ret
 1055 045E              ; 154     }
 1056 045E              ; 155 }
 1057 045E              ; 156
 1058 045E              ; 157 void NetFtpGetPort() {
 1059 045E              netftpgetport:
 1060 045E              ; 158     push_pop(hl, bc) {
 1061 045E E5           	push hl
 1062 045F C5           	push bc
 1063 0460              ; 159         h = 14; // GET_FTP_PORT, // 14
 1064 0460 26 0E        	ld h, 14
 1065 0462              ; 160         l = 0; // Len NedBuffer
 1066 0462 2E 00        	ld l, 0
 1067 0464              ; 161         ESPSendAndGetHL();
 1068 0464 CD E2 02     	call espsendandgethl
 1069 0467              ; 162         b = 6;
 1070 0467 06 06        	ld b, 6
 1071 0469              ; 163         c = l;
 1072 0469 4D           	ld c, l
 1073 046A              ; 164         hl = FtpSettingsViewValuePort;
 1074 046A 21 F1 1F     	ld hl, ftpsettingsviewvalueport
 1075 046D              ; 165         ParserBufferToHL();
 1076 046D CD 0E 06     	call parserbuffertohl
 1077 0470 C1           	pop bc
 1078 0471 E1           	pop hl
 1079 0472 C9           	ret
 1080 0473              ; 166     }
 1081 0473              ; 167 }
 1082 0473              ; 168
 1083 0473              ; 169 void NetFtpSetPort() {
 1084 0473              netftpsetport:
 1085 0473              ; 170     push_pop(hl, bc) {
 1086 0473 E5           	push hl
 1087 0474 C5           	push bc
 1088 0475              ; 171         hl = FtpSettingsViewValuePort;
 1089 0475 21 F1 1F     	ld hl, ftpsettingsviewvalueport
 1090 0478              ; 172         ParserHLToBuffer(b = 16);
 1091 0478 06 10        	ld b, 16
 1092 047A CD 2A 06     	call parserhltobuffer
 1093 047D              ; 173         h = 15; // SET_FTP_PORT, // 15
 1094 047D 26 0F        	ld h, 15
 1095 047F              ; 174         l = 6; // Len NedBuffer
 1096 047F 2E 06        	ld l, 6
 1097 0481              ; 175         ESPSendHL();
 1098 0481 CD 9A 02     	call espsendhl
 1099 0484 C1           	pop bc
 1100 0485 E1           	pop hl
 1101 0486 C9           	ret
 1102 0487              ; 176     }
 1103 0487              ; 177 }
 1104 0487              ; 178
 1105 0487              ; 179 void NetWiFiListUpdate() {
 1106 0487              netwifilistupdate:
 1107 0487              ; 180     push_pop(hl) {
 1108 0487 E5           	push hl
 1109 0488              ; 181         h = 16; // SSID_LIST_UPDATE, // 16
 1110 0488 26 10        	ld h, 16
 1111 048A              ; 182         l = 0; // Len NedBuffer
 1112 048A 2E 00        	ld l, 0
 1113 048C              ; 183         ESPSendHL();
 1114 048C CD 9A 02     	call espsendhl
 1115 048F E1           	pop hl
 1116 0490 C9           	ret
 1117 0491              ; 184     }
 1118 0491              ; 185 }
 1119 0491              ; 186
 1120 0491              ; 187 void NetWiFiGetList() {
 1121 0491              netwifigetlist:
 1122 0491              ; 188     a = 0;
 1123 0491 3E 00        	ld a, 0
 1124 0493              ; 189     WiFiNetworksViewSSIDCount = a;
 1125 0493 32 DE 28     	ld (wifinetworksviewssidcount), a
 1126 0496              ; 190     push_pop(hl, bc, de) {
 1127 0496 E5           	push hl
 1128 0497 C5           	push bc
 1129 0498 D5           	push de
 1130 0499              ; 191         c = 0;
 1131 0499 0E 00        	ld c, 0
 1132 049B              ; 192         do {
 1133 049B              __l_75:
 1134 049B              ; 193             h = 17; // SSID_LIST_NEXT, // 17
 1135 049B 26 11        	ld h, 17
 1136 049D              ; 194             l = 0; // Len NedBuffer
 1137 049D 2E 00        	ld l, 0
 1138 049F              ; 195             ESPSendAndGetHL();
 1139 049F CD E2 02     	call espsendandgethl
 1140 04A2              ; 196             if ((a = l) > 0) {
 1141 04A2 7D           	ld a, l
 1142 04A3 B7           	or a
 1143 04A4 CA C2 04     	jp z, __l_78
 1144 04A7              ; 197                 b = l;
 1145 04A7 45           	ld b, l
 1146 04A8              ; 198                 //--
 1147 04A8              ; 199                 hl = WiFiNetworksViewSSIDList;
 1148 04A8 21 DF 28     	ld hl, wifinetworksviewssidlist
 1149 04AB              ; 200                 d = 0;
 1150 04AB 16 00        	ld d, 0
 1151 04AD              ; 201                 a ^= a;
 1152 04AD AF           	xor a
 1153 04AE              ; 202                 a = c;
 1154 04AE 79           	ld a, c
 1155 04AF              ; 203                 carry_rotate_left(a, 4);
 1156 04AF 17           	rla
 1157 04B0 17           	rla
 1158 04B1 17           	rla
 1159 04B2 17           	rla
 1160 04B3              ; 204                 if (flag_c) { // Если переполняние младшего разряда, инкремент старшего
 1161 04B3 D2 B7 04     	jp nc, __l_80
 1162 04B6              ; 205                     d++;
 1163 04B6 14           	inc d
 1164 04B7              __l_80:
 1165 04B7              ; 206                 }
 1166 04B7              ; 207                 e = a;
 1167 04B7 5F           	ld e, a
 1168 04B8              ; 208                 hl += de;
 1169 04B8 19           	add hl, de
 1170 04B9              ; 209                 push_pop(bc) {
 1171 04B9 C5           	push bc
 1172 04BA              ; 210                     c = b;
 1173 04BA 48           	ld c, b
 1174 04BB              ; 211                     b = 16;
 1175 04BB 06 10        	ld b, 16
 1176 04BD              ; 212                     ParserBufferToHL();
 1177 04BD CD 0E 06     	call parserbuffertohl
 1178 04C0 C1           	pop bc
 1179 04C1              ; 213                 }
 1180 04C1              ; 214                 //--
 1181 04C1              ; 215                 c++;
 1182 04C1 0C           	inc c
 1183 04C2              __l_78:
 1184 04C2              __l_76:
 1185 04C2              ; 216             }
 1186 04C2              ; 217         } while ((a = l) > 0);
 1187 04C2 7D           	ld a, l
 1188 04C3 B7           	or a
 1189 04C4 C2 9B 04     	jp nz, __l_75
 1190 04C7              ; 218         a = c;
 1191 04C7 79           	ld a, c
 1192 04C8              ; 219         WiFiNetworksViewSSIDCount = a;
 1193 04C8 32 DE 28     	ld (wifinetworksviewssidcount), a
 1194 04CB D1           	pop de
 1195 04CC C1           	pop bc
 1196 04CD E1           	pop hl
 1197 04CE C9           	ret
 1198 04CF              ; 220     }
 1199 04CF              ; 221 }
 1200 04CF              ; 222
 1201 04CF              ; 223 void NetWiFiSetListA() {
 1202 04CF              netwifisetlista:
 1203 04CF              ; 224     push_pop(hl) {
 1204 04CF E5           	push hl
 1205 04D0              ; 225         hl = Net_buffer;
 1206 04D0 21 B1 3A     	ld hl, net_buffer
 1207 04D3              ; 226         *hl = a;
 1208 04D3 77           	ld (hl), a
 1209 04D4              ; 227         h = 18; // SSID_SET_LIST_ID, // 18
 1210 04D4 26 12        	ld h, 18
 1211 04D6              ; 228         l = 1; // Len NedBuffer
 1212 04D6 2E 01        	ld l, 1
 1213 04D8              ; 229         ESPSendHL();
 1214 04D8 CD 9A 02     	call espsendhl
 1215 04DB E1           	pop hl
 1216 04DC C9           	ret
 1217 04DD              ; 230     }
 1218 04DD              ; 231 }
 1219 04DD              ; 232
 1220 04DD              ; 233 void NetWiFiConnect() {
 1221 04DD              netwificonnect:
 1222 04DD              ; 234     push_pop(hl) {
 1223 04DD E5           	push hl
 1224 04DE              ; 235         h = 19; // SSID_CONNECT, // 19
 1225 04DE 26 13        	ld h, 19
 1226 04E0              ; 236         l = 0; // Len NedBuffer
 1227 04E0 2E 00        	ld l, 0
 1228 04E2              ; 237         ESPSendHL();
 1229 04E2 CD 9A 02     	call espsendhl
 1230 04E5 E1           	pop hl
 1231 04E6 C9           	ret
 1232 04E7              ; 238     }
 1233 04E7              ; 239 }
 1234 04E7              ; 240
 1235 04E7              ; 241 void NetGetAllStatus() {
 1236 04E7              netgetallstatus:
 1237 04E7              ; 242     push_pop(hl) {
 1238 04E7 E5           	push hl
 1239 04E8              ; 243         h = 20; //  GET_STATUS, // 20
 1240 04E8 26 14        	ld h, 20
 1241 04EA              ; 244         l = 0; // Len NedBuffer
 1242 04EA 2E 00        	ld l, 0
 1243 04EC              ; 245         ESPSendAndGetHL();
 1244 04EC CD E2 02     	call espsendandgethl
 1245 04EF              ; 246         //--
 1246 04EF              ; 247         NetGetAllStatusParse();
 1247 04EF CD 65 07     	call netgetallstatusparse
 1248 04F2 E1           	pop hl
 1249 04F3 C9           	ret
 1250 04F4              ; 248     }
 1251 04F4              ; 249 }
 1252 04F4              ; 250
 1253 04F4              ; 251 void NetFtpGoToHomeDir() {
 1254 04F4              netftpgotohomedir:
 1255 04F4              ; 252     push_pop(hl) {
 1256 04F4 E5           	push hl
 1257 04F5              ; 253         h = 21; // SET_FTP_TO_HOME_DIR, // 21
 1258 04F5 26 15        	ld h, 21
 1259 04F7              ; 254         l = 0; // Len NedBuffer
 1260 04F7 2E 00        	ld l, 0
 1261 04F9              ; 255         ESPSendHL();
 1262 04F9 CD 9A 02     	call espsendhl
 1263 04FC E1           	pop hl
 1264 04FD C9           	ret
 1265 04FE              ; 256     }
 1266 04FE              ; 257 }
 1267 04FE              ; 258
 1268 04FE              ; 259 void NetFtpGetCurrentPath() {
 1269 04FE              netftpgetcurrentpath:
 1270 04FE              ; 260     push_pop(hl) {
 1271 04FE E5           	push hl
 1272 04FF              ; 261         h = 22; //  GET_FTP_CURRENT_FOLDER, // 22
 1273 04FF 26 16        	ld h, 22
 1274 0501              ; 262         l = 0; // Len NedBuffer
 1275 0501 2E 00        	ld l, 0
 1276 0503              ; 263         ESPSendAndGetHL();
 1277 0503 CD E2 02     	call espsendandgethl
 1278 0506              ; 264         b = 16;
 1279 0506 06 10        	ld b, 16
 1280 0508              ; 265         c = l;
 1281 0508 4D           	ld c, l
 1282 0509              ; 266         hl = FtpViewPath;
 1283 0509 21 69 24     	ld hl, ftpviewpath
 1284 050C              ; 267         ParserBufferToHL();
 1285 050C CD 0E 06     	call parserbuffertohl
 1286 050F E1           	pop hl
 1287 0510 C9           	ret
 1288 0511              ; 268     }
 1289 0511              ; 269 }
 1290 0511              ; 270
 1291 0511              ; 271 void NetFtpConnect() {
 1292 0511              netftpconnect:
 1293 0511              ; 272     push_pop(hl) {
 1294 0511 E5           	push hl
 1295 0512              ; 273         h = 23; // FTP_CONNECT, // 23
 1296 0512 26 17        	ld h, 23
 1297 0514              ; 274         l = 0; // Len NedBuffer
 1298 0514 2E 00        	ld l, 0
 1299 0516              ; 275         ESPSendHL();
 1300 0516 CD 9A 02     	call espsendhl
 1301 0519 E1           	pop hl
 1302 051A C9           	ret
 1303 051B              ; 276     }
 1304 051B              ; 277 }
 1305 051B              ; 278
 1306 051B              ; 279 void NetFtpChangeDirUp() {
 1307 051B              netftpchangedirup:
 1308 051B              ; 280     push_pop(hl) {
 1309 051B E5           	push hl
 1310 051C              ; 281         h = 24; // SET_FTP_CHANGE_DIR_UP, // 24
 1311 051C 26 18        	ld h, 24
 1312 051E              ; 282         l = 0; // Len NedBuffer
 1313 051E 2E 00        	ld l, 0
 1314 0520              ; 283         ESPSendHL();
 1315 0520 CD 9A 02     	call espsendhl
 1316 0523 E1           	pop hl
 1317 0524 C9           	ret
 1318 0525              ; 284     }
 1319 0525              ; 285 }
 1320 0525              ; 286
 1321 0525              ; 287 void NetFtpChangeDirIndexA() {
 1322 0525              netftpchangedirindexa:
 1323 0525              ; 288     push_pop(hl) {
 1324 0525 E5           	push hl
 1325 0526              ; 289         hl = Net_buffer;
 1326 0526 21 B1 3A     	ld hl, net_buffer
 1327 0529              ; 290         *hl = a;
 1328 0529 77           	ld (hl), a
 1329 052A              ; 291         h = 25; // SET_FTP_CHANGE_DIR_INDEX, // 25
 1330 052A 26 19        	ld h, 25
 1331 052C              ; 292         l = 1; // Len NedBuffer
 1332 052C 2E 01        	ld l, 1
 1333 052E              ; 293         ESPSendHL();
 1334 052E CD 9A 02     	call espsendhl
 1335 0531 E1           	pop hl
 1336 0532 C9           	ret
 1337 0533              ; 294     }
 1338 0533              ; 295 }
 1339 0533              ; 296
 1340 0533              ; 297 void NetFtpUpdateList() {
 1341 0533              netftpupdatelist:
 1342 0533              ; 298     push_pop(hl) {
 1343 0533 E5           	push hl
 1344 0534              ; 299         hl = Net_buffer;
 1345 0534 21 B1 3A     	ld hl, net_buffer
 1346 0537              ; 300         a = 20; // Получить 20 файлов
 1347 0537 3E 14        	ld a, 20
 1348 0539              ; 301         *hl = a;
 1349 0539 77           	ld (hl), a
 1350 053A              ; 302         h = 26; // FTP_UPDATE_LIST, // 26
 1351 053A 26 1A        	ld h, 26
 1352 053C              ; 303         l = 1; // Len NedBuffer
 1353 053C 2E 01        	ld l, 1
 1354 053E              ; 304         ESPSendHL();
 1355 053E CD 9A 02     	call espsendhl
 1356 0541 E1           	pop hl
 1357 0542 C9           	ret
 1358 0543              ; 305     }
 1359 0543              ; 306 }
 1360 0543              ; 307
 1361 0543              ; 308 void NetFtpListFiles() {
 1362 0543              netftplistfiles:
 1363 0543              ; 309     push_pop(hl, bc, de) {
 1364 0543 E5           	push hl
 1365 0544 C5           	push bc
 1366 0545 D5           	push de
 1367 0546              ; 310         a = 0;
 1368 0546 3E 00        	ld a, 0
 1369 0548              ; 311         NetFtpListFilesParseSumState = a;
 1370 0548 32 8B 08     	ld (netftplistfilesparsesumstate), a
 1371 054B              ; 312         c = 0;
 1372 054B 0E 00        	ld c, 0
 1373 054D              ; 313         do {
 1374 054D              __l_82:
 1375 054D              ; 314             //--
 1376 054D              ; 315             hl = Net_buffer;
 1377 054D 21 B1 3A     	ld hl, net_buffer
 1378 0550              ; 316             a = NetFtpListFilesParseSumState;
 1379 0550 3A 8B 08     	ld a, (netftplistfilesparsesumstate)
 1380 0553              ; 317             *hl = a;
 1381 0553 77           	ld (hl), a
 1382 0554              ; 318             //--
 1383 0554              ; 319             h = 27; // FTP_LIST_FILE_NEXT, // 27
 1384 0554 26 1B        	ld h, 27
 1385 0556              ; 320             l = 1; // Len NedBuffer
 1386 0556 2E 01        	ld l, 1
 1387 0558              ; 321             ESPSendAndGetHL();
 1388 0558 CD E2 02     	call espsendandgethl
 1389 055B              ; 322             //--
 1390 055B              ; 323             NetFtpListFilesParse(); // пока l > 0 (ответ от ESP что то содержит)
 1391 055B CD 3C 06     	call netftplistfilesparse
 1392 055E              __l_83:
 1393 055E              ; 324         } while ((a = l) > 0);
 1394 055E 7D           	ld a, l
 1395 055F B7           	or a
 1396 0560 C2 4D 05     	jp nz, __l_82
 1397 0563              ; 325         a = c;
 1398 0563 79           	ld a, c
 1399 0564              ; 326         FtpViewFilesListCount = a;
 1400 0564 32 7A 24     	ld (ftpviewfileslistcount), a
 1401 0567 D1           	pop de
 1402 0568 C1           	pop bc
 1403 0569 E1           	pop hl
 1404 056A C9           	ret
 1405 056B              ; 327     }
 1406 056B              ; 328 }
 1407 056B              ; 329
 1408 056B              ; 330 void NetFtpLoadFileA() {
 1409 056B              netftploadfilea:
 1410 056B              ; 331     push_pop(hl) {
 1411 056B E5           	push hl
 1412 056C              ; 332         hl = Net_buffer;
 1413 056C 21 B1 3A     	ld hl, net_buffer
 1414 056F              ; 333         *hl = a;
 1415 056F 77           	ld (hl), a
 1416 0570              ; 334         h = 28; // FTP_FILE_DOWNLOAD, // 28
 1417 0570 26 1C        	ld h, 28
 1418 0572              ; 335         l = 1; // Len NedBuffer
 1419 0572 2E 01        	ld l, 1
 1420 0574              ; 336         ESPSendHL();
 1421 0574 CD 9A 02     	call espsendhl
 1422 0577 E1           	pop hl
 1423 0578 C9           	ret
 1424 0579              ; 337     }
 1425 0579              ; 338 }
 1426 0579              ; 339
 1427 0579              ; 340 void NetFtpLoadFileNext() {
 1428 0579              netftploadfilenext:
 1429 0579              ; 341     push_pop(hl) {
 1430 0579 E5           	push hl
 1431 057A              ; 342         a = 1;
 1432 057A 3E 01        	ld a, 1
 1433 057C              ; 343         NetFtpLoadFileNextParseSumState = a;
 1434 057C 32 8A 08     	ld (netftploadfilenextparsesumstate), a
 1435 057F              ; 344         do {
 1436 057F              __l_85:
 1437 057F              ; 345             //--
 1438 057F              ; 346             hl = Net_buffer;
 1439 057F 21 B1 3A     	ld hl, net_buffer
 1440 0582              ; 347             a = NetFtpLoadFileNextParseSumState;
 1441 0582 3A 8A 08     	ld a, (netftploadfilenextparsesumstate)
 1442 0585              ; 348             *hl = a;
 1443 0585 77           	ld (hl), a
 1444 0586              ; 349             //--
 1445 0586              ; 350             h = 29; // FTP_FILE_DOWNLOAD_NEXT, // 29
 1446 0586 26 1D        	ld h, 29
 1447 0588              ; 351             l = 1; // Len NedBuffer
 1448 0588 2E 01        	ld l, 1
 1449 058A              ; 352             ESPSendAndGetHL();
 1450 058A CD E2 02     	call espsendandgethl
 1451 058D              ; 353             //--
 1452 058D              ; 354             NetFtpLoadFileNextParse();
 1453 058D CD B1 06     	call netftploadfilenextparse
 1454 0590              __l_86:
 1455 0590              ; 355         } while ((a = l) > 0);
 1456 0590 7D           	ld a, l
 1457 0591 B7           	or a
 1458 0592 C2 7F 05     	jp nz, __l_85
 1459 0595 E1           	pop hl
 1460 0596 C9           	ret
 1461 0597              ; 356     }
 1462 0597              ; 357 }
 1463 0597              ; 358
 1464 0597              ; 359 void NetErrorClear() {
 1465 0597              neterrorclear:
 1466 0597              ; 360     push_pop(hl) {
 1467 0597 E5           	push hl
 1468 0598              ; 361         h = 30; // ESP_ERROR_CLEAR, // 30
 1469 0598 26 1E        	ld h, 30
 1470 059A              ; 362         l = 0; // Len NedBuffer
 1471 059A 2E 00        	ld l, 0
 1472 059C              ; 363         ESPSendHL();
 1473 059C CD 9A 02     	call espsendhl
 1474 059F E1           	pop hl
 1475 05A0 C9           	ret
 1476 05A1              ; 364     }
 1477 05A1              ; 365 }
 1478 05A1              ; 366
 1479 05A1              ; 367 void NetFtpDeleteFileIndexA() {
 1480 05A1              netftpdeletefileindexa:
 1481 05A1              ; 368     push_pop(hl) {
 1482 05A1 E5           	push hl
 1483 05A2              ; 369         hl = Net_buffer;
 1484 05A2 21 B1 3A     	ld hl, net_buffer
 1485 05A5              ; 370         *hl = a;
 1486 05A5 77           	ld (hl), a
 1487 05A6              ; 371         h = 31; // FTP_FILE_DELETE_INDEX, // 31
 1488 05A6 26 1F        	ld h, 31
 1489 05A8              ; 372         l = 1; // Len NedBuffer
 1490 05A8 2E 01        	ld l, 1
 1491 05AA              ; 373         ESPSendHL();
 1492 05AA CD 9A 02     	call espsendhl
 1493 05AD E1           	pop hl
 1494 05AE C9           	ret
 1495 05AF              ; 374     }
 1496 05AF              ; 375 }
 1497 05AF              ; 376
 1498 05AF              ; 377 void NetFtpMakeDirectory() {
 1499 05AF              netftpmakedirectory:
 1500 05AF              ; 378     push_pop(hl) {
 1501 05AF E5           	push hl
 1502 05B0              ; 379         hl = FtpMakeDirectoryValue;
 1503 05B0 21 6B 2E     	ld hl, ftpmakedirectoryvalue
 1504 05B3              ; 380         ParserHLToBuffer(b = 16);
 1505 05B3 06 10        	ld b, 16
 1506 05B5 CD 2A 06     	call parserhltobuffer
 1507 05B8              ; 381         h = 33; // FTP_MAKE_DIRECTORY, // 33
 1508 05B8 26 21        	ld h, 33
 1509 05BA              ; 382         l = 16; // Len NedBuffer
 1510 05BA 2E 10        	ld l, 16
 1511 05BC              ; 383         ESPSendHL();
 1512 05BC CD 9A 02     	call espsendhl
 1513 05BF E1           	pop hl
 1514 05C0 C9           	ret
 1515 05C1              ; 384     }
 1516 05C1              ; 385 }
 1517 05C1              ; 386
 1518 05C1              ; 387 void NetFtpUploadFileInitHL() {
 1519 05C1              netftpuploadfileinithl:
 1520 05C1              ; 388     ParserFileUploadInit();
 1521 05C1 CD 8C 08     	call parserfileuploadinit
 1522 05C4              ; 389     // Отправляем данные о файле
 1523 05C4              ; 390     push_pop(hl, bc) {
 1524 05C4 E5           	push hl
 1525 05C5 C5           	push bc
 1526 05C6              ; 391         ParserFileUploadInit();
 1527 05C6 CD 8C 08     	call parserfileuploadinit
 1528 05C9              ; 392
 1529 05C9              ; 393         ParserHLToBuffer(b = 8);
 1530 05C9 06 08        	ld b, 8
 1531 05CB CD 2A 06     	call parserhltobuffer
 1532 05CE              ; 394         h = 32; // FTP_FILE_UPLOAD_INIT, // 32
 1533 05CE 26 20        	ld h, 32
 1534 05D0              ; 395         l = 8; // Len NedBuffer
 1535 05D0 2E 08        	ld l, 8
 1536 05D2              ; 396         ESPSendHL();
 1537 05D2 CD 9A 02     	call espsendhl
 1538 05D5 C1           	pop bc
 1539 05D6 E1           	pop hl
 1540 05D7              ; 397     }
 1541 05D7              ; 398     // Начинаем передавать содержимое файла
 1542 05D7              ; 399     do {
 1543 05D7              __l_88:
 1544 05D7              ; 400         ParserFileUploadCreateBuffer();
 1545 05D7 CD CB 08     	call parserfileuploadcreatebuffer
 1546 05DA              ; 401         h = 34; // FTP_FILE_UPLOAD_NEXT, // 34
 1547 05DA 26 22        	ld h, 34
 1548 05DC              ; 402         l = 20; // Len NedBuffer 16 + 1 + 2 + 1 = 20
 1549 05DC 2E 14        	ld l, 20
 1550 05DE              ; 403         ESPSendAndGetHL();
 1551 05DE CD E2 02     	call espsendandgethl
 1552 05E1              ; 404         // Parse
 1553 05E1              ; 405         // b = 0x3C, b = isCorrect, b = progress, b = sum
 1554 05E1              ; 406         ParserFileUploadParse();
 1555 05E1 CD 10 09     	call parserfileuploadparse
 1556 05E4              __l_89:
 1557 05E4              ; 407     } while (a > 0);
 1558 05E4 B7           	or a
 1559 05E5 C2 D7 05     	jp nz, __l_88
 1560 05E8 C9           	ret
 1561 05E9              ; 408 }
 1562 05E9              ; 409
 1563 05E9              ; 410 // Вых [A] - 1 - Успешно. 0 - Ошибка
 1564 05E9              ; 411 void NetDiskGetNum() {
 1565 05E9              netdiskgetnum:
 1566 05E9              ; 412     push_pop(hl, bc) {
 1567 05E9 E5           	push hl
 1568 05EA C5           	push bc
 1569 05EB              ; 413         h = 35; // GET_DISK, // 35
 1570 05EB 26 23        	ld h, 35
 1571 05ED              ; 414         l = 0; // Len NedBuffer
 1572 05ED 2E 00        	ld l, 0
 1573 05EF              ; 415         ESPSendAndGetHL();
 1574 05EF CD E2 02     	call espsendandgethl
 1575 05F2              ; 416         ParserFileDiskResponse();
 1576 05F2 CD A6 09     	call parserfilediskresponse
 1577 05F5 C1           	pop bc
 1578 05F6 E1           	pop hl
 1579 05F7 C9           	ret
 1580 05F8              ; 417     }
 1581 05F8              ; 418 }
 1582 05F8              ; 419
 1583 05F8              ; 420 void NetDiskSetNum() {
 1584 05F8              netdisksetnum:
 1585 05F8              ; 421     push_pop(hl, bc) {
 1586 05F8 E5           	push hl
 1587 05F9 C5           	push bc
 1588 05FA              ; 422         ParserFileDiskRequest();
 1589 05FA CD 8D 09     	call parserfilediskrequest
 1590 05FD              ; 423         h = 36; // SET_DISK, // 36
 1591 05FD 26 24        	ld h, 36
 1592 05FF              ; 424         l = 3; // Len NedBuffer
 1593 05FF 2E 03        	ld l, 3
 1594 0601              ; 425         ESPSendHL();
 1595 0601 CD 9A 02     	call espsendhl
 1596 0604 C1           	pop bc
 1597 0605 E1           	pop hl
 1598 0606 C9           	ret
 1599 0607              ; 426     }
 1600 0607              ; 427 }
 1601 0607              ; 428
 1602 0607              ; 429 void NetGetHardwareAndSoftware() {
 1603 0607              netgethardwareandsoftware:
 1604 0607              ; 430     h = 37; // GET_HARDWARE_AND_SOFTWARE, // 37
 1605 0607 26 25        	ld h, 37
 1606 0609              ; 431     l = 0; // Len NedBuffer
 1607 0609 2E 00        	ld l, 0
 1608 060B              ; 432     ESPSendAndGetHL();
 1609 060B C3 E2 02     	jp espsendandgethl
 1610 060E              ; 14 void ParserBufferToHL() {
 1611 060E              parserbuffertohl:
 1612 060E              ; 15     push_pop(de) {
 1613 060E D5           	push de
 1614 060F              ; 16         de = Net_buffer;
 1615 060F 11 B1 3A     	ld de, net_buffer
 1616 0612              ; 17         do {
 1617 0612              __l_91:
 1618 0612              ; 18             if ((a = c) > 0) {
 1619 0612 79           	ld a, c
 1620 0613 B7           	or a
 1621 0614 CA 1E 06     	jp z, __l_94
 1622 0617              ; 19                 a = *de;
 1623 0617 1A           	ld a, (de)
 1624 0618              ; 20                 *hl = a;
 1625 0618 77           	ld (hl), a
 1626 0619              ; 21                 c--;
 1627 0619 0D           	dec c
 1628 061A              ; 22                 de++;
 1629 061A 13           	inc de
 1630 061B C3 21 06     	jp __l_95
 1631 061E              __l_94:
 1632 061E              ; 23             } else {
 1633 061E              ; 24                 a = 0;
 1634 061E 3E 00        	ld a, 0
 1635 0620              ; 25                 *hl = a;
 1636 0620 77           	ld (hl), a
 1637 0621              __l_95:
 1638 0621              ; 26             }
 1639 0621              ; 27             hl++;
 1640 0621 23           	inc hl
 1641 0622              ; 28             b--;
 1642 0622 05           	dec b
 1643 0623              __l_92:
 1644 0623              ; 29         } while ((a = b) > 0);
 1645 0623 78           	ld a, b
 1646 0624 B7           	or a
 1647 0625 C2 12 06     	jp nz, __l_91
 1648 0628 D1           	pop de
 1649 0629 C9           	ret
 1650 062A              ; 30     }
 1651 062A              ; 31 }
 1652 062A              ; 32
 1653 062A              ; 33 void ParserHLToBuffer() {
 1654 062A              parserhltobuffer:
 1655 062A              ; 34     push_pop(bc, de) {
 1656 062A C5           	push bc
 1657 062B D5           	push de
 1658 062C              ; 35         de = Net_buffer;
 1659 062C 11 B1 3A     	ld de, net_buffer
 1660 062F              ; 36         do {
 1661 062F              __l_96:
 1662 062F              ; 37             a = *hl;
 1663 062F 7E           	ld a, (hl)
 1664 0630              ; 38             *de = a;
 1665 0630 12           	ld (de), a
 1666 0631              ; 39             hl++;
 1667 0631 23           	inc hl
 1668 0632              ; 40             de++;
 1669 0632 13           	inc de
 1670 0633              ; 41             b--;
 1671 0633 05           	dec b
 1672 0634              __l_97:
 1673 0634              ; 42         } while ((a = b) > 0);
 1674 0634 78           	ld a, b
 1675 0635 B7           	or a
 1676 0636 C2 2F 06     	jp nz, __l_96
 1677 0639 D1           	pop de
 1678 063A C1           	pop bc
 1679 063B C9           	ret
 1680 063C              ; 43     }
 1681 063C              ; 44 }
 1682 063C              ; 45
 1683 063C              ; 46 /// C - count (не трогаем)
 1684 063C              ; 47 /// l - Len NedBuffer
 1685 063C              ; 48 void NetFtpListFilesParse() {
 1686 063C              netftplistfilesparse:
 1687 063C              ; 49     if ((a = l) == 16) {
 1688 063C 7D           	ld a, l
 1689 063D FE 10        	cp 16
 1690 063F C2 6F 06     	jp nz, __l_99
 1691 0642              ; 50         NetFtpListFilesParseSum();
 1692 0642 CD 75 06     	call netftplistfilesparsesum
 1693 0645              ; 51         if ((a = NetFtpListFilesParseSumState) == 0x01) {
 1694 0645 3A 8B 08     	ld a, (netftplistfilesparsesumstate)
 1695 0648 FE 01        	cp 1
 1696 064A C2 6C 06     	jp nz, __l_101
 1697 064D              ; 52             push_pop(hl, de) {
 1698 064D E5           	push hl
 1699 064E D5           	push de
 1700 064F              ; 53                 b = l;
 1701 064F 45           	ld b, l
 1702 0650              ; 54                 //--
 1703 0650              ; 55                 hl = FtpViewFilesList;
 1704 0650 21 7B 24     	ld hl, ftpviewfileslist
 1705 0653              ; 56                 d = 0;
 1706 0653 16 00        	ld d, 0
 1707 0655              ; 57                 a ^= a;
 1708 0655 AF           	xor a
 1709 0656              ; 58                 a = c;
 1710 0656 79           	ld a, c
 1711 0657              ; 59                 carry_rotate_left(a, 4);
 1712 0657 17           	rla
 1713 0658 17           	rla
 1714 0659 17           	rla
 1715 065A 17           	rla
 1716 065B              ; 60                 if (flag_c) { // Если переполняние младшего разряда, инкремент старшего
 1717 065B D2 5F 06     	jp nc, __l_103
 1718 065E              ; 61                     d++;
 1719 065E 14           	inc d
 1720 065F              __l_103:
 1721 065F              ; 62                 }
 1722 065F              ; 63                 e = a;
 1723 065F 5F           	ld e, a
 1724 0660              ; 64                 hl += de;
 1725 0660 19           	add hl, de
 1726 0661              ; 65                 push_pop(bc) {
 1727 0661 C5           	push bc
 1728 0662              ; 66                     c = b;
 1729 0662 48           	ld c, b
 1730 0663              ; 67                     b = 16;
 1731 0663 06 10        	ld b, 16
 1732 0665              ; 68                     ParserBufferToHL();
 1733 0665 CD 0E 06     	call parserbuffertohl
 1734 0668 C1           	pop bc
 1735 0669              ; 69                 }
 1736 0669              ; 70                 //--
 1737 0669              ; 71                 c++;
 1738 0669 0C           	inc c
 1739 066A D1           	pop de
 1740 066B E1           	pop hl
 1741 066C              __l_101:
 1742 066C C3 74 06     	jp __l_100
 1743 066F              __l_99:
 1744 066F              ; 72             }
 1745 066F              ; 73         }
 1746 066F              ; 74     } else {
 1747 066F              ; 75         a = 0x00;
 1748 066F 3E 00        	ld a, 0
 1749 0671              ; 76         NetFtpListFilesParseSumState = a;
 1750 0671 32 8B 08     	ld (netftplistfilesparsesumstate), a
 1751 0674              __l_100:
 1752 0674 C9           	ret
 1753 0675              ; 77     }
 1754 0675              ; 78 }
 1755 0675              ; 79
 1756 0675              ; 80 void NetFtpListFilesParseSum() {
 1757 0675              netftplistfilesparsesum:
 1758 0675              ; 81     push_pop(hl, bc) {
 1759 0675 E5           	push hl
 1760 0676 C5           	push bc
 1761 0677              ; 82         b = 15;
 1762 0677 06 0F        	ld b, 15
 1763 0679              ; 83         c = 0;
 1764 0679 0E 00        	ld c, 0
 1765 067B              ; 84         hl = Net_buffer;
 1766 067B 21 B1 3A     	ld hl, net_buffer
 1767 067E              ; 85         do {
 1768 067E              __l_105:
 1769 067E              ; 86             a = *hl;
 1770 067E 7E           	ld a, (hl)
 1771 067F              ; 87             a += c;
 1772 067F 81           	add c
 1773 0680              ; 88             c = a;
 1774 0680 4F           	ld c, a
 1775 0681              ; 89             hl++;
 1776 0681 23           	inc hl
 1777 0682              ; 90             b--;
 1778 0682 05           	dec b
 1779 0683              __l_106:
 1780 0683              ; 91         } while ((a = b) > 0);
 1781 0683 78           	ld a, b
 1782 0684 B7           	or a
 1783 0685 C2 7E 06     	jp nz, __l_105
 1784 0688              ; 92         a = *hl;
 1785 0688 7E           	ld a, (hl)
 1786 0689              ; 93         if (a == c) {
 1787 0689 B9           	cp c
 1788 068A C2 95 06     	jp nz, __l_108
 1789 068D              ; 94             a = 0x01;
 1790 068D 3E 01        	ld a, 1
 1791 068F              ; 95             NetFtpListFilesParseSumState = a;
 1792 068F 32 8B 08     	ld (netftplistfilesparsesumstate), a
 1793 0692 C3 9A 06     	jp __l_109
 1794 0695              __l_108:
 1795 0695              ; 96         } else {
 1796 0695              ; 97             a = 0x00;
 1797 0695 3E 00        	ld a, 0
 1798 0697              ; 98             NetFtpListFilesParseSumState = a;
 1799 0697 32 8B 08     	ld (netftplistfilesparsesumstate), a
 1800 069A              __l_109:
 1801 069A              ; 99         }
 1802 069A              ; 100         // 10 byte = 0x3C
 1803 069A              ; 101         hl = Net_buffer;
 1804 069A 21 B1 3A     	ld hl, net_buffer
 1805 069D              ; 102         bc = 10;
 1806 069D 01 0A 00     	ld bc, 10
 1807 06A0              ; 103         hl += bc;
 1808 06A0 09           	add hl, bc
 1809 06A1              ; 104         a = *hl;
 1810 06A1 7E           	ld a, (hl)
 1811 06A2              ; 105         a &= 0xFE;
 1812 06A2 E6 FE        	and 254
 1813 06A4              ; 106         if (a != 0x3C) {
 1814 06A4 FE 3C        	cp 60
 1815 06A6 CA AE 06     	jp z, __l_110
 1816 06A9              ; 107             a = 0x00;
 1817 06A9 3E 00        	ld a, 0
 1818 06AB              ; 108             NetFtpListFilesParseSumState = a;
 1819 06AB 32 8B 08     	ld (netftplistfilesparsesumstate), a
 1820 06AE              __l_110:
 1821 06AE C1           	pop bc
 1822 06AF E1           	pop hl
 1823 06B0 C9           	ret
 1824 06B1              ; 109         }
 1825 06B1              ; 110     }
 1826 06B1              ; 111 }
 1827 06B1              ; 112
 1828 06B1              ; 113 void NetFtpLoadFileNextParse() {
 1829 06B1              netftploadfilenextparse:
 1830 06B1              ; 114     push_pop(hl) {
 1831 06B1 E5           	push hl
 1832 06B2              ; 115         if ((a = l) > 0) {
 1833 06B2 7D           	ld a, l
 1834 06B3 B7           	or a
 1835 06B4 CA F3 06     	jp z, __l_112
 1836 06B7              ; 116             NetFtpLoadFileNextParseSum();
 1837 06B7 CD 2C 07     	call netftploadfilenextparsesum
 1838 06BA              ; 117             if ((a = NetFtpLoadFileNextParseSumState) == 0x01) {
 1839 06BA 3A 8A 08     	ld a, (netftploadfilenextparsesumstate)
 1840 06BD FE 01        	cp 1
 1841 06BF C2 F0 06     	jp nz, __l_114
 1842 06C2              ; 118                 push_pop(bc, de) {
 1843 06C2 C5           	push bc
 1844 06C3 D5           	push de
 1845 06C4              ; 119                     b = l;
 1846 06C4 45           	ld b, l
 1847 06C5              ; 120                     de = Net_buffer;
 1848 06C5 11 B1 3A     	ld de, net_buffer
 1849 06C8              ; 121                     //-- Address
 1850 06C8              ; 122                     a = *de;
 1851 06C8 1A           	ld a, (de)
 1852 06C9              ; 123                     l = a;
 1853 06C9 6F           	ld l, a
 1854 06CA              ; 124                     de++;
 1855 06CA 13           	inc de
 1856 06CB              ; 125                     a = *de;
 1857 06CB 1A           	ld a, (de)
 1858 06CC              ; 126                     h = a;
 1859 06CC 67           	ld h, a
 1860 06CD              ; 127                     NetFtpLoadFileNextParseAddress = hl;
 1861 06CD 22 86 08     	ld (netftploadfilenextparseaddress), hl
 1862 06D0              ; 128                     de++;
 1863 06D0 13           	inc de
 1864 06D1              ; 129                     //-- Progress
 1865 06D1              ; 130                     LoadViewShowProgressA(a = *de);
 1866 06D1 1A           	ld a, (de)
 1867 06D2 CD 55 26     	call loadviewshowprogressa
 1868 06D5              ; 131                     de++;
 1869 06D5 13           	inc de
 1870 06D6              ; 132                     //-- 0x3C
 1871 06D6              ; 133                     de++;
 1872 06D6 13           	inc de
 1873 06D7              ; 134                     //--
 1874 06D7              ; 135                     b--;
 1875 06D7 05           	dec b
 1876 06D8              ; 136                     b--;
 1877 06D8 05           	dec b
 1878 06D9              ; 137                     b--;
 1879 06D9 05           	dec b
 1880 06DA              ; 138                     b--;
 1881 06DA 05           	dec b
 1882 06DB              ; 139                     b--;
 1883 06DB 05           	dec b
 1884 06DC              ; 140                     NetFtpLoadFileNextParseCalkDiskPosToHL();
 1885 06DC CD FB 06     	call netftploadfilenextparsecalkdiskp
 1886 06DF              ; 141                     do {
 1887 06DF              __l_116:
 1888 06DF              ; 142                         a = *de;
 1889 06DF 1A           	ld a, (de)
 1890 06E0              ; 143                         ordos_wdisk();
 1891 06E0 CD DF BF     	call ordos_wdisk
 1892 06E3              ; 144                         hl++;
 1893 06E3 23           	inc hl
 1894 06E4              ; 145                         de++;
 1895 06E4 13           	inc de
 1896 06E5              ; 146                         b--;
 1897 06E5 05           	dec b
 1898 06E6              __l_117:
 1899 06E6              ; 147                     } while ((a = b) > 0);
 1900 06E6 78           	ld a, b
 1901 06E7 B7           	or a
 1902 06E8 C2 DF 06     	jp nz, __l_116
 1903 06EB              ; 148                     NetFtpLoadFileNextParseAddressEnd = hl;
 1904 06EB 22 88 08     	ld (netftploadfilenextparseaddressen), hl
 1905 06EE D1           	pop de
 1906 06EF C1           	pop bc
 1907 06F0              __l_114:
 1908 06F0 C3 F9 06     	jp __l_113
 1909 06F3              __l_112:
 1910 06F3              ; 149                 }
 1911 06F3              ; 150             }
 1912 06F3              ; 151         } else {
 1913 06F3              ; 152             hl = NetFtpLoadFileNextParseAddressEnd;
 1914 06F3 2A 88 08     	ld hl, (netftploadfilenextparseaddressen)
 1915 06F6              ; 153             ordos_stop();
 1916 06F6 CD E2 BF     	call ordos_stop
 1917 06F9              __l_113:
 1918 06F9 E1           	pop hl
 1919 06FA C9           	ret
 1920 06FB              ; 154         }
 1921 06FB              ; 155     }
 1922 06FB              ; 156 }
 1923 06FB              ; 157
 1924 06FB              ; 158 /// Считаем адрес куда писать данные на диск
 1925 06FB              ; 159 void NetFtpLoadFileNextParseCalkDiskPosToHL() {
 1926 06FB              netftploadfilenextparsecalkdiskp:
 1927 06FB              ; 160     push_pop(de) {
 1928 06FB D5           	push de
 1929 06FC              ; 161         // получаем адрес пакета
 1930 06FC              ; 162         hl = NetFtpLoadFileNextParseAddress;
 1931 06FC 2A 86 08     	ld hl, (netftploadfilenextparseaddress)
 1932 06FF              ; 163         // прибавляем к точке начала файла на диске
 1933 06FF              ; 164         d = h;
 1934 06FF 54           	ld d, h
 1935 0700              ; 165         e = l;
 1936 0700 5D           	ld e, l
 1937 0701              ; 166         hl = DiskViewStartNewFile;
 1938 0701 2A 59 1A     	ld hl, (diskviewstartnewfile)
 1939 0704              ; 167         a ^= a;
 1940 0704 AF           	xor a
 1941 0705              ; 168         a = l;
 1942 0705 7D           	ld a, l
 1943 0706              ; 169         a += e;
 1944 0706 83           	add e
 1945 0707              ; 170         if (flag_c) {
 1946 0707 D2 0B 07     	jp nc, __l_119
 1947 070A              ; 171             h++;
 1948 070A 24           	inc h
 1949 070B              __l_119:
 1950 070B              ; 172         }
 1951 070B              ; 173         l = a;
 1952 070B 6F           	ld l, a
 1953 070C              ; 174         a = h;
 1954 070C 7C           	ld a, h
 1955 070D              ; 175         a += d;
 1956 070D 82           	add d
 1957 070E              ; 176         h = a;
 1958 070E 67           	ld h, a
 1959 070F              ; 177         push_pop(hl) {
 1960 070F E5           	push hl
 1961 0710              ; 178             a = l;
 1962 0710 7D           	ld a, l
 1963 0711              ; 179             a &= 0x01;
 1964 0711 E6 01        	and 1
 1965 0713              ; 180             if (a > 0) {
 1966 0713 B7           	or a
 1967 0714 CA 29 07     	jp z, __l_121
 1968 0717              ; 181                 a = 0;
 1969 0717 3E 00        	ld a, 0
 1970 0719              ; 182                 myCharPosX = a;
 1971 0719 32 E3 0E     	ld (mycharposx), a
 1972 071C              ; 183                 a = 0;
 1973 071C 3E 00        	ld a, 0
 1974 071E              ; 184                 myCharPosY = a;
 1975 071E 32 E4 0E     	ld (mycharposy), a
 1976 0721              ; 185                 printMyHexA(a = h);
 1977 0721 7C           	ld a, h
 1978 0722 CD 9E 0C     	call printmyhexa
 1979 0725              ; 186                 printMyHexA(a = l);
 1980 0725 7D           	ld a, l
 1981 0726 CD 9E 0C     	call printmyhexa
 1982 0729              __l_121:
 1983 0729 E1           	pop hl
 1984 072A D1           	pop de
 1985 072B C9           	ret
 1986 072C              ; 187             }
 1987 072C              ; 188         }
 1988 072C              ; 189         // В HL адрес записи, полученных данных, на диск
 1989 072C              ; 190     }
 1990 072C              ; 191 }
 1991 072C              ; 192
 1992 072C              ; 193 void NetFtpLoadFileNextParseSum() {
 1993 072C              netftploadfilenextparsesum:
 1994 072C              ; 194     push_pop(hl, bc) {
 1995 072C E5           	push hl
 1996 072D C5           	push bc
 1997 072E              ; 195         b = l;
 1998 072E 45           	ld b, l
 1999 072F              ; 196         b--;
 2000 072F 05           	dec b
 2001 0730              ; 197         hl = Net_buffer;
 2002 0730 21 B1 3A     	ld hl, net_buffer
 2003 0733              ; 198         c = 0;
 2004 0733 0E 00        	ld c, 0
 2005 0735              ; 199         do {
 2006 0735              __l_123:
 2007 0735              ; 200             a = *hl;
 2008 0735 7E           	ld a, (hl)
 2009 0736              ; 201             a += c;
 2010 0736 81           	add c
 2011 0737              ; 202             c = a;
 2012 0737 4F           	ld c, a
 2013 0738              ; 203             hl++;
 2014 0738 23           	inc hl
 2015 0739              ; 204             b--;
 2016 0739 05           	dec b
 2017 073A              __l_124:
 2018 073A              ; 205         } while ((a = b) > 0);
 2019 073A 78           	ld a, b
 2020 073B B7           	or a
 2021 073C C2 35 07     	jp nz, __l_123
 2022 073F              ; 206         a = *hl;
 2023 073F 7E           	ld a, (hl)
 2024 0740              ; 207         if (a == c) {
 2025 0740 B9           	cp c
 2026 0741 C2 4C 07     	jp nz, __l_126
 2027 0744              ; 208             a = 0x01;
 2028 0744 3E 01        	ld a, 1
 2029 0746              ; 209             NetFtpLoadFileNextParseSumState = a;
 2030 0746 32 8A 08     	ld (netftploadfilenextparsesumstate), a
 2031 0749 C3 51 07     	jp __l_127
 2032 074C              __l_126:
 2033 074C              ; 210         } else {
 2034 074C              ; 211             a = 0x00;
 2035 074C 3E 00        	ld a, 0
 2036 074E              ; 212             NetFtpLoadFileNextParseSumState = a;
 2037 074E 32 8A 08     	ld (netftploadfilenextparsesumstate), a
 2038 0751              __l_127:
 2039 0751              ; 213         }
 2040 0751              ; 214         //-- 3 byte = byte 0x3C
 2041 0751              ; 215         hl = Net_buffer;
 2042 0751 21 B1 3A     	ld hl, net_buffer
 2043 0754              ; 216         hl++;
 2044 0754 23           	inc hl
 2045 0755              ; 217         hl++;
 2046 0755 23           	inc hl
 2047 0756              ; 218         hl++;
 2048 0756 23           	inc hl
 2049 0757              ; 219         a = *hl;
 2050 0757 7E           	ld a, (hl)
 2051 0758              ; 220         if (a != 0x3C) {
 2052 0758 FE 3C        	cp 60
 2053 075A CA 62 07     	jp z, __l_128
 2054 075D              ; 221             a = 0x00;
 2055 075D 3E 00        	ld a, 0
 2056 075F              ; 222             NetFtpLoadFileNextParseSumState = a;
 2057 075F 32 8A 08     	ld (netftploadfilenextparsesumstate), a
 2058 0762              __l_128:
 2059 0762 C1           	pop bc
 2060 0763 E1           	pop hl
 2061 0764 C9           	ret
 2062 0765              ; 223         }
 2063 0765              ; 224     }
 2064 0765              ; 225 }
 2065 0765              ; 226
 2066 0765              ; 227 void NetGetAllStatusParse() {
 2067 0765              netgetallstatusparse:
 2068 0765              ; 228     if ((a = l) > 0) {
 2069 0765 7D           	ld a, l
 2070 0766 B7           	or a
 2071 0767 CA 88 07     	jp z, __l_130
 2072 076A              ; 229         NetGetAllStatusParseSum();
 2073 076A CD 89 07     	call netgetallstatusparsesum
 2074 076D              ; 230         if ((a = NetGetAllStatusParseSumState) == 1) {
 2075 076D 3A 85 08     	ld a, (netgetallstatusparsesumstate)
 2076 0770 FE 01        	cp 1
 2077 0772 C2 88 07     	jp nz, __l_132
 2078 0775              ; 231             hl = Net_buffer;
 2079 0775 21 B1 3A     	ld hl, net_buffer
 2080 0778              ; 232             //-- 0x3C
 2081 0778              ; 233             hl++;
 2082 0778 23           	inc hl
 2083 0779              ; 234             //-- WIFIflag
 2084 0779              ; 235             ThreadsNetSetWiFiStateA(a = *hl);
 2085 0779 7E           	ld a, (hl)
 2086 077A CD F2 14     	call threadsnetsetwifistatea
 2087 077D              ; 236             hl++;
 2088 077D 23           	inc hl
 2089 077E              ; 237             //-- FtpConnected
 2090 077E              ; 238             ThreadsNetSetFtpStateA(a = *hl);
 2091 077E 7E           	ld a, (hl)
 2092 077F CD 91 15     	call threadsnetsetftpstatea
 2093 0782              ; 239             hl++;
 2094 0782 23           	inc hl
 2095 0783              ; 240             //-- espError
 2096 0783              ; 241             ESPErrorParserA(a = *hl);
 2097 0783 7E           	ld a, (hl)
 2098 0784 CD 36 31     	call esperrorparsera
 2099 0787              ; 242             hl++;
 2100 0787 23           	inc hl
 2101 0788              __l_132:
 2102 0788              __l_130:
 2103 0788 C9           	ret
 2104 0789              ; 243         }
 2105 0789              ; 244     }
 2106 0789              ; 245 }
 2107 0789              ; 246
 2108 0789              ; 247 void NetGetAllStatusParseSum() {
 2109 0789              netgetallstatusparsesum:
 2110 0789              ; 248     push_pop(hl, bc) {
 2111 0789 E5           	push hl
 2112 078A C5           	push bc
 2113 078B              ; 249         b = l;
 2114 078B 45           	ld b, l
 2115 078C              ; 250         b--;
 2116 078C 05           	dec b
 2117 078D              ; 251         hl = Net_buffer;
 2118 078D 21 B1 3A     	ld hl, net_buffer
 2119 0790              ; 252         c = 0;
 2120 0790 0E 00        	ld c, 0
 2121 0792              ; 253         a = *hl;
 2122 0792 7E           	ld a, (hl)
 2123 0793              ; 254         if (a == 0x3C) {
 2124 0793 FE 3C        	cp 60
 2125 0795 C2 B7 07     	jp nz, __l_134
 2126 0798              ; 255             do {
 2127 0798              __l_136:
 2128 0798              ; 256                 a = *hl;
 2129 0798 7E           	ld a, (hl)
 2130 0799              ; 257                 a += c;
 2131 0799 81           	add c
 2132 079A              ; 258                 c = a;
 2133 079A 4F           	ld c, a
 2134 079B              ; 259                 hl++;
 2135 079B 23           	inc hl
 2136 079C              ; 260                 b--;
 2137 079C 05           	dec b
 2138 079D              __l_137:
 2139 079D              ; 261             } while ((a = b) > 0);
 2140 079D 78           	ld a, b
 2141 079E B7           	or a
 2142 079F C2 98 07     	jp nz, __l_136
 2143 07A2              ; 262             a = *hl;
 2144 07A2 7E           	ld a, (hl)
 2145 07A3              ; 263             if (a == c) {
 2146 07A3 B9           	cp c
 2147 07A4 C2 AF 07     	jp nz, __l_139
 2148 07A7              ; 264                 a = 0x01;
 2149 07A7 3E 01        	ld a, 1
 2150 07A9              ; 265                 NetGetAllStatusParseSumState = a;
 2151 07A9 32 85 08     	ld (netgetallstatusparsesumstate), a
 2152 07AC C3 B4 07     	jp __l_140
 2153 07AF              __l_139:
 2154 07AF              ; 266             } else {
 2155 07AF              ; 267                 a = 0x00;
 2156 07AF 3E 00        	ld a, 0
 2157 07B1              ; 268                 NetGetAllStatusParseSumState = a;
 2158 07B1 32 85 08     	ld (netgetallstatusparsesumstate), a
 2159 07B4              __l_140:
 2160 07B4 C3 BC 07     	jp __l_135
 2161 07B7              __l_134:
 2162 07B7              ; 269             }
 2163 07B7              ; 270         } else {
 2164 07B7              ; 271             a = 0x00;
 2165 07B7 3E 00        	ld a, 0
 2166 07B9              ; 272             NetGetAllStatusParseSumState = a;
 2167 07B9 32 85 08     	ld (netgetallstatusparsesumstate), a
 2168 07BC              __l_135:
 2169 07BC C1           	pop bc
 2170 07BD E1           	pop hl
 2171 07BE C9           	ret
 2172 07BF              ; 273         }
 2173 07BF              ; 274     }
 2174 07BF              ; 275 }
 2175 07BF              ; 276
 2176 07BF              ; 277 /// HL - point Str
 2177 07BF              ; 278 /// B - Len Str
 2178 07BF              ; 279 /// C - Len buffer
 2179 07BF              ; 280 void ParserBufferSumToHL() {
 2180 07BF              parserbuffersumtohl:
 2181 07BF              ; 281     ParserBufferSumToHLSum();
 2182 07BF CD 3E 08     	call parserbuffersumtohlsum
 2183 07C2              ; 282     if ((a = ParserBufferSumToHLSumState) == 1) {
 2184 07C2 3A 84 08     	ld a, (parserbuffersumtohlsumstate)
 2185 07C5 FE 01        	cp 1
 2186 07C7 C2 ED 07     	jp nz, __l_141
 2187 07CA              ; 283         push_pop(hl, bc, de) {
 2188 07CA E5           	push hl
 2189 07CB C5           	push bc
 2190 07CC D5           	push de
 2191 07CD              ; 284             de = Net_buffer;
 2192 07CD 11 B1 3A     	ld de, net_buffer
 2193 07D0              ; 285             c--;
 2194 07D0 0D           	dec c
 2195 07D1              ; 286             c--;
 2196 07D1 0D           	dec c
 2197 07D2              ; 287             do {
 2198 07D2              __l_143:
 2199 07D2              ; 288                 if ((a = c) > 0) {
 2200 07D2 79           	ld a, c
 2201 07D3 B7           	or a
 2202 07D4 CA DE 07     	jp z, __l_146
 2203 07D7              ; 289                     a = *de;
 2204 07D7 1A           	ld a, (de)
 2205 07D8              ; 290                     *hl = a;
 2206 07D8 77           	ld (hl), a
 2207 07D9              ; 291                     de++;
 2208 07D9 13           	inc de
 2209 07DA              ; 292                     c--;
 2210 07DA 0D           	dec c
 2211 07DB C3 E0 07     	jp __l_147
 2212 07DE              __l_146:
 2213 07DE              ; 293                 } else {
 2214 07DE              ; 294                     *hl = 0;
 2215 07DE 36 00        	ld (hl), 0
 2216 07E0              __l_147:
 2217 07E0              ; 295                 }
 2218 07E0              ; 296                 hl++;
 2219 07E0 23           	inc hl
 2220 07E1              ; 297                 b--;
 2221 07E1 05           	dec b
 2222 07E2              __l_144:
 2223 07E2              ; 298             } while ((a = b) > 0);
 2224 07E2 78           	ld a, b
 2225 07E3 B7           	or a
 2226 07E4 C2 D2 07     	jp nz, __l_143
 2227 07E7 D1           	pop de
 2228 07E8 C1           	pop bc
 2229 07E9 E1           	pop hl
 2230 07EA C3 ED 07     	jp __l_142
 2231 07ED              __l_141:
 2232 07ED              ; 299         }
 2233 07ED              ; 300     } else {
 2234 07ED              __l_142:
 2235 07ED C9           	ret
 2236 07EE              ; 301         //ParserBufferErrorSumShow();
 2237 07EE              ; 302     }
 2238 07EE              ; 303 }
 2239 07EE              ; 304
 2240 07EE              ; 305 void ParserBufferErrorSumShow() {
 2241 07EE              parserbuffererrorsumshow:
 2242 07EE              ; 306     push_pop(hl, bc) {
 2243 07EE E5           	push hl
 2244 07EF C5           	push bc
 2245 07F0              ; 307         //Show Len Buffer
 2246 07F0              ; 308         a = 0;
 2247 07F0 3E 00        	ld a, 0
 2248 07F2              ; 309         myCharPosX = a;
 2249 07F2 32 E3 0E     	ld (mycharposx), a
 2250 07F5              ; 310         a = 0;
 2251 07F5 3E 00        	ld a, 0
 2252 07F7              ; 311         myCharPosY = a;
 2253 07F7 32 E4 0E     	ld (mycharposy), a
 2254 07FA              ; 312         printMyHexA(a = c);
 2255 07FA 79           	ld a, c
 2256 07FB CD 9E 0C     	call printmyhexa
 2257 07FE              ; 313         //-- Buffer
 2258 07FE              ; 314         a = 0;
 2259 07FE 3E 00        	ld a, 0
 2260 0800              ; 315         myCharPosX = a;
 2261 0800 32 E3 0E     	ld (mycharposx), a
 2262 0803              ; 316         a = 1;
 2263 0803 3E 01        	ld a, 1
 2264 0805              ; 317         myCharPosY = a;
 2265 0805 32 E4 0E     	ld (mycharposy), a
 2266 0808              ; 318         hl = Net_buffer;
 2267 0808 21 B1 3A     	ld hl, net_buffer
 2268 080B              ; 319         c--; //
 2269 080B 0D           	dec c
 2270 080C              ; 320         b = 0;
 2271 080C 06 00        	ld b, 0
 2272 080E              ; 321         do {
 2273 080E              __l_148:
 2274 080E              ; 322             a = *hl;
 2275 080E 7E           	ld a, (hl)
 2276 080F              ; 323             a += b;
 2277 080F 80           	add b
 2278 0810              ; 324             b = a;
 2279 0810 47           	ld b, a
 2280 0811              ; 325             //-- Show
 2281 0811              ; 326             printMyHexA(a = *hl);
 2282 0811 7E           	ld a, (hl)
 2283 0812 CD 9E 0C     	call printmyhexa
 2284 0815              ; 327             printMyCharA(a = 0x20);
 2285 0815 3E 20        	ld a, 32
 2286 0817 CD 4E 0D     	call printmychara
 2287 081A              ; 328             //--
 2288 081A              ; 329             hl++;
 2289 081A 23           	inc hl
 2290 081B              ; 330             c--;
 2291 081B 0D           	dec c
 2292 081C              __l_149:
 2293 081C              ; 331         } while ((a = c) > 0);
 2294 081C 79           	ld a, c
 2295 081D B7           	or a
 2296 081E C2 0E 08     	jp nz, __l_148
 2297 0821              ; 332         printMyHexA(a = *hl);
 2298 0821 7E           	ld a, (hl)
 2299 0822 CD 9E 0C     	call printmyhexa
 2300 0825              ; 333         printMyCharA(a = 0x20);
 2301 0825 3E 20        	ld a, 32
 2302 0827 CD 4E 0D     	call printmychara
 2303 082A              ; 334         //-- SUM
 2304 082A              ; 335         a = 0;
 2305 082A 3E 00        	ld a, 0
 2306 082C              ; 336         myCharPosX = a;
 2307 082C 32 E3 0E     	ld (mycharposx), a
 2308 082F              ; 337         a = 3;
 2309 082F 3E 03        	ld a, 3
 2310 0831              ; 338         myCharPosY = a;
 2311 0831 32 E4 0E     	ld (mycharposy), a
 2312 0834              ; 339         printMyHexA(a = b);
 2313 0834 78           	ld a, b
 2314 0835 CD 9E 0C     	call printmyhexa
 2315 0838              ; 340         //--
 2316 0838              ; 341         for(;;){}
 2317 0838              __l_152:
 2318 0838 C3 38 08     	jp __l_152
 2319 083B C1           	pop bc
 2320 083C E1           	pop hl
 2321 083D C9           	ret
 2322 083E              ; 342     }
 2323 083E              ; 343 }
 2324 083E              ; 344
 2325 083E              ; 345 void ParserBufferSumToHLSum() {
 2326 083E              parserbuffersumtohlsum:
 2327 083E              ; 346     push_pop(hl, bc) {
 2328 083E E5           	push hl
 2329 083F C5           	push bc
 2330 0840              ; 347         if ((a = c) >= 3) {
 2331 0840 79           	ld a, c
 2332 0841 FE 03        	cp 3
 2333 0843 DA 7C 08     	jp c, __l_154
 2334 0846              ; 348             b = c;
 2335 0846 41           	ld b, c
 2336 0847              ; 349             b--;
 2337 0847 05           	dec b
 2338 0848              ; 350             c = 0;
 2339 0848 0E 00        	ld c, 0
 2340 084A              ; 351             hl = Net_buffer;
 2341 084A 21 B1 3A     	ld hl, net_buffer
 2342 084D              ; 352             do {
 2343 084D              __l_156:
 2344 084D              ; 353                 a = *hl;
 2345 084D 7E           	ld a, (hl)
 2346 084E              ; 354                 a += c;
 2347 084E 81           	add c
 2348 084F              ; 355                 c = a;
 2349 084F 4F           	ld c, a
 2350 0850              ; 356                 hl++;
 2351 0850 23           	inc hl
 2352 0851              ; 357                 b--;
 2353 0851 05           	dec b
 2354 0852              __l_157:
 2355 0852              ; 358             } while ((a = b) > 0);
 2356 0852 78           	ld a, b
 2357 0853 B7           	or a
 2358 0854 C2 4D 08     	jp nz, __l_156
 2359 0857              ; 359             // 3C
 2360 0857              ; 360             hl--;
 2361 0857 2B           	dec hl
 2362 0858              ; 361             a = *hl;
 2363 0858 7E           	ld a, (hl)
 2364 0859              ; 362             if (a == 0x3C) {
 2365 0859 FE 3C        	cp 60
 2366 085B C2 74 08     	jp nz, __l_159
 2367 085E              ; 363                 hl++;
 2368 085E 23           	inc hl
 2369 085F              ; 364                 // SUM
 2370 085F              ; 365                 a = *hl;
 2371 085F 7E           	ld a, (hl)
 2372 0860              ; 366                 if (a == c) {
 2373 0860 B9           	cp c
 2374 0861 C2 6C 08     	jp nz, __l_161
 2375 0864              ; 367                     a = 1;
 2376 0864 3E 01        	ld a, 1
 2377 0866              ; 368                     ParserBufferSumToHLSumState = a;
 2378 0866 32 84 08     	ld (parserbuffersumtohlsumstate), a
 2379 0869 C3 71 08     	jp __l_162
 2380 086C              __l_161:
 2381 086C              ; 369                 } else {
 2382 086C              ; 370                     a = 0;
 2383 086C 3E 00        	ld a, 0
 2384 086E              ; 371                     ParserBufferSumToHLSumState = a;
 2385 086E 32 84 08     	ld (parserbuffersumtohlsumstate), a
 2386 0871              __l_162:
 2387 0871 C3 79 08     	jp __l_160
 2388 0874              __l_159:
 2389 0874              ; 372                 }
 2390 0874              ; 373             } else {
 2391 0874              ; 374                 a = 0;
 2392 0874 3E 00        	ld a, 0
 2393 0876              ; 375                 ParserBufferSumToHLSumState = a;
 2394 0876 32 84 08     	ld (parserbuffersumtohlsumstate), a
 2395 0879              __l_160:
 2396 0879 C3 81 08     	jp __l_155
 2397 087C              __l_154:
 2398 087C              ; 376             }
 2399 087C              ; 377         } else {
 2400 087C              ; 378             a = 0;
 2401 087C 3E 00        	ld a, 0
 2402 087E              ; 379             ParserBufferSumToHLSumState = a;
 2403 087E 32 84 08     	ld (parserbuffersumtohlsumstate), a
 2404 0881              __l_155:
 2405 0881 C1           	pop bc
 2406 0882 E1           	pop hl
 2407 0883 C9           	ret
 2408 0884              ; 380         }
 2409 0884              ; 381     }
 2410 0884              ; 382 }
 2411 0884              ; 383
 2412 0884              ; 384 uint8_t ParserBufferSumToHLSumState = 0;
 2413 0884              parserbuffersumtohlsumstate:
 2414 0884 00           	db 0
 2415 0885              ; 385 uint8_t NetGetAllStatusParseSumState = 0;
 2416 0885              netgetallstatusparsesumstate:
 2417 0885 00           	db 0
 2418 0886              ; 386 uint16_t NetFtpLoadFileNextParseAddress = 0;
 2419 0886              netftploadfilenextparseaddress:
 2420 0886 00 00        	dw 0
 2421 0888              ; 387 uint16_t NetFtpLoadFileNextParseAddressEnd = 0;
 2422 0888              netftploadfilenextparseaddressen:
 2423 0888 00 00        	dw 0
 2424 088A              ; 388 uint8_t NetFtpLoadFileNextParseSumState = 0;
 2425 088A              netftploadfilenextparsesumstate:
 2426 088A 00           	db 0
 2427 088B              ; 389 uint8_t NetFtpListFilesParseSumState = 0;
 2428 088B              netftplistfilesparsesumstate:
 2429 088B 00           	db 0
 2430 088C              ; 12 void ParserFileUploadInit() {
 2431 088C              parserfileuploadinit:
 2432 088C              ; 13     push_pop(hl) {
 2433 088C E5           	push hl
 2434 088D              ; 14         a = DiskViewDiskNum;
 2435 088D 3A 54 1A     	ld a, (diskviewdisknum)
 2436 0890              ; 15         ordos_wnd(); // Устанавливаем диск
 2437 0890 CD D6 BF     	call ordos_wnd
 2438 0893 E1           	pop hl
 2439 0894              ; 16     }
 2440 0894              ; 17     push_pop(hl, bc, de) {
 2441 0894 E5           	push hl
 2442 0895 C5           	push bc
 2443 0896 D5           	push de
 2444 0897              ; 18         ordos_sdma(); // уст.указ.имени
 2445 0897 CD D0 BF     	call ordos_sdma
 2446 089A              ; 19         ordos_pscf(); // a = 1 файл найден HL - адрес стоп-байта
 2447 089A CD E5 BF     	call ordos_pscf
 2448 089D              ; 20         c = a;
 2449 089D 4F           	ld c, a
 2450 089E              ; 21         if ((a = c) == 0xFF) {
 2451 089E 79           	ld a, c
 2452 089F FE FF        	cp 255
 2453 08A1 C2 BB 08     	jp nz, __l_163
 2454 08A4              ; 22             ParserFileUploadStartAddress = hl;
 2455 08A4 22 F6 09     	ld (parserfileuploadstartaddress), hl
 2456 08A7              ; 23             ordos_atf(); // hl = нач.адрес файла de = конеч.адрес файла
 2457 08A7 CD CD BF     	call ordos_atf
 2458 08AA              ; 24             hl = ParserFileUploadStartAddress;
 2459 08AA 2A F6 09     	ld hl, (parserfileuploadstartaddress)
 2460 08AD              ; 25             ParserFileDESubHL();
 2461 08AD CD EF 09     	call parserfiledesubhl
 2462 08B0              ; 26             h = d;
 2463 08B0 62           	ld h, d
 2464 08B1              ; 27             l = e;
 2465 08B1 6B           	ld l, e
 2466 08B2              ; 28             ParserFileUploadLen = hl;
 2467 08B2 22 F8 09     	ld (parserfileuploadlen), hl
 2468 08B5              ; 29             ParserFileUploadCount = hl;
 2469 08B5 22 FA 09     	ld (parserfileuploadcount), hl
 2470 08B8 C3 C7 08     	jp __l_164
 2471 08BB              __l_163:
 2472 08BB              ; 30         } else {
 2473 08BB              ; 31             hl = 0;
 2474 08BB 21 00 00     	ld hl, 0
 2475 08BE              ; 32             ParserFileUploadStartAddress = hl;
 2476 08BE 22 F6 09     	ld (parserfileuploadstartaddress), hl
 2477 08C1              ; 33             ParserFileUploadLen = hl;
 2478 08C1 22 F8 09     	ld (parserfileuploadlen), hl
 2479 08C4              ; 34             ParserFileUploadCount = hl;
 2480 08C4 22 FA 09     	ld (parserfileuploadcount), hl
 2481 08C7              __l_164:
 2482 08C7 D1           	pop de
 2483 08C8 C1           	pop bc
 2484 08C9 E1           	pop hl
 2485 08CA C9           	ret
 2486 08CB              ; 35         }
 2487 08CB              ; 36     }
 2488 08CB              ; 37 }
 2489 08CB              ; 38
 2490 08CB              ; 39 // Пачки по 16 байт
 2491 08CB              ; 40 // b - sum, bb - len, b - isEnd
 2492 08CB              ; 41 void ParserFileUploadCreateBuffer() {
 2493 08CB              parserfileuploadcreatebuffer:
 2494 08CB              ; 42     push_pop(hl, de, bc) {
 2495 08CB E5           	push hl
 2496 08CC D5           	push de
 2497 08CD C5           	push bc
 2498 08CE              ; 43         a = DiskViewDiskNum;
 2499 08CE 3A 54 1A     	ld a, (diskviewdisknum)
 2500 08D1              ; 44         ordos_wnd(); // Устанавливаем диск
 2501 08D1 CD D6 BF     	call ordos_wnd
 2502 08D4              ; 45         de = Net_buffer;
 2503 08D4 11 B1 3A     	ld de, net_buffer
 2504 08D7              ; 46         hl = ParserFileUploadStartAddress;
 2505 08D7 2A F6 09     	ld hl, (parserfileuploadstartaddress)
 2506 08DA              ; 47         b = 16;
 2507 08DA 06 10        	ld b, 16
 2508 08DC              ; 48         c = 0;
 2509 08DC 0E 00        	ld c, 0
 2510 08DE              ; 49         do {
 2511 08DE              __l_165:
 2512 08DE              ; 50             ordos_rdisk();
 2513 08DE CD DC BF     	call ordos_rdisk
 2514 08E1              ; 51             *de = a;
 2515 08E1 12           	ld (de), a
 2516 08E2              ; 52             a += c;
 2517 08E2 81           	add c
 2518 08E3              ; 53             c = a;
 2519 08E3 4F           	ld c, a
 2520 08E4              ; 54             hl++;
 2521 08E4 23           	inc hl
 2522 08E5              ; 55             de++;
 2523 08E5 13           	inc de
 2524 08E6              ; 56             b--;
 2525 08E6 05           	dec b
 2526 08E7              __l_166:
 2527 08E7              ; 57         } while ((a = b) > 0);
 2528 08E7 78           	ld a, b
 2529 08E8 B7           	or a
 2530 08E9 C2 DE 08     	jp nz, __l_165
 2531 08EC              ; 58         //-- SUM
 2532 08EC              ; 59         a = c;
 2533 08EC 79           	ld a, c
 2534 08ED              ; 60         *de = a;
 2535 08ED 12           	ld (de), a
 2536 08EE              ; 61         de++;
 2537 08EE 13           	inc de
 2538 08EF              ; 62         //-- LEN
 2539 08EF              ; 63         hl = ParserFileUploadLen;
 2540 08EF 2A F8 09     	ld hl, (parserfileuploadlen)
 2541 08F2              ; 64         a = l;
 2542 08F2 7D           	ld a, l
 2543 08F3              ; 65         *de = a;
 2544 08F3 12           	ld (de), a
 2545 08F4              ; 66         de++;
 2546 08F4 13           	inc de
 2547 08F5              ; 67         a = h;
 2548 08F5 7C           	ld a, h
 2549 08F6              ; 68         *de = a;
 2550 08F6 12           	ld (de), a
 2551 08F7              ; 69         de++;
 2552 08F7 13           	inc de
 2553 08F8              ; 70         //-- IsEnd
 2554 08F8              ; 71         hl = ParserFileUploadCount;
 2555 08F8 2A FA 09     	ld hl, (parserfileuploadcount)
 2556 08FB              ; 72         c = 0;
 2557 08FB 0E 00        	ld c, 0
 2558 08FD              ; 73         if ((a = h) == 0) {
 2559 08FD 7C           	ld a, h
 2560 08FE B7           	or a
 2561 08FF C2 0A 09     	jp nz, __l_168
 2562 0902              ; 74             if ( (a = l) < 17 ) {
 2563 0902 7D           	ld a, l
 2564 0903 FE 11        	cp 17
 2565 0905 D2 0A 09     	jp nc, __l_170
 2566 0908              ; 75                 c = 1;
 2567 0908 0E 01        	ld c, 1
 2568 090A              __l_170:
 2569 090A              __l_168:
 2570 090A              ; 76             }
 2571 090A              ; 77         }
 2572 090A              ; 78         a = c;
 2573 090A 79           	ld a, c
 2574 090B              ; 79         *de = a;
 2575 090B 12           	ld (de), a
 2576 090C C1           	pop bc
 2577 090D D1           	pop de
 2578 090E E1           	pop hl
 2579 090F C9           	ret
 2580 0910              ; 80     }
 2581 0910              ; 81 }
 2582 0910              ; 82
 2583 0910              ; 83 // b = 0x3C, b = isCorrect, b = progress, b = sum
 2584 0910              ; 84 // Вых [A] - 1 - дальше. 0 - выход
 2585 0910              ; 85 void ParserFileUploadParse() {
 2586 0910              parserfileuploadparse:
 2587 0910              ; 86     ParserFileUploadParseSum();
 2588 0910 CD 69 09     	call parserfileuploadparsesum
 2589 0913              ; 87     if (a == 1) {
 2590 0913 FE 01        	cp 1
 2591 0915 C2 66 09     	jp nz, __l_172
 2592 0918              ; 88         push_pop(hl, de, bc) {
 2593 0918 E5           	push hl
 2594 0919 D5           	push de
 2595 091A C5           	push bc
 2596 091B              ; 89             de = Net_buffer;
 2597 091B 11 B1 3A     	ld de, net_buffer
 2598 091E              ; 90             de++;
 2599 091E 13           	inc de
 2600 091F              ; 91             a = *de;
 2601 091F 1A           	ld a, (de)
 2602 0920              ; 92             if (a == 1) {
 2603 0920 FE 01        	cp 1
 2604 0922 C2 5E 09     	jp nz, __l_174
 2605 0925              ; 93                 // Отправить прогресс
 2606 0925              ; 94                 de++;
 2607 0925 13           	inc de
 2608 0926              ; 95                 a = ParserFileUploadProgress;
 2609 0926 3A FC 09     	ld a, (parserfileuploadprogress)
 2610 0929              ; 96                 b = a;
 2611 0929 47           	ld b, a
 2612 092A              ; 97                 a = *de;
 2613 092A 1A           	ld a, (de)
 2614 092B              ; 98                 if (a != b) {
 2615 092B B8           	cp b
 2616 092C CA 35 09     	jp z, __l_176
 2617 092F              ; 99                     ParserFileUploadProgress = a;
 2618 092F 32 FC 09     	ld (parserfileuploadprogress), a
 2619 0932              ; 100                     LoadViewShowProgressA(); //a = *de;
 2620 0932 CD 55 26     	call loadviewshowprogressa
 2621 0935              __l_176:
 2622 0935              ; 101                 }
 2623 0935              ; 102                 // Следующий шаг отправки
 2624 0935              ; 103                 hl = ParserFileUploadStartAddress;
 2625 0935 2A F6 09     	ld hl, (parserfileuploadstartaddress)
 2626 0938              ; 104                 bc = 16;
 2627 0938 01 10 00     	ld bc, 16
 2628 093B              ; 105                 hl += bc;
 2629 093B 09           	add hl, bc
 2630 093C              ; 106                 ParserFileUploadStartAddress = hl; // Новый адрес чтения
 2631 093C 22 F6 09     	ld (parserfileuploadstartaddress), hl
 2632 093F              ; 107                 hl = ParserFileUploadCount;
 2633 093F 2A FA 09     	ld hl, (parserfileuploadcount)
 2634 0942              ; 108                 bc = 0xFFF0;
 2635 0942 01 F0 FF     	ld bc, 65520
 2636 0945              ; 109                 hl += bc;
 2637 0945 09           	add hl, bc
 2638 0946              ; 110                 ParserFileUploadCount = hl; // Оставшаяся длина файла
 2639 0946 22 FA 09     	ld (parserfileuploadcount), hl
 2640 0949              ; 111
 2641 0949              ; 112                 // Условие что делаем дальше...
 2642 0949              ; 113                 c = 1;
 2643 0949 0E 01        	ld c, 1
 2644 094B              ; 114                 hl = ParserFileUploadCount;
 2645 094B 2A FA 09     	ld hl, (parserfileuploadcount)
 2646 094E              ; 115                 if ((a = h) == 0) {
 2647 094E 7C           	ld a, h
 2648 094F B7           	or a
 2649 0950 C2 5A 09     	jp nz, __l_178
 2650 0953              ; 116                     if ((a = l) == 0) {
 2651 0953 7D           	ld a, l
 2652 0954 B7           	or a
 2653 0955 C2 5A 09     	jp nz, __l_180
 2654 0958              ; 117                         c = 0; // СТОП!
 2655 0958 0E 00        	ld c, 0
 2656 095A              __l_180:
 2657 095A              __l_178:
 2658 095A              ; 118                     }
 2659 095A              ; 119                 }
 2660 095A              ; 120                 a = c;
 2661 095A 79           	ld a, c
 2662 095B C3 60 09     	jp __l_175
 2663 095E              __l_174:
 2664 095E              ; 121             } else {
 2665 095E              ; 122                 a = 1; // Данные не корректны - отправляем еще раз!
 2666 095E 3E 01        	ld a, 1
 2667 0960              __l_175:
 2668 0960 C1           	pop bc
 2669 0961 D1           	pop de
 2670 0962 E1           	pop hl
 2671 0963 C3 68 09     	jp __l_173
 2672 0966              __l_172:
 2673 0966              ; 123             }
 2674 0966              ; 124         }
 2675 0966              ; 125     } else {
 2676 0966              ; 126         a = 0;
 2677 0966 3E 00        	ld a, 0
 2678 0968              __l_173:
 2679 0968 C9           	ret
 2680 0969              ; 127     }
 2681 0969              ; 128 }
 2682 0969              ; 129
 2683 0969              ; 130 void ParserFileUploadParseSum() {
 2684 0969              parserfileuploadparsesum:
 2685 0969              ; 131     push_pop(hl, de, bc) {
 2686 0969 E5           	push hl
 2687 096A D5           	push de
 2688 096B C5           	push bc
 2689 096C              ; 132         de = Net_buffer;
 2690 096C 11 B1 3A     	ld de, net_buffer
 2691 096F              ; 133         b = 3;
 2692 096F 06 03        	ld b, 3
 2693 0971              ; 134         c = 0;
 2694 0971 0E 00        	ld c, 0
 2695 0973              ; 135         do {
 2696 0973              __l_182:
 2697 0973              ; 136             a = *de;
 2698 0973 1A           	ld a, (de)
 2699 0974              ; 137             a += c;
 2700 0974 81           	add c
 2701 0975              ; 138             c = a;
 2702 0975 4F           	ld c, a
 2703 0976              ; 139             de++;
 2704 0976 13           	inc de
 2705 0977              ; 140             b--;
 2706 0977 05           	dec b
 2707 0978              __l_183:
 2708 0978              ; 141         } while ((a = b) > 0);
 2709 0978 78           	ld a, b
 2710 0979 B7           	or a
 2711 097A C2 73 09     	jp nz, __l_182
 2712 097D              ; 142         a = *de;
 2713 097D 1A           	ld a, (de)
 2714 097E              ; 143         if (a == c) {
 2715 097E B9           	cp c
 2716 097F C2 87 09     	jp nz, __l_185
 2717 0982              ; 144             a = 1;
 2718 0982 3E 01        	ld a, 1
 2719 0984 C3 89 09     	jp __l_186
 2720 0987              __l_185:
 2721 0987              ; 145         } else {
 2722 0987              ; 146             a = 0;
 2723 0987 3E 00        	ld a, 0
 2724 0989              __l_186:
 2725 0989 C1           	pop bc
 2726 098A D1           	pop de
 2727 098B E1           	pop hl
 2728 098C C9           	ret
 2729 098D              ; 147         }
 2730 098D              ; 148     }
 2731 098D              ; 149 }
 2732 098D              ; 150
 2733 098D              ; 151 void ParserFileDiskRequest() {
 2734 098D              parserfilediskrequest:
 2735 098D              ; 152     push_pop(de, bc) {
 2736 098D D5           	push de
 2737 098E C5           	push bc
 2738 098F              ; 153         // SUMM
 2739 098F              ; 154         c = 0;
 2740 098F 0E 00        	ld c, 0
 2741 0991              ; 155         //-- Buffer
 2742 0991              ; 156         de = Net_buffer;
 2743 0991 11 B1 3A     	ld de, net_buffer
 2744 0994              ; 157         // - init
 2745 0994              ; 158         a = 0x3C;
 2746 0994 3E 3C        	ld a, 60
 2747 0996              ; 159         *de = a;
 2748 0996 12           	ld (de), a
 2749 0997              ; 160         de++;
 2750 0997 13           	inc de
 2751 0998              ; 161         a += c;
 2752 0998 81           	add c
 2753 0999              ; 162         c = a;
 2754 0999 4F           	ld c, a
 2755 099A              ; 163         // - disk
 2756 099A              ; 164         a = DiskViewDiskNum;
 2757 099A 3A 54 1A     	ld a, (diskviewdisknum)
 2758 099D              ; 165         *de = a;
 2759 099D 12           	ld (de), a
 2760 099E              ; 166         de++;
 2761 099E 13           	inc de
 2762 099F              ; 167         a += c;
 2763 099F 81           	add c
 2764 09A0              ; 168         c = a;
 2765 09A0 4F           	ld c, a
 2766 09A1              ; 169         // - summ
 2767 09A1              ; 170         a = c;
 2768 09A1 79           	ld a, c
 2769 09A2              ; 171         *de = a;
 2770 09A2 12           	ld (de), a
 2771 09A3 C1           	pop bc
 2772 09A4 D1           	pop de
 2773 09A5 C9           	ret
 2774 09A6              ; 172     }
 2775 09A6              ; 173 }
 2776 09A6              ; 174
 2777 09A6              ; 175 // Вых [A] - 1 - Успешно. 0 - Ошибка
 2778 09A6              ; 176 void ParserFileDiskResponse() {
 2779 09A6              parserfilediskresponse:
 2780 09A6              ; 177     ParserFileDiskResponseSum();
 2781 09A6 CD CD 09     	call parserfilediskresponsesum
 2782 09A9              ; 178     if (a == 1) {
 2783 09A9 FE 01        	cp 1
 2784 09AB C2 CA 09     	jp nz, __l_187
 2785 09AE              ; 179         push_pop(de, bc) {
 2786 09AE D5           	push de
 2787 09AF C5           	push bc
 2788 09B0              ; 180             de = Net_buffer;
 2789 09B0 11 B1 3A     	ld de, net_buffer
 2790 09B3              ; 181             // init == 0x3C
 2791 09B3              ; 182             a = *de;
 2792 09B3 1A           	ld a, (de)
 2793 09B4              ; 183             de++;
 2794 09B4 13           	inc de
 2795 09B5              ; 184             if (a == 0x3C) {
 2796 09B5 FE 3C        	cp 60
 2797 09B7 C2 C3 09     	jp nz, __l_189
 2798 09BA              ; 185                 a = *de;
 2799 09BA 1A           	ld a, (de)
 2800 09BB              ; 186                 DiskViewDiskNum = a;
 2801 09BB 32 54 1A     	ld (diskviewdisknum), a
 2802 09BE              ; 187                 a = 1;
 2803 09BE 3E 01        	ld a, 1
 2804 09C0 C3 C5 09     	jp __l_190
 2805 09C3              __l_189:
 2806 09C3              ; 188             } else {
 2807 09C3              ; 189                 a = 0;
 2808 09C3 3E 00        	ld a, 0
 2809 09C5              __l_190:
 2810 09C5 C1           	pop bc
 2811 09C6 D1           	pop de
 2812 09C7 C3 CC 09     	jp __l_188
 2813 09CA              __l_187:
 2814 09CA              ; 190             }
 2815 09CA              ; 191         }
 2816 09CA              ; 192     } else {
 2817 09CA              ; 193         a = 0;
 2818 09CA 3E 00        	ld a, 0
 2819 09CC              __l_188:
 2820 09CC C9           	ret
 2821 09CD              ; 194     }
 2822 09CD              ; 195 }
 2823 09CD              ; 196
 2824 09CD              ; 197 void ParserFileDiskResponseSum() {
 2825 09CD              parserfilediskresponsesum:
 2826 09CD              ; 198     push_pop(de, bc) {
 2827 09CD D5           	push de
 2828 09CE C5           	push bc
 2829 09CF              ; 199         de = Net_buffer;
 2830 09CF 11 B1 3A     	ld de, net_buffer
 2831 09D2              ; 200         b = 2;
 2832 09D2 06 02        	ld b, 2
 2833 09D4              ; 201         c = 0;
 2834 09D4 0E 00        	ld c, 0
 2835 09D6              ; 202         do {
 2836 09D6              __l_191:
 2837 09D6              ; 203             a = *de;
 2838 09D6 1A           	ld a, (de)
 2839 09D7              ; 204             a += c;
 2840 09D7 81           	add c
 2841 09D8              ; 205             c = a;
 2842 09D8 4F           	ld c, a
 2843 09D9              ; 206             de++;
 2844 09D9 13           	inc de
 2845 09DA              ; 207             b--;
 2846 09DA 05           	dec b
 2847 09DB              __l_192:
 2848 09DB              ; 208         } while ((a = b) > 0);
 2849 09DB 78           	ld a, b
 2850 09DC B7           	or a
 2851 09DD C2 D6 09     	jp nz, __l_191
 2852 09E0              ; 209         a = *de;
 2853 09E0 1A           	ld a, (de)
 2854 09E1              ; 210         if (a == c) {
 2855 09E1 B9           	cp c
 2856 09E2 C2 EA 09     	jp nz, __l_194
 2857 09E5              ; 211             a = 1;
 2858 09E5 3E 01        	ld a, 1
 2859 09E7 C3 EC 09     	jp __l_195
 2860 09EA              __l_194:
 2861 09EA              ; 212         } else {
 2862 09EA              ; 213             a = 0;
 2863 09EA 3E 00        	ld a, 0
 2864 09EC              __l_195:
 2865 09EC C1           	pop bc
 2866 09ED D1           	pop de
 2867 09EE C9           	ret
 2868 09EF              ; 214         }
 2869 09EF              ; 215     }
 2870 09EF              ; 216 }
 2871 09EF              ; 217
 2872 09EF              ; 218 // DE = DE - HL
 2873 09EF              ; 219 void ParserFileDESubHL() {
 2874 09EF              parserfiledesubhl:
 2875 09EF              ; 220     a = e;  // Load low byte of E into accumulator
 2876 09EF 7B           	ld a, e
 2877 09F0              ; 221     a -= l; // Subtract low byte of L (A = E - L)
 2878 09F0 95           	sub l
 2879 09F1              ; 222     e = a;  // Store result back in E
 2880 09F1 5F           	ld e, a
 2881 09F2              ; 223
 2882 09F2              ; 224     a = d;  // Load high byte of D into accumulator
 2883 09F2 7A           	ld a, d
 2884 09F3              ; 225     carry_sub(a, h);    // Subtract high byte of DE with borrow (A = D - H - Carry)
 2885 09F3 9C           	sbc h
 2886 09F4              ; 226     d = a;  // Store result back in D
 2887 09F4 57           	ld d, a
 2888 09F5 C9           	ret
 2889 09F6              ; 227 }
 2890 09F6              ; 228
 2891 09F6              ; 229 uint16_t ParserFileUploadStartAddress = 0;
 2892 09F6              parserfileuploadstartaddress:
 2893 09F6 00 00        	dw 0
 2894 09F8              ; 230 uint16_t ParserFileUploadLen = 0;
 2895 09F8              parserfileuploadlen:
 2896 09F8 00 00        	dw 0
 2897 09FA              ; 231 uint16_t ParserFileUploadCount = 0;
 2898 09FA              parserfileuploadcount:
 2899 09FA 00 00        	dw 0
 2900 09FC              ; 232 uint8_t ParserFileUploadProgress = 0;
 2901 09FC              parserfileuploadprogress:
 2902 09FC 00           	db 0
 2903 09FD              ; 11 void WiFiSettingsViewShow() {
 2904 09FD              wifisettingsviewshow:
 2905 09FD              ; 12     push_pop(bc, hl, de) {
 2906 09FD C5           	push bc
 2907 09FE E5           	push hl
 2908 09FF D5           	push de
 2909 0A00              ; 13         CurrentViewChangeAndPushIdA(a = WiFiSettingsViewId);
 2910 0A00 3E 05        	ld a, 5
 2911 0A02 CD 58 0F     	call currentviewchangeandpushida
 2912 0A05              ; 14         //--
 2913 0A05              ; 15         a = WiFiSettingsViewX;
 2914 0A05 3A 2A 0C     	ld a, (wifisettingsviewx)
 2915 0A08              ; 16         h = a;
 2916 0A08 67           	ld h, a
 2917 0A09              ; 17         a = WiFiSettingsViewY;
 2918 0A09 3A 2B 0C     	ld a, (wifisettingsviewy)
 2919 0A0C              ; 18         l = a;
 2920 0A0C 6F           	ld l, a
 2921 0A0D              ; 19         a = WiFiSettingsViewDX;
 2922 0A0D 3A 2C 0C     	ld a, (wifisettingsviewdx)
 2923 0A10              ; 20         d = a;
 2924 0A10 57           	ld d, a
 2925 0A11              ; 21         a = WiFiSettingsViewDY;
 2926 0A11 3A 2D 0C     	ld a, (wifisettingsviewdy)
 2927 0A14              ; 22         e = a;
 2928 0A14 5F           	ld e, a
 2929 0A15              ; 23         a = WiFiSettingsViewColor;
 2930 0A15 3A 2E 0C     	ld a, (wifisettingsviewcolor)
 2931 0A18              ; 24         c = a;
 2932 0A18 4F           	ld c, a
 2933 0A19              ; 25         a = vboxCLW;
 2934 0A19 3E 40        	ld a, 64
 2935 0A1B              ; 26         a |= vboxFRM;
 2936 0A1B F6 20        	or 32
 2937 0A1D              ; 27         a |= vboxSDW;
 2938 0A1D F6 10        	or 16
 2939 0A1F              ; 28         a |= vboxSAV;
 2940 0A1F F6 08        	or 8
 2941 0A21              ; 29         a |= vboxUMP;
 2942 0A21 F6 04        	or 4
 2943 0A23              ; 30         vboxOpenHLDECA();
 2944 0A23 CD 6D 39     	call vboxopenhldeca
 2945 0A26 D1           	pop de
 2946 0A27 E1           	pop hl
 2947 0A28 C1           	pop bc
 2948 0A29              ; 31     }
 2949 0A29              ; 32     a = 0;
 2950 0A29 3E 00        	ld a, 0
 2951 0A2B              ; 33     WiFiSettingsViewSelectPos = a;
 2952 0A2B 32 30 0C     	ld (wifisettingsviewselectpos), a
 2953 0A2E              ; 34     WiFiSettingsViewShowTitle();
 2954 0A2E CD 39 0A     	call wifisettingsviewshowtitle
 2955 0A31              ; 35     WiFiSettingsViewShowValue();
 2956 0A31 CD D0 0A     	call wifisettingsviewshowvalue
 2957 0A34              ; 36     WiFiSettingsViewSelectLineA(a = 1);
 2958 0A34 3E 01        	ld a, 1
 2959 0A36 C3 CB 0B     	jp wifisettingsviewselectlinea
 2960 0A39              ; 37 }
 2961 0A39              ; 38
 2962 0A39              ; 39 void WiFiSettingsViewShowTitle() {
 2963 0A39              wifisettingsviewshowtitle:
 2964 0A39              ; 40     push_pop(hl, bc, de) {
 2965 0A39 E5           	push hl
 2966 0A3A C5           	push bc
 2967 0A3B D5           	push de
 2968 0A3C              ; 41         // Title
 2969 0A3C              ; 42         a = WiFiSettingsViewX;
 2970 0A3C 3A 2A 0C     	ld a, (wifisettingsviewx)
 2971 0A3F              ; 43         a += 7;
 2972 0A3F C6 07        	add 7
 2973 0A41              ; 44         myCharPosX = a;
 2974 0A41 32 E3 0E     	ld (mycharposx), a
 2975 0A44              ; 45         a = WiFiSettingsViewY;
 2976 0A44 3A 2B 0C     	ld a, (wifisettingsviewy)
 2977 0A47              ; 46         a += 1; //2;
 2978 0A47 C6 01        	add 1
 2979 0A49              ; 47         myCharPosY = a;
 2980 0A49 32 E4 0E     	ld (mycharposy), a
 2981 0A4C              ; 48         printMyHLStr(hl = WiFiSettingsViewTitle);
 2982 0A4C 21 31 0C     	ld hl, wifisettingsviewtitle
 2983 0A4F CD ED 0C     	call printmyhlstr
 2984 0A52              ; 49         // LINE!!!
 2985 0A52              ; 50         a = WiFiSettingsViewX;
 2986 0A52 3A 2A 0C     	ld a, (wifisettingsviewx)
 2987 0A55              ; 51         a += 1;
 2988 0A55 C6 01        	add 1
 2989 0A57              ; 52         myCharPosX = a;
 2990 0A57 32 E3 0E     	ld (mycharposx), a
 2991 0A5A              ; 53         a = WiFiSettingsViewY;
 2992 0A5A 3A 2B 0C     	ld a, (wifisettingsviewy)
 2993 0A5D              ; 54         a += 2;
 2994 0A5D C6 02        	add 2
 2995 0A5F              ; 55         myCharPosY = a;
 2996 0A5F 32 E4 0E     	ld (mycharposy), a
 2997 0A62              ; 56         a = WiFiSettingsViewDX;
 2998 0A62 3A 2C 0C     	ld a, (wifisettingsviewdx)
 2999 0A65              ; 57         a -= 2;
 3000 0A65 D6 02        	sub 2
 3001 0A67              ; 58         b = a;
 3002 0A67 47           	ld b, a
 3003 0A68              ; 59         do {
 3004 0A68              __l_196:
 3005 0A68              ; 60             printMyCharA(a = 0x5F);
 3006 0A68 3E 5F        	ld a, 95
 3007 0A6A CD 4E 0D     	call printmychara
 3008 0A6D              ; 61             b--;
 3009 0A6D 05           	dec b
 3010 0A6E              __l_197:
 3011 0A6E              ; 62         } while ((a = b) > 0);
 3012 0A6E 78           	ld a, b
 3013 0A6F B7           	or a
 3014 0A70 C2 68 0A     	jp nz, __l_196
 3015 0A73              ; 63         // SSID
 3016 0A73              ; 64         a = WiFiSettingsViewX;
 3017 0A73 3A 2A 0C     	ld a, (wifisettingsviewx)
 3018 0A76              ; 65         a += 2;
 3019 0A76 C6 02        	add 2
 3020 0A78              ; 66         b = a; // X
 3021 0A78 47           	ld b, a
 3022 0A79              ; 67         myCharPosX = a;
 3023 0A79 32 E3 0E     	ld (mycharposx), a
 3024 0A7C              ; 68         a = WiFiSettingsViewY;
 3025 0A7C 3A 2B 0C     	ld a, (wifisettingsviewy)
 3026 0A7F              ; 69         a += 4;
 3027 0A7F C6 04        	add 4
 3028 0A81              ; 70         c = a; // Y
 3029 0A81 4F           	ld c, a
 3030 0A82              ; 71         myCharPosY = a;
 3031 0A82 32 E4 0E     	ld (mycharposy), a
 3032 0A85              ; 72         printMyHLStr(hl = WiFiSettingsViewTitleSSID);
 3033 0A85 21 40 0C     	ld hl, wifisettingsviewtitlessid
 3034 0A88 CD ED 0C     	call printmyhlstr
 3035 0A8B              ; 73         // PASS
 3036 0A8B              ; 74         a = b;
 3037 0A8B 78           	ld a, b
 3038 0A8C              ; 75         myCharPosX = a;
 3039 0A8C 32 E3 0E     	ld (mycharposx), a
 3040 0A8F              ; 76         a = c;
 3041 0A8F 79           	ld a, c
 3042 0A90              ; 77         a += 1;
 3043 0A90 C6 01        	add 1
 3044 0A92              ; 78         myCharPosY = a;
 3045 0A92 32 E4 0E     	ld (mycharposy), a
 3046 0A95              ; 79         printMyHLStr(hl = WiFiSettingsViewTitlePass);
 3047 0A95 21 47 0C     	ld hl, wifisettingsviewtitlepass
 3048 0A98 CD ED 0C     	call printmyhlstr
 3049 0A9B              ; 80         // MAC
 3050 0A9B              ; 81         a = b;
 3051 0A9B 78           	ld a, b
 3052 0A9C              ; 82         myCharPosX = a;
 3053 0A9C 32 E3 0E     	ld (mycharposx), a
 3054 0A9F              ; 83         a = c;
 3055 0A9F 79           	ld a, c
 3056 0AA0              ; 84         a += 2;
 3057 0AA0 C6 02        	add 2
 3058 0AA2              ; 85         myCharPosY = a;
 3059 0AA2 32 E4 0E     	ld (mycharposy), a
 3060 0AA5              ; 86         printMyHLStr(hl = WiFiSettingsViewTitleMac);
 3061 0AA5 21 4D 0C     	ld hl, wifisettingsviewtitlemac
 3062 0AA8 CD ED 0C     	call printmyhlstr
 3063 0AAB              ; 87         // OK
 3064 0AAB              ; 88         d = 13;
 3065 0AAB 16 0D        	ld d, 13
 3066 0AAD              ; 89         e = 3;
 3067 0AAD 1E 03        	ld e, 3
 3068 0AAF              ; 90         a = WiFiSettingsViewX;
 3069 0AAF 3A 2A 0C     	ld a, (wifisettingsviewx)
 3070 0AB2              ; 91         a += 7;
 3071 0AB2 C6 07        	add 7
 3072 0AB4              ; 92         h = a;
 3073 0AB4 67           	ld h, a
 3074 0AB5              ; 93         a = c;
 3075 0AB5 79           	ld a, c
 3076 0AB6              ; 94         a += 4;
 3077 0AB6 C6 04        	add 4
 3078 0AB8              ; 95         l = a;
 3079 0AB8 6F           	ld l, a
 3080 0AB9              ; 96         if ((a = WiFiSettingsViewSSIDIsConnected) == 0) {
 3081 0AB9 3A 5B 0C     	ld a, (wifisettingsviewssidisconnected)
 3082 0ABC B7           	or a
 3083 0ABD C2 C6 0A     	jp nz, __l_199
 3084 0AC0              ; 97             bc = WiFiSettingsViewButtonTitle;
 3085 0AC0 01 53 0C     	ld bc, wifisettingsviewbuttontitle
 3086 0AC3 C3 C9 0A     	jp __l_200
 3087 0AC6              __l_199:
 3088 0AC6              ; 98         } else {
 3089 0AC6              ; 99             bc = StringLocaleOK;
 3090 0AC6 01 92 10     	ld bc, stringlocaleok
 3091 0AC9              __l_200:
 3092 0AC9              ; 100         }
 3093 0AC9              ; 101         ButtonShadowViewShow();
 3094 0AC9 CD 25 11     	call buttonshadowviewshow
 3095 0ACC D1           	pop de
 3096 0ACD C1           	pop bc
 3097 0ACE E1           	pop hl
 3098 0ACF C9           	ret
 3099 0AD0              ; 102     }
 3100 0AD0              ; 103 }
 3101 0AD0              ; 104
 3102 0AD0              ; 105 void WiFiSettingsViewShowValue() {
 3103 0AD0              wifisettingsviewshowvalue:
 3104 0AD0              ; 106     push_pop(hl, bc) {
 3105 0AD0 E5           	push hl
 3106 0AD1 C5           	push bc
 3107 0AD2              ; 107         // SSID
 3108 0AD2              ; 108         a = WiFiSettingsViewX;
 3109 0AD2 3A 2A 0C     	ld a, (wifisettingsviewx)
 3110 0AD5              ; 109         a += 8;
 3111 0AD5 C6 08        	add 8
 3112 0AD7              ; 110         b = a; // X
 3113 0AD7 47           	ld b, a
 3114 0AD8              ; 111         myCharPosX = a;
 3115 0AD8 32 E3 0E     	ld (mycharposx), a
 3116 0ADB              ; 112         a = WiFiSettingsViewY;
 3117 0ADB 3A 2B 0C     	ld a, (wifisettingsviewy)
 3118 0ADE              ; 113         a += 4;
 3119 0ADE C6 04        	add 4
 3120 0AE0              ; 114         c = a; // Y
 3121 0AE0 4F           	ld c, a
 3122 0AE1              ; 115         myCharPosY = a;
 3123 0AE1 32 E4 0E     	ld (mycharposy), a
 3124 0AE4              ; 116         a = 18;
 3125 0AE4 3E 12        	ld a, 18
 3126 0AE6              ; 117         printMyHLStrLenA(hl = WiFiSettingsViewSsidValue);
 3127 0AE6 21 5C 0C     	ld hl, wifisettingsviewssidvalue
 3128 0AE9 CD FC 0C     	call printmyhlstrlena
 3129 0AEC              ; 118         // PASS
 3130 0AEC              ; 119         a = b;
 3131 0AEC 78           	ld a, b
 3132 0AED              ; 120         myCharPosX = a;
 3133 0AED 32 E3 0E     	ld (mycharposx), a
 3134 0AF0              ; 121         a = c;
 3135 0AF0 79           	ld a, c
 3136 0AF1              ; 122         a += 1;
 3137 0AF1 C6 01        	add 1
 3138 0AF3              ; 123         myCharPosY = a;
 3139 0AF3 32 E4 0E     	ld (mycharposy), a
 3140 0AF6              ; 124         a = 18;
 3141 0AF6 3E 12        	ld a, 18
 3142 0AF8              ; 125         printMyHLPassLenA(hl = WiFiSettingsViewPassValue);
 3143 0AF8 21 6C 0C     	ld hl, wifisettingsviewpassvalue
 3144 0AFB CD 24 0D     	call printmyhlpasslena
 3145 0AFE              ; 126         // MAC
 3146 0AFE              ; 127         a = b;
 3147 0AFE 78           	ld a, b
 3148 0AFF              ; 128         myCharPosX = a;
 3149 0AFF 32 E3 0E     	ld (mycharposx), a
 3150 0B02              ; 129         a = c;
 3151 0B02 79           	ld a, c
 3152 0B03              ; 130         a += 2;
 3153 0B03 C6 02        	add 2
 3154 0B05              ; 131         myCharPosY = a;
 3155 0B05 32 E4 0E     	ld (mycharposy), a
 3156 0B08              ; 132         a = 18;
 3157 0B08 3E 12        	ld a, 18
 3158 0B0A              ; 133         printMyHLStrLenA(hl = WiFiSettingsViewMacValue);
 3159 0B0A 21 7C 0C     	ld hl, wifisettingsviewmacvalue
 3160 0B0D CD FC 0C     	call printmyhlstrlena
 3161 0B10 C1           	pop bc
 3162 0B11 E1           	pop hl
 3163 0B12 C9           	ret
 3164 0B13              ; 134     }
 3165 0B13              ; 135 }
 3166 0B13              ; 136
 3167 0B13              ; 137 void WiFiSettingsViewClose() {
 3168 0B13              wifisettingsviewclose:
 3169 0B13              ; 138     vboxClose();
 3170 0B13 CD 86 3A     	call vboxclose
 3171 0B16              ; 139     CurrentViewReturn();
 3172 0B16 C3 4F 10     	jp currentviewreturn
 3173 0B19              ; 140 }
 3174 0B19              ; 141
 3175 0B19              ; 142 void WiFiSettingsViewKeyA() {
 3176 0B19              wifisettingsviewkeya:
 3177 0B19              ; 143     push_pop(hl) {
 3178 0B19 E5           	push hl
 3179 0B1A              ; 144         l = a;
 3180 0B1A 6F           	ld l, a
 3181 0B1B              ; 145         if ((a = c) == 0) {
 3182 0B1B 79           	ld a, c
 3183 0B1C B7           	or a
 3184 0B1D C2 98 0B     	jp nz, __l_201
 3185 0B20              ; 146             if ((a = CurrentViewId) == WiFiSettingsViewId) {
 3186 0B20 3A 8F 10     	ld a, (currentviewid)
 3187 0B23 FE 05        	cp 5
 3188 0B25 C2 98 0B     	jp nz, __l_203
 3189 0B28              ; 147                 if ((a = l) == 0x1B) { //ESC выход
 3190 0B28 7D           	ld a, l
 3191 0B29 FE 1B        	cp 27
 3192 0B2B C2 34 0B     	jp nz, __l_205
 3193 0B2E              ; 148                     WiFiSettingsViewClose();
 3194 0B2E CD 13 0B     	call wifisettingsviewclose
 3195 0B31 C3 98 0B     	jp __l_206
 3196 0B34              __l_205:
 3197 0B34              ; 149                 } else if ((a = l) == 0x0D) { // Выбор
 3198 0B34 7D           	ld a, l
 3199 0B35 FE 0D        	cp 13
 3200 0B37 C2 7F 0B     	jp nz, __l_207
 3201 0B3A              ; 150                     if ((a = WiFiSettingsViewSelectPos) == 0) { // OK
 3202 0B3A 3A 30 0C     	ld a, (wifisettingsviewselectpos)
 3203 0B3D B7           	or a
 3204 0B3E C2 57 0B     	jp nz, __l_209
 3205 0B41              ; 151                         WiFiSettingsViewClose();
 3206 0B41 CD 13 0B     	call wifisettingsviewclose
 3207 0B44              ; 152                         if ((a = WiFiSettingsViewSSIDIsConnected) == 0) {
 3208 0B44 3A 5B 0C     	ld a, (wifisettingsviewssidisconnected)
 3209 0B47 B7           	or a
 3210 0B48 C2 54 0B     	jp nz, __l_211
 3211 0B4B              ; 153                             NetWiFiConnect(); // Подключиться
 3212 0B4B CD DD 04     	call netwificonnect
 3213 0B4E              ; 154                             ThreadsTickNow(); // Обновить
 3214 0B4E CD 41 14     	call threadsticknow
 3215 0B51              ; 155                             ThreadsNetDetectError();
 3216 0B51 CD A8 15     	call threadsnetdetecterror
 3217 0B54              __l_211:
 3218 0B54 C3 7C 0B     	jp __l_210
 3219 0B57              __l_209:
 3220 0B57              ; 156                         }
 3221 0B57              ; 157                     } else if ((a = WiFiSettingsViewSelectPos) == 1) { // Выбор SSID
 3222 0B57 3A 30 0C     	ld a, (wifisettingsviewselectpos)
 3223 0B5A FE 01        	cp 1
 3224 0B5C C2 65 0B     	jp nz, __l_213
 3225 0B5F              ; 158                         WiFiNetworksViewShow();
 3226 0B5F CD A7 26     	call wifinetworksviewshow
 3227 0B62 C3 7C 0B     	jp __l_214
 3228 0B65              __l_213:
 3229 0B65              ; 159                     } else { // Переход в редактирование
 3230 0B65              ; 160                         WiFiSettingsViewByPosBoxValue();
 3231 0B65 CD AE 0B     	call wifisettingsviewbyposboxvalue
 3232 0B68              ; 161                         WiFiSettingsViewByPosValue();
 3233 0B68 CD 9A 0B     	call wifisettingsviewbyposvalue
 3234 0B6B              ; 162                         EditFieldViewShow();
 3235 0B6B CD C5 11     	call editfieldviewshow
 3236 0B6E              ; 163                         if (a == 1) { // что то изменилось
 3237 0B6E FE 01        	cp 1
 3238 0B70 C2 7C 0B     	jp nz, __l_215
 3239 0B73              ; 164                             #ifdef _IS_SIMULATOR
 3240 0B73              ; 165
 3241 0B73              ; 166                             #else
 3242 0B73              ; 167                                 ThreadsNetPasswordUpdate();
 3243 0B73 CD D1 14     	call threadsnetpasswordupdate
 3244 0B76              ; 168                             #endif
 3245 0B76              ; 169                             WiFiSettingsViewShowValue();
 3246 0B76 CD D0 0A     	call wifisettingsviewshowvalue
 3247 0B79              ; 170                             WifiStateViewShowValue();
 3248 0B79 CD 36 16     	call wifistateviewshowvalue
 3249 0B7C              __l_215:
 3250 0B7C              __l_214:
 3251 0B7C              __l_210:
 3252 0B7C C3 98 0B     	jp __l_208
 3253 0B7F              __l_207:
 3254 0B7F              ; 171                         }
 3255 0B7F              ; 172                     }
 3256 0B7F              ; 173                 } else if ((a = l) == 0x1A) { //down
 3257 0B7F 7D           	ld a, l
 3258 0B80 FE 1A        	cp 26
 3259 0B82 C2 8D 0B     	jp nz, __l_217
 3260 0B85              ; 174                     WiFiSettingsViewPosUpdateA(a = 0x01);
 3261 0B85 3E 01        	ld a, 1
 3262 0B87 CD F6 0B     	call wifisettingsviewposupdatea
 3263 0B8A C3 98 0B     	jp __l_218
 3264 0B8D              __l_217:
 3265 0B8D              ; 175                 } else if ((a = l) == 0x19) { //up
 3266 0B8D 7D           	ld a, l
 3267 0B8E FE 19        	cp 25
 3268 0B90 C2 98 0B     	jp nz, __l_219
 3269 0B93              ; 176                     WiFiSettingsViewPosUpdateA(a = 0xFF);
 3270 0B93 3E FF        	ld a, 255
 3271 0B95 CD F6 0B     	call wifisettingsviewposupdatea
 3272 0B98              __l_219:
 3273 0B98              __l_218:
 3274 0B98              __l_208:
 3275 0B98              __l_206:
 3276 0B98              __l_203:
 3277 0B98              __l_201:
 3278 0B98 E1           	pop hl
 3279 0B99 C9           	ret
 3280 0B9A              ; 177                 }
 3281 0B9A              ; 178             }
 3282 0B9A              ; 179         }
 3283 0B9A              ; 180     }
 3284 0B9A              ; 181 }
 3285 0B9A              ; 182
 3286 0B9A              ; 183 /// вых [BC] -
 3287 0B9A              ; 184 void WiFiSettingsViewByPosValue() {
 3288 0B9A              wifisettingsviewbyposvalue:
 3289 0B9A              ; 185     push_pop(hl) {
 3290 0B9A E5           	push hl
 3291 0B9B              ; 186         if ((a = WiFiSettingsViewSelectPos) == 2) {
 3292 0B9B 3A 30 0C     	ld a, (wifisettingsviewselectpos)
 3293 0B9E FE 02        	cp 2
 3294 0BA0 C2 A9 0B     	jp nz, __l_221
 3295 0BA3              ; 187             bc = WiFiSettingsViewPassValue;
 3296 0BA3 01 6C 0C     	ld bc, wifisettingsviewpassvalue
 3297 0BA6 C3 AC 0B     	jp __l_222
 3298 0BA9              __l_221:
 3299 0BA9              ; 188         } else {
 3300 0BA9              ; 189             bc = 0;
 3301 0BA9 01 00 00     	ld bc, 0
 3302 0BAC              __l_222:
 3303 0BAC E1           	pop hl
 3304 0BAD C9           	ret
 3305 0BAE              ; 190         }
 3306 0BAE              ; 191     }
 3307 0BAE              ; 192 }
 3308 0BAE              ; 193
 3309 0BAE              ; 194 /// вых [HL] -
 3310 0BAE              ; 195 /// вых [DE]-
 3311 0BAE              ; 196 void WiFiSettingsViewByPosBoxValue() {
 3312 0BAE              wifisettingsviewbyposboxvalue:
 3313 0BAE              ; 197     push_pop(bc) {
 3314 0BAE C5           	push bc
 3315 0BAF              ; 198         // HL
 3316 0BAF              ; 199         a = WiFiSettingsViewSelectPos;
 3317 0BAF 3A 30 0C     	ld a, (wifisettingsviewselectpos)
 3318 0BB2              ; 200         b = a;
 3319 0BB2 47           	ld b, a
 3320 0BB3              ; 201         a = WiFiSettingsViewY;
 3321 0BB3 3A 2B 0C     	ld a, (wifisettingsviewy)
 3322 0BB6              ; 202         a += 3;
 3323 0BB6 C6 03        	add 3
 3324 0BB8              ; 203         a += b;
 3325 0BB8 80           	add b
 3326 0BB9              ; 204         l = a;
 3327 0BB9 6F           	ld l, a
 3328 0BBA              ; 205         a = WiFiSettingsViewX;
 3329 0BBA 3A 2A 0C     	ld a, (wifisettingsviewx)
 3330 0BBD              ; 206         a += 7;
 3331 0BBD C6 07        	add 7
 3332 0BBF              ; 207         h = a;
 3333 0BBF 67           	ld h, a
 3334 0BC0              ; 208         // DE
 3335 0BC0              ; 209         a = WiFiSettingsViewDX;
 3336 0BC0 3A 2C 0C     	ld a, (wifisettingsviewdx)
 3337 0BC3              ; 210         a -= 8;
 3338 0BC3 D6 08        	sub 8
 3339 0BC5              ; 211         d = a;
 3340 0BC5 57           	ld d, a
 3341 0BC6              ; 212         a = 1;
 3342 0BC6 3E 01        	ld a, 1
 3343 0BC8              ; 213         e = a;
 3344 0BC8 5F           	ld e, a
 3345 0BC9 C1           	pop bc
 3346 0BCA C9           	ret
 3347 0BCB              ; 214     }
 3348 0BCB              ; 215 }
 3349 0BCB              ; 216
 3350 0BCB              ; 217 /// Рисование линии прямым или инверсным цветом
 3351 0BCB              ; 218 /// 0 - прямой
 3352 0BCB              ; 219 /// 1 - инверсный
 3353 0BCB              ; 220 void WiFiSettingsViewSelectLineA() {
 3354 0BCB              wifisettingsviewselectlinea:
 3355 0BCB              ; 221     push_pop(bc, hl) {
 3356 0BCB C5           	push bc
 3357 0BCC E5           	push hl
 3358 0BCD              ; 222         c = a;
 3359 0BCD 4F           	ld c, a
 3360 0BCE              ; 223         // 0 - Button
 3361 0BCE              ; 224         if ((a = WiFiSettingsViewSelectPos) == 0) {
 3362 0BCE 3A 30 0C     	ld a, (wifisettingsviewselectpos)
 3363 0BD1 B7           	or a
 3364 0BD2 C2 DC 0B     	jp nz, __l_223
 3365 0BD5              ; 225             ButtonShadowViewSelectA(a = c);
 3366 0BD5 79           	ld a, c
 3367 0BD6 CD 4E 11     	call buttonshadowviewselecta
 3368 0BD9 C3 F3 0B     	jp __l_224
 3369 0BDC              __l_223:
 3370 0BDC              ; 226         } else {
 3371 0BDC              ; 227             WiFiSettingsViewByPosBoxValue();
 3372 0BDC CD AE 0B     	call wifisettingsviewbyposboxvalue
 3373 0BDF              ; 228             // C
 3374 0BDF              ; 229             if ((a = c) == 0) {
 3375 0BDF 79           	ld a, c
 3376 0BE0 B7           	or a
 3377 0BE1 C2 EA 0B     	jp nz, __l_225
 3378 0BE4              ; 230                 a = WiFiSettingsViewColor;
 3379 0BE4 3A 2E 0C     	ld a, (wifisettingsviewcolor)
 3380 0BE7 C3 ED 0B     	jp __l_226
 3381 0BEA              __l_225:
 3382 0BEA              ; 231             } else {
 3383 0BEA              ; 232                 a = WiFiSettingsViewInvColor;
 3384 0BEA 3A 2F 0C     	ld a, (wifisettingsviewinvcolor)
 3385 0BED              __l_226:
 3386 0BED              ; 233             }
 3387 0BED              ; 234             c = a;
 3388 0BED 4F           	ld c, a
 3389 0BEE              ; 235             // A
 3390 0BEE              ; 236             a = vboxUMP;
 3391 0BEE 3E 04        	ld a, 4
 3392 0BF0              ; 237             vboxOpenHLDECA();
 3393 0BF0 CD 6D 39     	call vboxopenhldeca
 3394 0BF3              __l_224:
 3395 0BF3 E1           	pop hl
 3396 0BF4 C1           	pop bc
 3397 0BF5 C9           	ret
 3398 0BF6              ; 238         }
 3399 0BF6              ; 239     }
 3400 0BF6              ; 240 }
 3401 0BF6              ; 241
 3402 0BF6              ; 242 /// Обновление позиции
 3403 0BF6              ; 243 /// вх[A]
 3404 0BF6              ; 244 /// 0 - без изменений
 3405 0BF6              ; 245 /// 1 - вверх
 3406 0BF6              ; 246 /// 0xFF - вниз
 3407 0BF6              ; 247 void WiFiSettingsViewPosUpdateA() {
 3408 0BF6              wifisettingsviewposupdatea:
 3409 0BF6              ; 248     push_pop(bc) {
 3410 0BF6 C5           	push bc
 3411 0BF7              ; 249         b = a;
 3412 0BF7 47           	ld b, a
 3413 0BF8              ; 250         if (a == 0) {
 3414 0BF8 B7           	or a
 3415 0BF9 C2 04 0C     	jp nz, __l_227
 3416 0BFC              ; 251             WiFiSettingsViewSelectLineA(a = 1);
 3417 0BFC 3E 01        	ld a, 1
 3418 0BFE CD CB 0B     	call wifisettingsviewselectlinea
 3419 0C01 C3 28 0C     	jp __l_228
 3420 0C04              __l_227:
 3421 0C04              ; 252         } else {
 3422 0C04              ; 253             a = 3;
 3423 0C04 3E 03        	ld a, 3
 3424 0C06              ; 254             c = a;
 3425 0C06 4F           	ld c, a
 3426 0C07              ; 255             WiFiSettingsViewSelectLineA(a = 0);
 3427 0C07 3E 00        	ld a, 0
 3428 0C09 CD CB 0B     	call wifisettingsviewselectlinea
 3429 0C0C              ; 256             a = WiFiSettingsViewSelectPos;
 3430 0C0C 3A 30 0C     	ld a, (wifisettingsviewselectpos)
 3431 0C0F              ; 257             a += b;
 3432 0C0F 80           	add b
 3433 0C10              ; 258             //-- FIX
 3434 0C10              ; 259             if (a == 0xFF) {
 3435 0C10 FE FF        	cp 255
 3436 0C12 C2 1A 0C     	jp nz, __l_229
 3437 0C15              ; 260                 a = c;
 3438 0C15 79           	ld a, c
 3439 0C16              ; 261                 a--;
 3440 0C16 3D           	dec a
 3441 0C17 C3 20 0C     	jp __l_230
 3442 0C1A              __l_229:
 3443 0C1A              ; 262             } else if (a == c) {
 3444 0C1A B9           	cp c
 3445 0C1B C2 20 0C     	jp nz, __l_231
 3446 0C1E              ; 263                 a = 0;
 3447 0C1E 3E 00        	ld a, 0
 3448 0C20              __l_231:
 3449 0C20              __l_230:
 3450 0C20              ; 264             }
 3451 0C20              ; 265             //--
 3452 0C20              ; 266             WiFiSettingsViewSelectPos = a;
 3453 0C20 32 30 0C     	ld (wifisettingsviewselectpos), a
 3454 0C23              ; 267             WiFiSettingsViewSelectLineA(a = 1);
 3455 0C23 3E 01        	ld a, 1
 3456 0C25 CD CB 0B     	call wifisettingsviewselectlinea
 3457 0C28              __l_228:
 3458 0C28 C1           	pop bc
 3459 0C29 C9           	ret
 3460 0C2A              ; 268         }
 3461 0C2A              ; 269     }
 3462 0C2A              ; 270 }
 3463 0C2A              ; 271
 3464 0C2A              ; 272 uint8_t WiFiSettingsViewX = 11;
 3465 0C2A              wifisettingsviewx:
 3466 0C2A 0B           	db 11
 3467 0C2B              ; 273 uint8_t WiFiSettingsViewY = 10;
 3468 0C2B              wifisettingsviewy:
 3469 0C2B 0A           	db 10
 3470 0C2C              ; 274 uint8_t WiFiSettingsViewDX = 27;
 3471 0C2C              wifisettingsviewdx:
 3472 0C2C 1B           	db 27
 3473 0C2D              ; 275 uint8_t WiFiSettingsViewDY = 13;
 3474 0C2D              wifisettingsviewdy:
 3475 0C2D 0D           	db 13
 3476 0C2E              ; 276 uint8_t WiFiSettingsViewColor = 0x70;
 3477 0C2E              wifisettingsviewcolor:
 3478 0C2E 70           	db 112
 3479 0C2F              ; 277 uint8_t WiFiSettingsViewInvColor = 0x07;
 3480 0C2F              wifisettingsviewinvcolor:
 3481 0C2F 07           	db 7
 3482 0C30              ; 279 uint8_t WiFiSettingsViewSelectPos = 0;
 3483 0C30              wifisettingsviewselectpos:
 3484 0C30 00           	db 0
 3485 0C31              ; 281 uint8_t WiFiSettingsViewTitle[] = "Wi-Fi settings";
 3486 0C31              wifisettingsviewtitle:
 3487 0C31 57           	db 87
 3488 0C32 69           	db 105
 3489 0C33 2D           	db 45
 3490 0C34 46           	db 70
 3491 0C35 69           	db 105
 3492 0C36 20           	db 32
 3493 0C37 73           	db 115
 3494 0C38 65           	db 101
 3495 0C39 74           	db 116
 3496 0C3A 74           	db 116
 3497 0C3B 69           	db 105
 3498 0C3C 6E           	db 110
 3499 0C3D 67           	db 103
 3500 0C3E 73           	db 115
 3501 0C3F 00           	ds 1
 3502 0C40              ; 282 uint8_t WiFiSettingsViewTitleSSID[] = "SSID: ";
 3503 0C40              wifisettingsviewtitlessid:
 3504 0C40 53           	db 83
 3505 0C41 53           	db 83
 3506 0C42 49           	db 73
 3507 0C43 44           	db 68
 3508 0C44 3A           	db 58
 3509 0C45 20           	db 32
 3510 0C46 00           	ds 1
 3511 0C47              ; 283 uint8_t WiFiSettingsViewTitlePass[] = "Pass:";
 3512 0C47              wifisettingsviewtitlepass:
 3513 0C47 50           	db 80
 3514 0C48 61           	db 97
 3515 0C49 73           	db 115
 3516 0C4A 73           	db 115
 3517 0C4B 3A           	db 58
 3518 0C4C 00           	ds 1
 3519 0C4D              ; 284 uint8_t WiFiSettingsViewTitleMac[] =  " MAC:";
 3520 0C4D              wifisettingsviewtitlemac:
 3521 0C4D 20           	db 32
 3522 0C4E 4D           	db 77
 3523 0C4F 41           	db 65
 3524 0C50 43           	db 67
 3525 0C51 3A           	db 58
 3526 0C52 00           	ds 1
 3527 0C53              ; 285 uint8_t WiFiSettingsViewButtonTitle[] = "Connect";
 3528 0C53              wifisettingsviewbuttontitle:
 3529 0C53 43           	db 67
 3530 0C54 6F           	db 111
 3531 0C55 6E           	db 110
 3532 0C56 6E           	db 110
 3533 0C57 65           	db 101
 3534 0C58 63           	db 99
 3535 0C59 74           	db 116
 3536 0C5A 00           	ds 1
 3537 0C5B              ; 286 uint8_t WiFiSettingsViewSSIDIsConnected = 0;
 3538 0C5B              wifisettingsviewssidisconnected:
 3539 0C5B 00           	db 0
 3540 0C5C              ; 288 uint8_t WiFiSettingsViewSsidValue[16] = "-";
 3541 0C5C              wifisettingsviewssidvalue:
 3542 0C5C 2D           	db 45
 3543 0C5D 00 00 00...  	ds 15
 3544 0C6C              ; 289 uint8_t WiFiSettingsViewPassValue[16] = "-";
 3545 0C6C              wifisettingsviewpassvalue:
 3546 0C6C 2D           	db 45
 3547 0C6D 00 00 00...  	ds 15
 3548 0C7C              ; 290 uint8_t WiFiSettingsViewMacValue[18] = "00:00:00:00:00:00";
 3549 0C7C              wifisettingsviewmacvalue:
 3550 0C7C 30           	db 48
 3551 0C7D 30           	db 48
 3552 0C7E 3A           	db 58
 3553 0C7F 30           	db 48
 3554 0C80 30           	db 48
 3555 0C81 3A           	db 58
 3556 0C82 30           	db 48
 3557 0C83 30           	db 48
 3558 0C84 3A           	db 58
 3559 0C85 30           	db 48
 3560 0C86 30           	db 48
 3561 0C87 3A           	db 58
 3562 0C88 30           	db 48
 3563 0C89 30           	db 48
 3564 0C8A 3A           	db 58
 3565 0C8B 30           	db 48
 3566 0C8C 30           	db 48
 3567 0C8D 00           	ds 1
 3568 0C8E              ; 291 uint8_t WiFiSettingsViewIpValue[16] = "0.0.0.0";
 3569 0C8E              wifisettingsviewipvalue:
 3570 0C8E 30           	db 48
 3571 0C8F 2E           	db 46
 3572 0C90 30           	db 48
 3573 0C91 2E           	db 46
 3574 0C92 30           	db 48
 3575 0C93 2E           	db 46
 3576 0C94 30           	db 48
 3577 0C95 00 00 00...  	ds 9
 3578 0C9E              ; 11 void printMyHexA() {
 3579 0C9E              printmyhexa:
 3580 0C9E              ; 12     push_pop(bc) {
 3581 0C9E C5           	push bc
 3582 0C9F              ; 13         b = a;
 3583 0C9F 47           	ld b, a
 3584 0CA0              ; 14         a &= 0xF0;
 3585 0CA0 E6 F0        	and 240
 3586 0CA2              ; 15         cyclic_rotate_right(a, 4);
 3587 0CA2 0F           	rrca
 3588 0CA3 0F           	rrca
 3589 0CA4 0F           	rrca
 3590 0CA5 0F           	rrca
 3591 0CA6              ; 16         if (a < 10) {
 3592 0CA6 FE 0A        	cp 10
 3593 0CA8 D2 B0 0C     	jp nc, __l_233
 3594 0CAB              ; 17             a += 0x30;
 3595 0CAB C6 30        	add 48
 3596 0CAD C3 B2 0C     	jp __l_234
 3597 0CB0              __l_233:
 3598 0CB0              ; 18         } else {
 3599 0CB0              ; 19             a += 0x37;
 3600 0CB0 C6 37        	add 55
 3601 0CB2              __l_234:
 3602 0CB2              ; 20         }
 3603 0CB2              ; 21         printMyCharA();
 3604 0CB2 CD 4E 0D     	call printmychara
 3605 0CB5              ; 22         a = b;
 3606 0CB5 78           	ld a, b
 3607 0CB6              ; 23         a &= 0x0F;
 3608 0CB6 E6 0F        	and 15
 3609 0CB8              ; 24         if (a < 10) {
 3610 0CB8 FE 0A        	cp 10
 3611 0CBA D2 C2 0C     	jp nc, __l_235
 3612 0CBD              ; 25             a += 0x30;
 3613 0CBD C6 30        	add 48
 3614 0CBF C3 C4 0C     	jp __l_236
 3615 0CC2              __l_235:
 3616 0CC2              ; 26         } else {
 3617 0CC2              ; 27             a += 0x37;
 3618 0CC2 C6 37        	add 55
 3619 0CC4              __l_236:
 3620 0CC4              ; 28         }
 3621 0CC4              ; 29         printMyCharA();
 3622 0CC4 CD 4E 0D     	call printmychara
 3623 0CC7 C1           	pop bc
 3624 0CC8 C9           	ret
 3625 0CC9              ; 30     }
 3626 0CC9              ; 31 }
 3627 0CC9              ; 32
 3628 0CC9              ; 33 void printMyUTF8HLStr() {
 3629 0CC9              printmyutf8hlstr:
 3630 0CC9              ; 34     do {
 3631 0CC9              __l_237:
 3632 0CC9              ; 35         a = *hl;
 3633 0CC9 7E           	ld a, (hl)
 3634 0CCA              ; 36         if (a == 0xD0) {
 3635 0CCA FE D0        	cp 208
 3636 0CCC C2 D6 0C     	jp nz, __l_240
 3637 0CCF              ; 37             hl++;
 3638 0CCF 23           	inc hl
 3639 0CD0              ; 38             a = *hl;
 3640 0CD0 7E           	ld a, (hl)
 3641 0CD1              ; 39             a += 0xF0;
 3642 0CD1 C6 F0        	add 240
 3643 0CD3 C3 DF 0C     	jp __l_241
 3644 0CD6              __l_240:
 3645 0CD6              ; 40         } else if (a == 0xD1) {
 3646 0CD6 FE D1        	cp 209
 3647 0CD8 C2 DF 0C     	jp nz, __l_242
 3648 0CDB              ; 41             hl++;
 3649 0CDB 23           	inc hl
 3650 0CDC              ; 42             a = *hl;
 3651 0CDC 7E           	ld a, (hl)
 3652 0CDD              ; 43             a += 0x60;
 3653 0CDD C6 60        	add 96
 3654 0CDF              __l_242:
 3655 0CDF              __l_241:
 3656 0CDF              ; 44         }
 3657 0CDF              ; 45         if (a > 0 ) {
 3658 0CDF B7           	or a
 3659 0CE0 CA E6 0C     	jp z, __l_244
 3660 0CE3              ; 46             printMyCharA();
 3661 0CE3 CD 4E 0D     	call printmychara
 3662 0CE6              __l_244:
 3663 0CE6              ; 47         }
 3664 0CE6              ; 48         //
 3665 0CE6              ; 49         a = *hl;
 3666 0CE6 7E           	ld a, (hl)
 3667 0CE7              ; 50         hl++;
 3668 0CE7 23           	inc hl
 3669 0CE8              __l_238:
 3670 0CE8              ; 51     } while (a > 0);
 3671 0CE8 B7           	or a
 3672 0CE9 C2 C9 0C     	jp nz, __l_237
 3673 0CEC C9           	ret
 3674 0CED              ; 52 }
 3675 0CED              ; 53
 3676 0CED              ; 54 void printMyHLStr() {
 3677 0CED              printmyhlstr:
 3678 0CED              ; 55     do {
 3679 0CED              __l_246:
 3680 0CED              ; 56         a = *hl;
 3681 0CED 7E           	ld a, (hl)
 3682 0CEE              ; 57         if (a > 0) {
 3683 0CEE B7           	or a
 3684 0CEF CA F5 0C     	jp z, __l_249
 3685 0CF2              ; 58             printMyCharA();
 3686 0CF2 CD 4E 0D     	call printmychara
 3687 0CF5              __l_249:
 3688 0CF5              ; 59         }
 3689 0CF5              ; 60         a = *hl;
 3690 0CF5 7E           	ld a, (hl)
 3691 0CF6              ; 61         hl++;
 3692 0CF6 23           	inc hl
 3693 0CF7              __l_247:
 3694 0CF7              ; 62     } while (a > 0);
 3695 0CF7 B7           	or a
 3696 0CF8 C2 ED 0C     	jp nz, __l_246
 3697 0CFB C9           	ret
 3698 0CFC              ; 63 }
 3699 0CFC              ; 64
 3700 0CFC              ; 65 /// Выводит строку из HL с текущего положения
 3701 0CFC              ; 66 /// Длиной A. Если текст короче , то добиват до A пробелами
 3702 0CFC              ; 67 void printMyHLStrLenA() {
 3703 0CFC              printmyhlstrlena:
 3704 0CFC              ; 68     push_pop(bc) {
 3705 0CFC C5           	push bc
 3706 0CFD              ; 69         b = a;
 3707 0CFD 47           	ld b, a
 3708 0CFE              ; 70         c = 0;
 3709 0CFE 0E 00        	ld c, 0
 3710 0D00              ; 71         do {
 3711 0D00              __l_251:
 3712 0D00              ; 72             a = *hl;
 3713 0D00 7E           	ld a, (hl)
 3714 0D01              ; 73             if (a > 0) {
 3715 0D01 B7           	or a
 3716 0D02 CA 09 0D     	jp z, __l_254
 3717 0D05              ; 74                 c++;
 3718 0D05 0C           	inc c
 3719 0D06              ; 75                 printMyCharA();
 3720 0D06 CD 4E 0D     	call printmychara
 3721 0D09              __l_254:
 3722 0D09              ; 76             }
 3723 0D09              ; 77             a = *hl;
 3724 0D09 7E           	ld a, (hl)
 3725 0D0A              ; 78             hl++;
 3726 0D0A 23           	inc hl
 3727 0D0B              __l_252:
 3728 0D0B              ; 79         } while (a > 0);
 3729 0D0B B7           	or a
 3730 0D0C C2 00 0D     	jp nz, __l_251
 3731 0D0F              ; 80         if ((a = c) < b) {
 3732 0D0F 79           	ld a, c
 3733 0D10 B8           	cp b
 3734 0D11 D2 22 0D     	jp nc, __l_256
 3735 0D14              ; 81             a = b;
 3736 0D14 78           	ld a, b
 3737 0D15              ; 82             a -= c;
 3738 0D15 91           	sub c
 3739 0D16              ; 83             b = a;
 3740 0D16 47           	ld b, a
 3741 0D17              ; 84             do {
 3742 0D17              __l_258:
 3743 0D17              ; 85                 printMyCharA(a = ' ');
 3744 0D17 3E 20        	ld a, 32
 3745 0D19 CD 4E 0D     	call printmychara
 3746 0D1C              ; 86                 b--;
 3747 0D1C 05           	dec b
 3748 0D1D              __l_259:
 3749 0D1D              ; 87             } while ((a = b) > 0);
 3750 0D1D 78           	ld a, b
 3751 0D1E B7           	or a
 3752 0D1F C2 17 0D     	jp nz, __l_258
 3753 0D22              __l_256:
 3754 0D22 C1           	pop bc
 3755 0D23 C9           	ret
 3756 0D24              ; 88         }
 3757 0D24              ; 89     }
 3758 0D24              ; 90 }
 3759 0D24              ; 91
 3760 0D24              ; 92 /// Выводит строку из HL с текущего положения заменяя все символы *
 3761 0D24              ; 93 /// Длиной A. Если текст короче , то добиват до A пробелами
 3762 0D24              ; 94 void printMyHLPassLenA() {
 3763 0D24              printmyhlpasslena:
 3764 0D24              ; 95     push_pop(bc) {
 3765 0D24 C5           	push bc
 3766 0D25              ; 96         b = a;
 3767 0D25 47           	ld b, a
 3768 0D26              ; 97         c = 0;
 3769 0D26 0E 00        	ld c, 0
 3770 0D28              ; 98         do {
 3771 0D28              __l_261:
 3772 0D28              ; 99             a = *hl;
 3773 0D28 7E           	ld a, (hl)
 3774 0D29              ; 100             if (a > 0) {
 3775 0D29 B7           	or a
 3776 0D2A CA 33 0D     	jp z, __l_264
 3777 0D2D              ; 101                 c++;
 3778 0D2D 0C           	inc c
 3779 0D2E              ; 102                 printMyCharA(a = '*');
 3780 0D2E 3E 2A        	ld a, 42
 3781 0D30 CD 4E 0D     	call printmychara
 3782 0D33              __l_264:
 3783 0D33              ; 103             }
 3784 0D33              ; 104             a = *hl;
 3785 0D33 7E           	ld a, (hl)
 3786 0D34              ; 105             hl++;
 3787 0D34 23           	inc hl
 3788 0D35              __l_262:
 3789 0D35              ; 106         } while (a > 0);
 3790 0D35 B7           	or a
 3791 0D36 C2 28 0D     	jp nz, __l_261
 3792 0D39              ; 107         if ((a = c) < b) {
 3793 0D39 79           	ld a, c
 3794 0D3A B8           	cp b
 3795 0D3B D2 4C 0D     	jp nc, __l_266
 3796 0D3E              ; 108             a = b;
 3797 0D3E 78           	ld a, b
 3798 0D3F              ; 109             a -= c;
 3799 0D3F 91           	sub c
 3800 0D40              ; 110             b = a;
 3801 0D40 47           	ld b, a
 3802 0D41              ; 111             do {
 3803 0D41              __l_268:
 3804 0D41              ; 112                 printMyCharA(a = ' ');
 3805 0D41 3E 20        	ld a, 32
 3806 0D43 CD 4E 0D     	call printmychara
 3807 0D46              ; 113                 b--;
 3808 0D46 05           	dec b
 3809 0D47              __l_269:
 3810 0D47              ; 114             } while ((a = b) > 0);
 3811 0D47 78           	ld a, b
 3812 0D48 B7           	or a
 3813 0D49 C2 41 0D     	jp nz, __l_268
 3814 0D4C              __l_266:
 3815 0D4C C1           	pop bc
 3816 0D4D C9           	ret
 3817 0D4E              ; 115         }
 3818 0D4E              ; 116     }
 3819 0D4E              ; 117 }
 3820 0D4E              ; 118
 3821 0D4E              ; 119 void printMyCharA() {
 3822 0D4E              printmychara:
 3823 0D4E              ; 120     push_pop(hl, bc, de) {
 3824 0D4E E5           	push hl
 3825 0D4F C5           	push bc
 3826 0D50 D5           	push de
 3827 0D51              ; 121         // Char POS
 3828 0D51              ; 122         hl = FONT_8_8_RUS;
 3829 0D51 21 6B 31     	ld hl, font_8_8_rus
 3830 0D54              ; 123         cyclic_rotate_left(a, 3);
 3831 0D54 07           	rlca
 3832 0D55 07           	rlca
 3833 0D56 07           	rlca
 3834 0D57              ; 124         b = a;
 3835 0D57 47           	ld b, a
 3836 0D58              ; 125         a &= 0x07;
 3837 0D58 E6 07        	and 7
 3838 0D5A              ; 126         a += h;
 3839 0D5A 84           	add h
 3840 0D5B              ; 127         h = a;
 3841 0D5B 67           	ld h, a
 3842 0D5C              ; 128         a ^= a;
 3843 0D5C AF           	xor a
 3844 0D5D              ; 129         a = b;
 3845 0D5D 78           	ld a, b
 3846 0D5E              ; 130         a &= 0xF8;
 3847 0D5E E6 F8        	and 248
 3848 0D60              ; 131         a += l;
 3849 0D60 85           	add l
 3850 0D61              ; 132         if (flag_c) {
 3851 0D61 D2 65 0D     	jp nc, __l_271
 3852 0D64              ; 133             h++;
 3853 0D64 24           	inc h
 3854 0D65              __l_271:
 3855 0D65              ; 134         }
 3856 0D65              ; 135         l = a;
 3857 0D65 6F           	ld l, a
 3858 0D66              ; 136         // Video POS
 3859 0D66              ; 137         //de = 0xC000;
 3860 0D66              ; 138         a = myCharPosY;
 3861 0D66 3A E4 0E     	ld a, (mycharposy)
 3862 0D69              ; 139         a &= 0x1F;
 3863 0D69 E6 1F        	and 31
 3864 0D6B              ; 140         cyclic_rotate_left(a, 3);
 3865 0D6B 07           	rlca
 3866 0D6C 07           	rlca
 3867 0D6D 07           	rlca
 3868 0D6E              ; 141         e = a;
 3869 0D6E 5F           	ld e, a
 3870 0D6F              ; 142         a = myCharPosX;
 3871 0D6F 3A E3 0E     	ld a, (mycharposx)
 3872 0D72              ; 143         a += 0xC0;
 3873 0D72 C6 C0        	add 192
 3874 0D74              ; 144         d = a;
 3875 0D74 57           	ld d, a
 3876 0D75              ; 145         //
 3877 0D75              ; 146         b = 8;
 3878 0D75 06 08        	ld b, 8
 3879 0D77              ; 147         do {
 3880 0D77              __l_273:
 3881 0D77              ; 148             a = *hl;
 3882 0D77 7E           	ld a, (hl)
 3883 0D78              ; 149             *de = a;
 3884 0D78 12           	ld (de), a
 3885 0D79              ; 150             hl++;
 3886 0D79 23           	inc hl
 3887 0D7A              ; 151             de++;
 3888 0D7A 13           	inc de
 3889 0D7B              ; 152             b--;
 3890 0D7B 05           	dec b
 3891 0D7C              __l_274:
 3892 0D7C              ; 153         } while ((a = b) > 0);
 3893 0D7C 78           	ld a, b
 3894 0D7D B7           	or a
 3895 0D7E C2 77 0D     	jp nz, __l_273
 3896 0D81              ; 154         // Inc POS
 3897 0D81              ; 155         a = myCharPosX;
 3898 0D81 3A E3 0E     	ld a, (mycharposx)
 3899 0D84              ; 156         a++;
 3900 0D84 3C           	inc a
 3901 0D85              ; 157         if (a >= 0x30) { //0x2F
 3902 0D85 FE 30        	cp 48
 3903 0D87 DA 9C 0D     	jp c, __l_276
 3904 0D8A              ; 158             a = 0;
 3905 0D8A 3E 00        	ld a, 0
 3906 0D8C              ; 159             b = a;
 3907 0D8C 47           	ld b, a
 3908 0D8D              ; 160             // Inc Y
 3909 0D8D              ; 161             a = myCharPosY;
 3910 0D8D 3A E4 0E     	ld a, (mycharposy)
 3911 0D90              ; 162             a++;
 3912 0D90 3C           	inc a
 3913 0D91              ; 163             if (a >= 0x20) { //0x1F
 3914 0D91 FE 20        	cp 32
 3915 0D93 DA 98 0D     	jp c, __l_278
 3916 0D96              ; 164                 a = 0;
 3917 0D96 3E 00        	ld a, 0
 3918 0D98              __l_278:
 3919 0D98              ; 165             }
 3920 0D98              ; 166             myCharPosY = a;
 3921 0D98 32 E4 0E     	ld (mycharposy), a
 3922 0D9B              ; 167             //
 3923 0D9B              ; 168             a = b;
 3924 0D9B 78           	ld a, b
 3925 0D9C              __l_276:
 3926 0D9C              ; 169         }
 3927 0D9C              ; 170         myCharPosX = a;
 3928 0D9C 32 E3 0E     	ld (mycharposx), a
 3929 0D9F D1           	pop de
 3930 0DA0 C1           	pop bc
 3931 0DA1 E1           	pop hl
 3932 0DA2 C9           	ret
 3933 0DA3              ; 171     }
 3934 0DA3              ; 172 }
 3935 0DA3              ; 173
 3936 0DA3              ; 174 void myCharPosXSpaceA(){
 3937 0DA3              mycharposxspacea:
 3938 0DA3              ; 175     push_pop(bc) {
 3939 0DA3 C5           	push bc
 3940 0DA4              ; 176         b = a;
 3941 0DA4 47           	ld b, a
 3942 0DA5              ; 177         a = myCharPosX;
 3943 0DA5 3A E3 0E     	ld a, (mycharposx)
 3944 0DA8              ; 178         a += b;
 3945 0DA8 80           	add b
 3946 0DA9              ; 179         myCharPosX = a;
 3947 0DA9 32 E3 0E     	ld (mycharposx), a
 3948 0DAC C1           	pop bc
 3949 0DAD C9           	ret
 3950 0DAE              ; 180     }
 3951 0DAE              ; 181 }
 3952 0DAE              ; 182
 3953 0DAE              ; 183 void myCharPosYSpaceA(){
 3954 0DAE              mycharposyspacea:
 3955 0DAE              ; 184     push_pop(bc) {
 3956 0DAE C5           	push bc
 3957 0DAF              ; 185         b = a;
 3958 0DAF 47           	ld b, a
 3959 0DB0              ; 186         a = myCharPosY;
 3960 0DB0 3A E4 0E     	ld a, (mycharposy)
 3961 0DB3              ; 187         a += b;
 3962 0DB3 80           	add b
 3963 0DB4              ; 188         myCharPosY = a;
 3964 0DB4 32 E4 0E     	ld (mycharposy), a
 3965 0DB7 C1           	pop bc
 3966 0DB8 C9           	ret
 3967 0DB9              ; 189     }
 3968 0DB9              ; 190 }
 3969 0DB9              ; 191
 3970 0DB9              ; 192 /// Вывести на экран значение A как десятичное число
 3971 0DB9              ; 193 /// A не больше 99 или 0x63
 3972 0DB9              ; 194 /// Если больше - ничего не выводит
 3973 0DB9              ; 195 void printMyAsDec99A() {
 3974 0DB9              printmyasdec99a:
 3975 0DB9              ; 196     if (a < 0x64) {
 3976 0DB9 FE 64        	cp 100
 3977 0DBB D2 F0 0D     	jp nc, __l_280
 3978 0DBE              ; 197         push_pop(bc, de) {
 3979 0DBE C5           	push bc
 3980 0DBF D5           	push de
 3981 0DC0              ; 198             b = a;
 3982 0DC0 47           	ld b, a
 3983 0DC1              ; 199             c = a;
 3984 0DC1 4F           	ld c, a
 3985 0DC2              ; 200             d = 0;
 3986 0DC2 16 00        	ld d, 0
 3987 0DC4              ; 201             e = 10;
 3988 0DC4 1E 0A        	ld e, 10
 3989 0DC6              ; 202             if ((a = b) < e) {
 3990 0DC6 78           	ld a, b
 3991 0DC7 BB           	cp e
 3992 0DC8 D2 D9 0D     	jp nc, __l_282
 3993 0DCB              ; 203                 printMyCharA(a = ' ');
 3994 0DCB 3E 20        	ld a, 32
 3995 0DCD CD 4E 0D     	call printmychara
 3996 0DD0              ; 204                 a = b;
 3997 0DD0 78           	ld a, b
 3998 0DD1              ; 205                 a += '0';
 3999 0DD1 C6 30        	add 48
 4000 0DD3              ; 206                 printMyCharA();
 4001 0DD3 CD 4E 0D     	call printmychara
 4002 0DD6 C3 EE 0D     	jp __l_283
 4003 0DD9              __l_282:
 4004 0DD9              ; 207             } else {
 4005 0DD9              ; 208                 do {
 4006 0DD9              __l_284:
 4007 0DD9              ; 209                     a = b;
 4008 0DD9 78           	ld a, b
 4009 0DDA              ; 210                     a -= e;
 4010 0DDA 93           	sub e
 4011 0DDB              ; 211                     b = a;
 4012 0DDB 47           	ld b, a
 4013 0DDC              ; 212                     d++;
 4014 0DDC 14           	inc d
 4015 0DDD              __l_285:
 4016 0DDD              ; 213                 } while ((a = b) >= e);
 4017 0DDD 78           	ld a, b
 4018 0DDE BB           	cp e
 4019 0DDF D2 D9 0D     	jp nc, __l_284
 4020 0DE2              ; 214                 a = d;
 4021 0DE2 7A           	ld a, d
 4022 0DE3              ; 215                 a += '0';
 4023 0DE3 C6 30        	add 48
 4024 0DE5              ; 216                 printMyCharA();
 4025 0DE5 CD 4E 0D     	call printmychara
 4026 0DE8              ; 217                 a = b;
 4027 0DE8 78           	ld a, b
 4028 0DE9              ; 218                 a += '0';
 4029 0DE9 C6 30        	add 48
 4030 0DEB              ; 219                 printMyCharA();
 4031 0DEB CD 4E 0D     	call printmychara
 4032 0DEE              __l_283:
 4033 0DEE D1           	pop de
 4034 0DEF C1           	pop bc
 4035 0DF0              __l_280:
 4036 0DF0 C9           	ret
 4037 0DF1              ; 220             }
 4038 0DF1              ; 221         }
 4039 0DF1              ; 222     }
 4040 0DF1              ; 223 }
 4041 0DF1              ; 224
 4042 0DF1              ; 225 /// Вывести на экран значение A как десятичное число с ведущими нулями
 4043 0DF1              ; 226 /// A не больше 99 или 0x63
 4044 0DF1              ; 227 /// Если больше - ничего не выводит
 4045 0DF1              ; 228 void printMyAs00Dec99A() {
 4046 0DF1              printmyas00dec99a:
 4047 0DF1              ; 229     if (a < 0x64) {
 4048 0DF1 FE 64        	cp 100
 4049 0DF3 D2 28 0E     	jp nc, __l_287
 4050 0DF6              ; 230         push_pop(bc, de) {
 4051 0DF6 C5           	push bc
 4052 0DF7 D5           	push de
 4053 0DF8              ; 231             b = a;
 4054 0DF8 47           	ld b, a
 4055 0DF9              ; 232             c = a;
 4056 0DF9 4F           	ld c, a
 4057 0DFA              ; 233             d = 0;
 4058 0DFA 16 00        	ld d, 0
 4059 0DFC              ; 234             e = 10;
 4060 0DFC 1E 0A        	ld e, 10
 4061 0DFE              ; 235             if ((a = b) < e) {
 4062 0DFE 78           	ld a, b
 4063 0DFF BB           	cp e
 4064 0E00 D2 11 0E     	jp nc, __l_289
 4065 0E03              ; 236                 printMyCharA(a = '0');
 4066 0E03 3E 30        	ld a, 48
 4067 0E05 CD 4E 0D     	call printmychara
 4068 0E08              ; 237                 a = b;
 4069 0E08 78           	ld a, b
 4070 0E09              ; 238                 a += '0';
 4071 0E09 C6 30        	add 48
 4072 0E0B              ; 239                 printMyCharA();
 4073 0E0B CD 4E 0D     	call printmychara
 4074 0E0E C3 26 0E     	jp __l_290
 4075 0E11              __l_289:
 4076 0E11              ; 240             } else {
 4077 0E11              ; 241                 do {
 4078 0E11              __l_291:
 4079 0E11              ; 242                     a = b;
 4080 0E11 78           	ld a, b
 4081 0E12              ; 243                     a -= e;
 4082 0E12 93           	sub e
 4083 0E13              ; 244                     b = a;
 4084 0E13 47           	ld b, a
 4085 0E14              ; 245                     d++;
 4086 0E14 14           	inc d
 4087 0E15              __l_292:
 4088 0E15              ; 246                 } while ((a = b) >= e);
 4089 0E15 78           	ld a, b
 4090 0E16 BB           	cp e
 4091 0E17 D2 11 0E     	jp nc, __l_291
 4092 0E1A              ; 247                 a = d;
 4093 0E1A 7A           	ld a, d
 4094 0E1B              ; 248                 a += '0';
 4095 0E1B C6 30        	add 48
 4096 0E1D              ; 249                 printMyCharA();
 4097 0E1D CD 4E 0D     	call printmychara
 4098 0E20              ; 250                 a = b;
 4099 0E20 78           	ld a, b
 4100 0E21              ; 251                 a += '0';
 4101 0E21 C6 30        	add 48
 4102 0E23              ; 252                 printMyCharA();
 4103 0E23 CD 4E 0D     	call printmychara
 4104 0E26              __l_290:
 4105 0E26 D1           	pop de
 4106 0E27 C1           	pop bc
 4107 0E28              __l_287:
 4108 0E28 C9           	ret
 4109 0E29              ; 253             }
 4110 0E29              ; 254         }
 4111 0E29              ; 255     }
 4112 0E29              ; 256 }
 4113 0E29              ; 257
 4114 0E29              ; 258 /// Вывести на экран значение HL как десятичное число
 4115 0E29              ; 259 /// A не больше 4095 или 0x0FFF
 4116 0E29              ; 260 /// Если больше - ничего не выводит
 4117 0E29              ; 261 void printMyAsDec4095HL() {
 4118 0E29              printmyasdec4095hl:
 4119 0E29              ; 262     push_pop(bc, de) {
 4120 0E29 C5           	push bc
 4121 0E2A D5           	push de
 4122 0E2B              ; 263         de = 0x0FFF;
 4123 0E2B 11 FF 0F     	ld de, 4095
 4124 0E2E              ; 264         compareHlDe();
 4125 0E2E CD CF 0E     	call comparehlde
 4126 0E31              ; 265         if (flag_nc) {
 4127 0E31 DA CC 0E     	jp c, __l_294
 4128 0E34              ; 266             c = 0; // Признак ведущего нуля (0 - ставить " ", а не 0)
 4129 0E34 0E 00        	ld c, 0
 4130 0E36              ; 267             //1000
 4131 0E36              ; 268             de = 0x03E8;
 4132 0E36 11 E8 03     	ld de, 1000
 4133 0E39              ; 269             compareHlDe();
 4134 0E39 CD CF 0E     	call comparehlde
 4135 0E3C              ; 270             if (flag_c) {
 4136 0E3C D2 5A 0E     	jp nc, __l_296
 4137 0E3F              ; 271                 b = 0;
 4138 0E3F 06 00        	ld b, 0
 4139 0E41              ; 272                 do {
 4140 0E41              __l_298:
 4141 0E41              ; 273                     de = 0xFC18;
 4142 0E41 11 18 FC     	ld de, 64536
 4143 0E44              ; 274                     hl += de;
 4144 0E44 19           	add hl, de
 4145 0E45              ; 275                     b++;
 4146 0E45 04           	inc b
 4147 0E46              ; 276                     de = 0x03E8;
 4148 0E46 11 E8 03     	ld de, 1000
 4149 0E49              ; 277                     compareHlDe();
 4150 0E49 CD CF 0E     	call comparehlde
 4151 0E4C              __l_299:
 4152 0E4C DA 41 0E     	jp c, __l_298
 4153 0E4F              ; 278                 } while (flag_c);
 4154 0E4F              ; 279                 a = b;
 4155 0E4F 78           	ld a, b
 4156 0E50              ; 280                 a += '0';
 4157 0E50 C6 30        	add 48
 4158 0E52              ; 281                 printMyCharA();
 4159 0E52 CD 4E 0D     	call printmychara
 4160 0E55              ; 282                 c = 1;
 4161 0E55 0E 01        	ld c, 1
 4162 0E57 C3 5F 0E     	jp __l_297
 4163 0E5A              __l_296:
 4164 0E5A              ; 283             } else {
 4165 0E5A              ; 284                 printMyCharA(a = ' ');
 4166 0E5A 3E 20        	ld a, 32
 4167 0E5C CD 4E 0D     	call printmychara
 4168 0E5F              __l_297:
 4169 0E5F              ; 285             }
 4170 0E5F              ; 286             //0100
 4171 0E5F              ; 287             de = 0x0064;
 4172 0E5F 11 64 00     	ld de, 100
 4173 0E62              ; 288             compareHlDe();
 4174 0E62 CD CF 0E     	call comparehlde
 4175 0E65              ; 289             if (flag_c) {
 4176 0E65 D2 83 0E     	jp nc, __l_301
 4177 0E68              ; 290                 b = 0;
 4178 0E68 06 00        	ld b, 0
 4179 0E6A              ; 291                 do {
 4180 0E6A              __l_303:
 4181 0E6A              ; 292                     de = 0xFF9C;
 4182 0E6A 11 9C FF     	ld de, 65436
 4183 0E6D              ; 293                     hl += de;
 4184 0E6D 19           	add hl, de
 4185 0E6E              ; 294                     b++;
 4186 0E6E 04           	inc b
 4187 0E6F              ; 295                     de = 0x0064;
 4188 0E6F 11 64 00     	ld de, 100
 4189 0E72              ; 296                     compareHlDe();
 4190 0E72 CD CF 0E     	call comparehlde
 4191 0E75              __l_304:
 4192 0E75 DA 6A 0E     	jp c, __l_303
 4193 0E78              ; 297                 } while (flag_c);
 4194 0E78              ; 298                 a = b;
 4195 0E78 78           	ld a, b
 4196 0E79              ; 299                 a += '0';
 4197 0E79 C6 30        	add 48
 4198 0E7B              ; 300                 printMyCharA();
 4199 0E7B CD 4E 0D     	call printmychara
 4200 0E7E              ; 301                 c = 1;
 4201 0E7E 0E 01        	ld c, 1
 4202 0E80 C3 95 0E     	jp __l_302
 4203 0E83              __l_301:
 4204 0E83              ; 302             } else {
 4205 0E83              ; 303                 if ((a = c) == 0) {
 4206 0E83 79           	ld a, c
 4207 0E84 B7           	or a
 4208 0E85 C2 90 0E     	jp nz, __l_306
 4209 0E88              ; 304                     printMyCharA(a = ' ');
 4210 0E88 3E 20        	ld a, 32
 4211 0E8A CD 4E 0D     	call printmychara
 4212 0E8D C3 95 0E     	jp __l_307
 4213 0E90              __l_306:
 4214 0E90              ; 305                 } else {
 4215 0E90              ; 306                     printMyCharA(a = '0');
 4216 0E90 3E 30        	ld a, 48
 4217 0E92 CD 4E 0D     	call printmychara
 4218 0E95              __l_307:
 4219 0E95              __l_302:
 4220 0E95              ; 307                 }
 4221 0E95              ; 308             }
 4222 0E95              ; 309             //0010
 4223 0E95              ; 310 //            de = 0x000A;
 4224 0E95              ; 311 //            compareHlDe();
 4225 0E95              ; 312 //            if (flag_c) {
 4226 0E95              ; 313 //                b = 0;
 4227 0E95              ; 314 //                do {
 4228 0E95              ; 315 //                    de = 0xFFF6;
 4229 0E95              ; 316 //                    hl += de;
 4230 0E95              ; 317 //                    b++;
 4231 0E95              ; 318 //                    de = 0x000A;
 4232 0E95              ; 319 //                    compareHlDe();
 4233 0E95              ; 320 //                } while (flag_c);
 4234 0E95              ; 321 //                a = b;
 4235 0E95              ; 322 //                a += '0';
 4236 0E95              ; 323 //                printMyCharA();
 4237 0E95              ; 324 //            } else {
 4238 0E95              ; 325 //                printMyCharA(a = '0');
 4239 0E95              ; 326 //            }
 4240 0E95              ; 327             a = l;
 4241 0E95 7D           	ld a, l
 4242 0E96              ; 328             if ((a = l) >= 10) {
 4243 0E96 7D           	ld a, l
 4244 0E97 FE 0A        	cp 10
 4245 0E99 DA B4 0E     	jp c, __l_308
 4246 0E9C              ; 329                 b = 0;
 4247 0E9C 06 00        	ld b, 0
 4248 0E9E              ; 330                 do {
 4249 0E9E              __l_310:
 4250 0E9E              ; 331                     a = l;
 4251 0E9E 7D           	ld a, l
 4252 0E9F              ; 332                     a -= 10;
 4253 0E9F D6 0A        	sub 10
 4254 0EA1              ; 333                     l = a;
 4255 0EA1 6F           	ld l, a
 4256 0EA2              ; 334                     b++;
 4257 0EA2 04           	inc b
 4258 0EA3              __l_311:
 4259 0EA3              ; 335                 } while ((a = l) >= 10);
 4260 0EA3 7D           	ld a, l
 4261 0EA4 FE 0A        	cp 10
 4262 0EA6 D2 9E 0E     	jp nc, __l_310
 4263 0EA9              ; 336                 a = b;
 4264 0EA9 78           	ld a, b
 4265 0EAA              ; 337                 a += '0';
 4266 0EAA C6 30        	add 48
 4267 0EAC              ; 338                 printMyCharA();
 4268 0EAC CD 4E 0D     	call printmychara
 4269 0EAF              ; 339                 c = 1;
 4270 0EAF 0E 01        	ld c, 1
 4271 0EB1 C3 C6 0E     	jp __l_309
 4272 0EB4              __l_308:
 4273 0EB4              ; 340             } else {
 4274 0EB4              ; 341                 if ((a = c) == 0) {
 4275 0EB4 79           	ld a, c
 4276 0EB5 B7           	or a
 4277 0EB6 C2 C1 0E     	jp nz, __l_313
 4278 0EB9              ; 342                     printMyCharA(a = ' ');
 4279 0EB9 3E 20        	ld a, 32
 4280 0EBB CD 4E 0D     	call printmychara
 4281 0EBE C3 C6 0E     	jp __l_314
 4282 0EC1              __l_313:
 4283 0EC1              ; 343                 } else {
 4284 0EC1              ; 344                     printMyCharA(a = '0');
 4285 0EC1 3E 30        	ld a, 48
 4286 0EC3 CD 4E 0D     	call printmychara
 4287 0EC6              __l_314:
 4288 0EC6              __l_309:
 4289 0EC6              ; 345                 }
 4290 0EC6              ; 346             }
 4291 0EC6              ; 347             //0001
 4292 0EC6              ; 348             a = l;
 4293 0EC6 7D           	ld a, l
 4294 0EC7              ; 349             a += '0';
 4295 0EC7 C6 30        	add 48
 4296 0EC9              ; 350             printMyCharA();
 4297 0EC9 CD 4E 0D     	call printmychara
 4298 0ECC              __l_294:
 4299 0ECC D1           	pop de
 4300 0ECD C1           	pop bc
 4301 0ECE C9           	ret
 4302 0ECF              ; 351         }
 4303 0ECF              ; 352     }
 4304 0ECF              ; 353 }
 4305 0ECF              ; 354
 4306 0ECF              ; 355 /// Спавнение HL и DE
 4307 0ECF              ; 356 /// CF=1 when DE < HL
 4308 0ECF              ; 357 /// CF=0 DE >= HL
 4309 0ECF              ; 358 void compareHlDe() {
 4310 0ECF              comparehlde:
 4311 0ECF              ; 359     a = d;
 4312 0ECF 7A           	ld a, d
 4313 0ED0              ; 360     a ^= h;
 4314 0ED0 AC           	xor h
 4315 0ED1              ; 361     if (flag_p) {
 4316 0ED1 FA D7 0E     	jp m, __l_315
 4317 0ED4 C3 DE 0E     	jp __l_316
 4318 0ED7              __l_315:
 4319 0ED7              ; 362     } else {
 4320 0ED7              ; 363         a ^= d;
 4321 0ED7 AA           	xor d
 4322 0ED8              ; 364         if (flag_m) {
 4323 0ED8 F2 DC 0E     	jp p, __l_317
 4324 0EDB              ; 365             return;
 4325 0EDB C9           	ret
 4326 0EDC              __l_317:
 4327 0EDC              ; 366         }
 4328 0EDC              ; 367         set_flag_c();
 4329 0EDC 37           	scf
 4330 0EDD              ; 368         return;
 4331 0EDD C9           	ret
 4332 0EDE              __l_316:
 4333 0EDE              ; 369     }
 4334 0EDE              ; 370     a = e;
 4335 0EDE 7B           	ld a, e
 4336 0EDF              ; 371     a -= l; //0x95
 4337 0EDF 95           	sub l
 4338 0EE0              ; 372     a = d;
 4339 0EE0 7A           	ld a, d
 4340 0EE1              ; 373     //a -= h; //0x9C
 4341 0EE1              ; 374     //asm{ SBB h };
 4342 0EE1              ; 375     carry_sub(a, h);
 4343 0EE1 9C           	sbc h
 4344 0EE2              ; 376     return;
 4345 0EE2 C9           	ret
 4346 0EE3              ; 377 }
 4347 0EE3              ; 378
 4348 0EE3              ; 379 uint8_t myCharPosX = 0;
 4349 0EE3              mycharposx:
 4350 0EE3 00           	db 0
 4351 0EE4              ; 380 uint8_t myCharPosY = 0;
 4352 0EE4              mycharposy:
 4353 0EE4 00           	db 0
 4354 0EE5              ; 11 void HelpViewShow() {
 4355 0EE5              helpviewshow:
 4356 0EE5              ; 12     a = HelpViewX;
 4357 0EE5 3A 30 0F     	ld a, (helpviewx)
 4358 0EE8              ; 13     h = a;
 4359 0EE8 67           	ld h, a
 4360 0EE9              ; 14     a = HelpViewY;
 4361 0EE9 3A 31 0F     	ld a, (helpviewy)
 4362 0EEC              ; 15     l = a;
 4363 0EEC 6F           	ld l, a
 4364 0EED              ; 16     a = HelpViewDX;
 4365 0EED 3A 32 0F     	ld a, (helpviewdx)
 4366 0EF0              ; 17     d = a;
 4367 0EF0 57           	ld d, a
 4368 0EF1              ; 18     a = HelpViewDY;
 4369 0EF1 3A 33 0F     	ld a, (helpviewdy)
 4370 0EF4              ; 19     e = a;
 4371 0EF4 5F           	ld e, a
 4372 0EF5              ; 20     a = HelpViewColor;
 4373 0EF5 3A 34 0F     	ld a, (helpviewcolor)
 4374 0EF8              ; 21     vboxOpenHLDE();
 4375 0EF8 CD 3C 3A     	call vboxopenhlde
 4376 0EFB              ; 22     HelpViewShowStr();
 4377 0EFB              ; 23 }
 4378 0EFB              ; 24
 4379 0EFB              ; 25 void HelpViewShowStr() {
 4380 0EFB              helpviewshowstr:
 4381 0EFB              ; 26     a = HelpViewX;
 4382 0EFB 3A 30 0F     	ld a, (helpviewx)
 4383 0EFE              ; 27     a++;
 4384 0EFE 3C           	inc a
 4385 0EFF              ; 28     myCharPosX = a;
 4386 0EFF 32 E3 0E     	ld (mycharposx), a
 4387 0F02              ; 29     a = HelpViewY;
 4388 0F02 3A 31 0F     	ld a, (helpviewy)
 4389 0F05              ; 30     a++;
 4390 0F05 3C           	inc a
 4391 0F06              ; 31     myCharPosY = a;
 4392 0F06 32 E4 0E     	ld (mycharposy), a
 4393 0F09              ; 32     printMyHLStr(hl = HelpViewTitleF1);
 4394 0F09 21 35 0F     	ld hl, helpviewtitlef1
 4395 0F0C CD ED 0C     	call printmyhlstr
 4396 0F0F              ; 33
 4397 0F0F              ; 34     myCharPosXSpaceA(a = 5);
 4398 0F0F 3E 05        	ld a, 5
 4399 0F11 CD A3 0D     	call mycharposxspacea
 4400 0F14              ; 35     printMyHLStr(hl = HelpViewTitleF2);
 4401 0F14 21 3C 0F     	ld hl, helpviewtitlef2
 4402 0F17 CD ED 0C     	call printmyhlstr
 4403 0F1A              ; 36
 4404 0F1A              ; 37     myCharPosXSpaceA(a = 5);
 4405 0F1A 3E 05        	ld a, 5
 4406 0F1C CD A3 0D     	call mycharposxspacea
 4407 0F1F              ; 38     printMyHLStr(hl = HelpViewTitleF3);
 4408 0F1F 21 46 0F     	ld hl, helpviewtitlef3
 4409 0F22 CD ED 0C     	call printmyhlstr
 4410 0F25              ; 39
 4411 0F25              ; 40     myCharPosXSpaceA(a = 5);
 4412 0F25 3E 05        	ld a, 5
 4413 0F27 CD A3 0D     	call mycharposxspacea
 4414 0F2A              ; 41     printMyHLStr(hl = HelpViewTitleF4);
 4415 0F2A 21 4F 0F     	ld hl, helpviewtitlef4
 4416 0F2D C3 ED 0C     	jp printmyhlstr
 4417 0F30              ; 42 }
 4418 0F30              ; 43
 4419 0F30              ; 44 uint8_t HelpViewX = 0;
 4420 0F30              helpviewx:
 4421 0F30 00           	db 0
 4422 0F31              ; 45 uint8_t HelpViewY = 29;
 4423 0F31              helpviewy:
 4424 0F31 1D           	db 29
 4425 0F32              ; 46 uint8_t HelpViewDX = 48;
 4426 0F32              helpviewdx:
 4427 0F32 30           	db 48
 4428 0F33              ; 47 uint8_t HelpViewDY = 3;
 4429 0F33              helpviewdy:
 4430 0F33 03           	db 3
 4431 0F34              ; 49 uint8_t HelpViewColor = 0x07;
 4432 0F34              helpviewcolor:
 4433 0F34 07           	db 7
 4434 0F35              ; 54 uint8_t HelpViewTitleF1[] = "F1: ..";
 4435 0F35              helpviewtitlef1:
 4436 0F35 46           	db 70
 4437 0F36 31           	db 49
 4438 0F37 3A           	db 58
 4439 0F38 20           	db 32
 4440 0F39 2E           	db 46
 4441 0F3A 2E           	db 46
 4442 0F3B 00           	ds 1
 4443 0F3C              ; 55 uint8_t HelpViewTitleF2[] = "F2: Wi-Fi";
 4444 0F3C              helpviewtitlef2:
 4445 0F3C 46           	db 70
 4446 0F3D 32           	db 50
 4447 0F3E 3A           	db 58
 4448 0F3F 20           	db 32
 4449 0F40 57           	db 87
 4450 0F41 69           	db 105
 4451 0F42 2D           	db 45
 4452 0F43 46           	db 70
 4453 0F44 69           	db 105
 4454 0F45 00           	ds 1
 4455 0F46              ; 56 uint8_t HelpViewTitleF3[] = "F3: FTP ";
 4456 0F46              helpviewtitlef3:
 4457 0F46 46           	db 70
 4458 0F47 33           	db 51
 4459 0F48 3A           	db 58
 4460 0F49 20           	db 32
 4461 0F4A 46           	db 70
 4462 0F4B 54           	db 84
 4463 0F4C 50           	db 80
 4464 0F4D 20           	db 32
 4465 0F4E 00           	ds 1
 4466 0F4F              ; 57 uint8_t HelpViewTitleF4[] = "F4: Quit";
 4467 0F4F              helpviewtitlef4:
 4468 0F4F 46           	db 70
 4469 0F50 34           	db 52
 4470 0F51 3A           	db 58
 4471 0F52 20           	db 32
 4472 0F53 51           	db 81
 4473 0F54 75           	db 117
 4474 0F55 69           	db 105
 4475 0F56 74           	db 116
 4476 0F57 00           	ds 1
 4477 0F58              ; 11 void CurrentViewChangeAndPushIdA() {
 4478 0F58              currentviewchangeandpushida:
 4479 0F58              ; 12     push_pop(bc) {
 4480 0F58 C5           	push bc
 4481 0F59              ; 13         b = a;
 4482 0F59 47           	ld b, a
 4483 0F5A              ; 14         // Save old Id
 4484 0F5A              ; 15         CurrentViewPushCurrentId();
 4485 0F5A CD 1B 10     	call currentviewpushcurrentid
 4486 0F5D              ; 16         //
 4487 0F5D              ; 17         a = b;
 4488 0F5D 78           	ld a, b
 4489 0F5E              ; 18         CurrentViewSetIdA();
 4490 0F5E CD 6B 0F     	call currentviewsetida
 4491 0F61 C1           	pop bc
 4492 0F62 C9           	ret
 4493 0F63              ; 19     }
 4494 0F63              ; 20 }
 4495 0F63              ; 21
 4496 0F63              ; 22 void CurrentViewChangeIdA() {
 4497 0F63              currentviewchangeida:
 4498 0F63              ; 23     push_pop(bc) {
 4499 0F63 C5           	push bc
 4500 0F64              ; 24         b = a;
 4501 0F64 47           	ld b, a
 4502 0F65              ; 25         // Save new
 4503 0F65              ; 26         a = b;
 4504 0F65 78           	ld a, b
 4505 0F66              ; 27         CurrentViewSetIdA();
 4506 0F66 CD 6B 0F     	call currentviewsetida
 4507 0F69 C1           	pop bc
 4508 0F6A C9           	ret
 4509 0F6B              ; 28     }
 4510 0F6B              ; 29 }
 4511 0F6B              ; 30
 4512 0F6B              ; 31 void CurrentViewSetIdA() {
 4513 0F6B              currentviewsetida:
 4514 0F6B              ; 32     CurrentViewId = a;
 4515 0F6B 32 8F 10     	ld (currentviewid), a
 4516 0F6E              ; 33
 4517 0F6E              ; 34     if ((a = CurrentViewReturnIdPos) == 0) {
 4518 0F6E 3A 8E 10     	ld a, (currentviewreturnidpos)
 4519 0F71 B7           	or a
 4520 0F72 C2 1A 10     	jp nz, __l_319
 4521 0F75              ; 35         if ((a = CurrentViewId) == DiskViewId) {
 4522 0F75 3A 8F 10     	ld a, (currentviewid)
 4523 0F78 FE 01        	cp 1
 4524 0F7A C2 8A 0F     	jp nz, __l_321
 4525 0F7D              ; 36             FtpViewShowSelectLineA(a = 0);
 4526 0F7D 3E 00        	ld a, 0
 4527 0F7F CD 69 22     	call ftpviewshowselectlinea
 4528 0F82              ; 37             DiskViewShowSelectLineA(a = 1);
 4529 0F82 3E 01        	ld a, 1
 4530 0F84 CD 18 1A     	call diskviewshowselectlinea
 4531 0F87 C3 1A 10     	jp __l_322
 4532 0F8A              __l_321:
 4533 0F8A              ; 38         } else if ((a = CurrentViewId) == FtpViewId) {
 4534 0F8A 3A 8F 10     	ld a, (currentviewid)
 4535 0F8D FE 02        	cp 2
 4536 0F8F C2 9F 0F     	jp nz, __l_323
 4537 0F92              ; 39             FtpViewShowSelectLineA(a = 1);
 4538 0F92 3E 01        	ld a, 1
 4539 0F94 CD 69 22     	call ftpviewshowselectlinea
 4540 0F97              ; 40             DiskViewShowSelectLineA(a = 0);
 4541 0F97 3E 00        	ld a, 0
 4542 0F99 CD 18 1A     	call diskviewshowselectlinea
 4543 0F9C C3 1A 10     	jp __l_324
 4544 0F9F              __l_323:
 4545 0F9F              ; 41         } else if ((a = CurrentViewId) == SelectDiskViewId) {
 4546 0F9F 3A 8F 10     	ld a, (currentviewid)
 4547 0FA2 FE 03        	cp 3
 4548 0FA4 C2 B4 0F     	jp nz, __l_325
 4549 0FA7              ; 42             FtpViewShowSelectLineA(a = 0);
 4550 0FA7 3E 00        	ld a, 0
 4551 0FA9 CD 69 22     	call ftpviewshowselectlinea
 4552 0FAC              ; 43             DiskViewShowSelectLineA(a = 0);
 4553 0FAC 3E 00        	ld a, 0
 4554 0FAE CD 18 1A     	call diskviewshowselectlinea
 4555 0FB1 C3 1A 10     	jp __l_326
 4556 0FB4              __l_325:
 4557 0FB4              ; 44         } else if ((a = CurrentViewId) == LoadViewId) {
 4558 0FB4 3A 8F 10     	ld a, (currentviewid)
 4559 0FB7 FE 04        	cp 4
 4560 0FB9 C2 C9 0F     	jp nz, __l_327
 4561 0FBC              ; 45             FtpViewShowSelectLineA(a = 0);
 4562 0FBC 3E 00        	ld a, 0
 4563 0FBE CD 69 22     	call ftpviewshowselectlinea
 4564 0FC1              ; 46             DiskViewShowSelectLineA(a = 0);
 4565 0FC1 3E 00        	ld a, 0
 4566 0FC3 CD 18 1A     	call diskviewshowselectlinea
 4567 0FC6 C3 1A 10     	jp __l_328
 4568 0FC9              __l_327:
 4569 0FC9              ; 47         } else if ((a = CurrentViewId) == WiFiSettingsViewId) {
 4570 0FC9 3A 8F 10     	ld a, (currentviewid)
 4571 0FCC FE 05        	cp 5
 4572 0FCE C2 DE 0F     	jp nz, __l_329
 4573 0FD1              ; 48             FtpViewShowSelectLineA(a = 0);
 4574 0FD1 3E 00        	ld a, 0
 4575 0FD3 CD 69 22     	call ftpviewshowselectlinea
 4576 0FD6              ; 49             DiskViewShowSelectLineA(a = 0);
 4577 0FD6 3E 00        	ld a, 0
 4578 0FD8 CD 18 1A     	call diskviewshowselectlinea
 4579 0FDB C3 1A 10     	jp __l_330
 4580 0FDE              __l_329:
 4581 0FDE              ; 50         } else if ((a = CurrentViewId) == FtpSettingsViewId) {
 4582 0FDE 3A 8F 10     	ld a, (currentviewid)
 4583 0FE1 FE 08        	cp 8
 4584 0FE3 C2 F3 0F     	jp nz, __l_331
 4585 0FE6              ; 51             FtpViewShowSelectLineA(a = 0);
 4586 0FE6 3E 00        	ld a, 0
 4587 0FE8 CD 69 22     	call ftpviewshowselectlinea
 4588 0FEB              ; 52             DiskViewShowSelectLineA(a = 0);
 4589 0FEB 3E 00        	ld a, 0
 4590 0FED CD 18 1A     	call diskviewshowselectlinea
 4591 0FF0 C3 1A 10     	jp __l_332
 4592 0FF3              __l_331:
 4593 0FF3              ; 53         } else if ((a = CurrentViewId) == FtpMakeDirectoryId) {
 4594 0FF3 3A 8F 10     	ld a, (currentviewid)
 4595 0FF6 FE 0B        	cp 11
 4596 0FF8 C2 08 10     	jp nz, __l_333
 4597 0FFB              ; 54             FtpViewShowSelectLineA(a = 0);
 4598 0FFB 3E 00        	ld a, 0
 4599 0FFD CD 69 22     	call ftpviewshowselectlinea
 4600 1000              ; 55             DiskViewShowSelectLineA(a = 0);
 4601 1000 3E 00        	ld a, 0
 4602 1002 CD 18 1A     	call diskviewshowselectlinea
 4603 1005 C3 1A 10     	jp __l_334
 4604 1008              __l_333:
 4605 1008              ; 56         } else if ((a = CurrentViewId) == HelpInfoViewId) {
 4606 1008 3A 8F 10     	ld a, (currentviewid)
 4607 100B FE 0C        	cp 12
 4608 100D C2 1A 10     	jp nz, __l_335
 4609 1010              ; 57             FtpViewShowSelectLineA(a = 0);
 4610 1010 3E 00        	ld a, 0
 4611 1012 CD 69 22     	call ftpviewshowselectlinea
 4612 1015              ; 58             DiskViewShowSelectLineA(a = 0);
 4613 1015 3E 00        	ld a, 0
 4614 1017 CD 18 1A     	call diskviewshowselectlinea
 4615 101A              __l_335:
 4616 101A              __l_334:
 4617 101A              __l_332:
 4618 101A              __l_330:
 4619 101A              __l_328:
 4620 101A              __l_326:
 4621 101A              __l_324:
 4622 101A              __l_322:
 4623 101A              __l_319:
 4624 101A C9           	ret
 4625 101B              ; 59         }
 4626 101B              ; 60     }
 4627 101B              ; 61 }
 4628 101B              ; 62
 4629 101B              ; 63 void CurrentViewPushCurrentId() {
 4630 101B              currentviewpushcurrentid:
 4631 101B              ; 64     push_pop(de, hl) {
 4632 101B D5           	push de
 4633 101C E5           	push hl
 4634 101D              ; 65         hl = CurrentViewReturnIds;
 4635 101D 21 7E 10     	ld hl, currentviewreturnids
 4636 1020              ; 66         // Add delta
 4637 1020              ; 67         d = 0;
 4638 1020 16 00        	ld d, 0
 4639 1022              ; 68         a = CurrentViewReturnIdPos;
 4640 1022 3A 8E 10     	ld a, (currentviewreturnidpos)
 4641 1025              ; 69         e = a;
 4642 1025 5F           	ld e, a
 4643 1026              ; 70         a++;
 4644 1026 3C           	inc a
 4645 1027              ; 71         CurrentViewReturnIdPos = a;
 4646 1027 32 8E 10     	ld (currentviewreturnidpos), a
 4647 102A              ; 72         hl += de;
 4648 102A 19           	add hl, de
 4649 102B              ; 73         // Save current ID
 4650 102B              ; 74         a = CurrentViewId;
 4651 102B 3A 8F 10     	ld a, (currentviewid)
 4652 102E              ; 75         *hl = a;
 4653 102E 77           	ld (hl), a
 4654 102F E1           	pop hl
 4655 1030 D1           	pop de
 4656 1031 C9           	ret
 4657 1032              ; 76     }
 4658 1032              ; 77 }
 4659 1032              ; 78
 4660 1032              ; 79 // Return A - ID
 4661 1032              ; 80 void CurrentViewPopId() {
 4662 1032              currentviewpopid:
 4663 1032              ; 81     if ((a = CurrentViewReturnIdPos) > 0) {
 4664 1032 3A 8E 10     	ld a, (currentviewreturnidpos)
 4665 1035 B7           	or a
 4666 1036 CA 4B 10     	jp z, __l_337
 4667 1039              ; 82         // Decriment
 4668 1039              ; 83         a = CurrentViewReturnIdPos;
 4669 1039 3A 8E 10     	ld a, (currentviewreturnidpos)
 4670 103C              ; 84         a--;
 4671 103C 3D           	dec a
 4672 103D              ; 85         CurrentViewReturnIdPos = a;
 4673 103D 32 8E 10     	ld (currentviewreturnidpos), a
 4674 1040              ; 86         //--
 4675 1040              ; 87         e = a;
 4676 1040 5F           	ld e, a
 4677 1041              ; 88         d = 0;
 4678 1041 16 00        	ld d, 0
 4679 1043              ; 89         hl = CurrentViewReturnIds;
 4680 1043 21 7E 10     	ld hl, currentviewreturnids
 4681 1046              ; 90         hl += de;
 4682 1046 19           	add hl, de
 4683 1047              ; 91         a = *hl;
 4684 1047 7E           	ld a, (hl)
 4685 1048 C3 4E 10     	jp __l_338
 4686 104B              __l_337:
 4687 104B              ; 92     } else {
 4688 104B              ; 93         a = CurrentViewId;
 4689 104B 3A 8F 10     	ld a, (currentviewid)
 4690 104E              __l_338:
 4691 104E C9           	ret
 4692 104F              ; 94     }
 4693 104F              ; 95 }
 4694 104F              ; 96
 4695 104F              ; 97 void CurrentViewReturn() {
 4696 104F              currentviewreturn:
 4697 104F              ; 98     CurrentViewPopId();
 4698 104F CD 32 10     	call currentviewpopid
 4699 1052              ; 99     CurrentViewChangeIdA();
 4700 1052 C3 63 0F     	jp currentviewchangeida
 4701 1055              ; 100 }
 4702 1055              ; 101
 4703 1055              ; 102 /// вых [A] 1 - если активное окно DiskView или FtpView
 4704 1055              ; 103 /// 0 - если любое другое
 4705 1055              ; 104 void CurrentViewDiskOrFtpViewByIdA() {
 4706 1055              currentviewdiskorftpviewbyida:
 4707 1055              ; 105     push_pop(bc) {
 4708 1055 C5           	push bc
 4709 1056              ; 106         b = a;
 4710 1056 47           	ld b, a
 4711 1057              ; 107         if ((a = b) == DiskViewId) {
 4712 1057 78           	ld a, b
 4713 1058 FE 01        	cp 1
 4714 105A C2 65 10     	jp nz, __l_339
 4715 105D              ; 108             a = 1;
 4716 105D 3E 01        	ld a, 1
 4717 105F              ; 109             CurrentViewDiskOrFtpViewFocus = a;
 4718 105F 32 7D 10     	ld (currentviewdiskorftpviewfocus), a
 4719 1062 C3 78 10     	jp __l_340
 4720 1065              __l_339:
 4721 1065              ; 110         } else if ((a = b) == FtpViewId) {
 4722 1065 78           	ld a, b
 4723 1066 FE 02        	cp 2
 4724 1068 C2 73 10     	jp nz, __l_341
 4725 106B              ; 111             a = 1;
 4726 106B 3E 01        	ld a, 1
 4727 106D              ; 112             CurrentViewDiskOrFtpViewFocus = a;
 4728 106D 32 7D 10     	ld (currentviewdiskorftpviewfocus), a
 4729 1070 C3 78 10     	jp __l_342
 4730 1073              __l_341:
 4731 1073              ; 113         } else {
 4732 1073              ; 114             a = 0;
 4733 1073 3E 00        	ld a, 0
 4734 1075              ; 115             CurrentViewDiskOrFtpViewFocus = a;
 4735 1075 32 7D 10     	ld (currentviewdiskorftpviewfocus), a
 4736 1078              __l_342:
 4737 1078              __l_340:
 4738 1078 C1           	pop bc
 4739 1079              ; 116         }
 4740 1079              ; 117     }
 4741 1079              ; 118     a =  CurrentViewDiskOrFtpViewFocus;
 4742 1079 3A 7D 10     	ld a, (currentviewdiskorftpviewfocus)
 4743 107C C9           	ret
 4744 107D              ; 119 }
 4745 107D              ; 120
 4746 107D              ; 121 uint8_t CurrentViewDiskOrFtpViewFocus = 0;
 4747 107D              currentviewdiskorftpviewfocus:
 4748 107D 00           	db 0
 4749 107E              ; 123 uint8_t CurrentViewReturnIds[16];
 4750 107E              currentviewreturnids:
 4751 107E 00 00 00...  	ds 16
 4752 108E              ; 124 uint8_t CurrentViewReturnIdPos = 0;
 4753 108E              currentviewreturnidpos:
 4754 108E 00           	db 0
 4755 108F              ; 125 uint8_t CurrentViewId = FtpViewId;
 4756 108F              currentviewid:
 4757 108F 02           	db 2
 4758 1090              ; 126 uint8_t FtpNetStateChange = 0;
 4759 1090              ftpnetstatechange:
 4760 1090 00           	db 0
 4761 1091              ; 127 uint8_t WiFiNetStateChange = 0;
 4762 1091              wifinetstatechange:
 4763 1091 00           	db 0
 4764 1092              ; 11 uint8_t StringLocaleOK[] = "Ok";
 4765 1092              stringlocaleok:
 4766 1092 4F           	db 79
 4767 1093 6B           	db 107
 4768 1094 00           	ds 1
 4769 1095              ; 12 uint8_t StringLocaleYes[] = "Yes";
 4770 1095              stringlocaleyes:
 4771 1095 59           	db 89
 4772 1096 65           	db 101
 4773 1097 73           	db 115
 4774 1098 00           	ds 1
 4775 1099              ; 13 uint8_t StringLocaleNo[] = "No";
 4776 1099              stringlocaleno:
 4777 1099 4E           	db 78
 4778 109A 6F           	db 111
 4779 109B 00           	ds 1
 4780 109C              ; 14 uint8_t StringLocaleEraseFile[] = "Erase file";
 4781 109C              stringlocaleerasefile:
 4782 109C 45           	db 69
 4783 109D 72           	db 114
 4784 109E 61           	db 97
 4785 109F 73           	db 115
 4786 10A0 65           	db 101
 4787 10A1 20           	db 32
 4788 10A2 66           	db 102
 4789 10A3 69           	db 105
 4790 10A4 6C           	db 108
 4791 10A5 65           	db 101
 4792 10A6 00           	ds 1
 4793 10A7              ; 15 uint8_t StringLocaleFileNotFound[] = "File not found";
 4794 10A7              stringlocalefilenotfound:
 4795 10A7 46           	db 70
 4796 10A8 69           	db 105
 4797 10A9 6C           	db 108
 4798 10AA 65           	db 101
 4799 10AB 20           	db 32
 4800 10AC 6E           	db 110
 4801 10AD 6F           	db 111
 4802 10AE 74           	db 116
 4803 10AF 20           	db 32
 4804 10B0 66           	db 102
 4805 10B1 6F           	db 111
 4806 10B2 75           	db 117
 4807 10B3 6E           	db 110
 4808 10B4 64           	db 100
 4809 10B5 00           	ds 1
 4810 10B6              ; 16 uint8_t StringLocaleFileReadOnly[] = "File read-only";
 4811 10B6              stringlocalefilereadonly:
 4812 10B6 46           	db 70
 4813 10B7 69           	db 105
 4814 10B8 6C           	db 108
 4815 10B9 65           	db 101
 4816 10BA 20           	db 32
 4817 10BB 72           	db 114
 4818 10BC 65           	db 101
 4819 10BD 61           	db 97
 4820 10BE 64           	db 100
 4821 10BF 2D           	db 45
 4822 10C0 6F           	db 111
 4823 10C1 6E           	db 110
 4824 10C2 6C           	db 108
 4825 10C3 79           	db 121
 4826 10C4 00           	ds 1
 4827 10C5              ; 17 uint8_t StringLocaleNetTimeOut[] = "Net timeout";
 4828 10C5              stringlocalenettimeout:
 4829 10C5 4E           	db 78
 4830 10C6 65           	db 101
 4831 10C7 74           	db 116
 4832 10C8 20           	db 32
 4833 10C9 74           	db 116
 4834 10CA 69           	db 105
 4835 10CB 6D           	db 109
 4836 10CC 65           	db 101
 4837 10CD 6F           	db 111
 4838 10CE 75           	db 117
 4839 10CF 74           	db 116
 4840 10D0 00           	ds 1
 4841 10D1              ; 19 uint8_t StringLocaleNetFtpDeleteFileError[] = "FTP file not delete";
 4842 10D1              stringlocalenetftpdeletefileerro:
 4843 10D1 46           	db 70
 4844 10D2 54           	db 84
 4845 10D3 50           	db 80
 4846 10D4 20           	db 32
 4847 10D5 66           	db 102
 4848 10D6 69           	db 105
 4849 10D7 6C           	db 108
 4850 10D8 65           	db 101
 4851 10D9 20           	db 32
 4852 10DA 6E           	db 110
 4853 10DB 6F           	db 111
 4854 10DC 74           	db 116
 4855 10DD 20           	db 32
 4856 10DE 64           	db 100
 4857 10DF 65           	db 101
 4858 10E0 6C           	db 108
 4859 10E1 65           	db 101
 4860 10E2 74           	db 116
 4861 10E3 65           	db 101
 4862 10E4 00           	ds 1
 4863 10E5              ; 20 uint8_t StringLocaleNetFtpConnectError[] = "FTP connect error";
 4864 10E5              stringlocalenetftpconnecterror:
 4865 10E5 46           	db 70
 4866 10E6 54           	db 84
 4867 10E7 50           	db 80
 4868 10E8 20           	db 32
 4869 10E9 63           	db 99
 4870 10EA 6F           	db 111
 4871 10EB 6E           	db 110
 4872 10EC 6E           	db 110
 4873 10ED 65           	db 101
 4874 10EE 63           	db 99
 4875 10EF 74           	db 116
 4876 10F0 20           	db 32
 4877 10F1 65           	db 101
 4878 10F2 72           	db 114
 4879 10F3 72           	db 114
 4880 10F4 6F           	db 111
 4881 10F5 72           	db 114
 4882 10F6 00           	ds 1
 4883 10F7              ; 21 uint8_t StringLocaleNetWiFiConnectError[] = "WiFi connect error";
 4884 10F7              stringlocalenetwificonnecterror:
 4885 10F7 57           	db 87
 4886 10F8 69           	db 105
 4887 10F9 46           	db 70
 4888 10FA 69           	db 105
 4889 10FB 20           	db 32
 4890 10FC 63           	db 99
 4891 10FD 6F           	db 111
 4892 10FE 6E           	db 110
 4893 10FF 6E           	db 110
 4894 1100 65           	db 101
 4895 1101 63           	db 99
 4896 1102 74           	db 116
 4897 1103 20           	db 32
 4898 1104 65           	db 101
 4899 1105 72           	db 114
 4900 1106 72           	db 114
 4901 1107 6F           	db 111
 4902 1108 72           	db 114
 4903 1109 00           	ds 1
 4904 110A              ; 22 uint8_t StringLocaleDiskFull[] = "Disk full";
 4905 110A              stringlocalediskfull:
 4906 110A 44           	db 68
 4907 110B 69           	db 105
 4908 110C 73           	db 115
 4909 110D 6B           	db 107
 4910 110E 20           	db 32
 4911 110F 66           	db 102
 4912 1110 75           	db 117
 4913 1111 6C           	db 108
 4914 1112 6C           	db 108
 4915 1113 00           	ds 1
 4916 1114              ; 23 uint8_t StringLocaleDiskFormat[] = "Format the disk?";
 4917 1114              stringlocalediskformat:
 4918 1114 46           	db 70
 4919 1115 6F           	db 111
 4920 1116 72           	db 114
 4921 1117 6D           	db 109
 4922 1118 61           	db 97
 4923 1119 74           	db 116
 4924 111A 20           	db 32
 4925 111B 74           	db 116
 4926 111C 68           	db 104
 4927 111D 65           	db 101
 4928 111E 20           	db 32
 4929 111F 64           	db 100
 4930 1120 69           	db 105
 4931 1121 73           	db 115
 4932 1122 6B           	db 107
 4933 1123 3F           	db 63
 4934 1124 00           	ds 1
 4935 1125              ; 14 void ButtonShadowViewShow() {
 4936 1125              buttonshadowviewshow:
 4937 1125              ; 15     push_pop(hl) {
 4938 1125 E5           	push hl
 4939 1126              ; 16         h = b;
 4940 1126 60           	ld h, b
 4941 1127              ; 17         l = c;
 4942 1127 69           	ld l, c
 4943 1128              ; 18         ButtonShadowViewTitlePoint = hl;
 4944 1128 22 C3 11     	ld (buttonshadowviewtitlepoint), hl
 4945 112B E1           	pop hl
 4946 112C              ; 19     }
 4947 112C              ; 20     //- SAVE -
 4948 112C              ; 21     a = h;
 4949 112C 7C           	ld a, h
 4950 112D              ; 22     ButtonShadowViewX = a;
 4951 112D 32 BD 11     	ld (buttonshadowviewx), a
 4952 1130              ; 23     //printHexA(a = ButtonShadowViewX);
 4953 1130              ; 24     a = l;
 4954 1130 7D           	ld a, l
 4955 1131              ; 25     ButtonShadowViewY = a;
 4956 1131 32 BE 11     	ld (buttonshadowviewy), a
 4957 1134              ; 26     //printHexA(a = ButtonShadowViewY);
 4958 1134              ; 27     a = d;
 4959 1134 7A           	ld a, d
 4960 1135              ; 28     ButtonShadowViewDX = a;
 4961 1135 32 BF 11     	ld (buttonshadowviewdx), a
 4962 1138              ; 29     //printHexA(a = ButtonShadowViewDX);
 4963 1138              ; 30     a = e;
 4964 1138 7B           	ld a, e
 4965 1139              ; 31     ButtonShadowViewDY = a;
 4966 1139 32 C0 11     	ld (buttonshadowviewdy), a
 4967 113C              ; 32     //printHexA(a = ButtonShadowViewDY);
 4968 113C              ; 33     //--
 4969 113C              ; 34     a = ButtonShadowViewColor;
 4970 113C 3A C1 11     	ld a, (buttonshadowviewcolor)
 4971 113F              ; 35     c = a;
 4972 113F 4F           	ld c, a
 4973 1140              ; 36     a = vboxCLW;
 4974 1140 3E 40        	ld a, 64
 4975 1142              ; 37     a |= vboxFRM;
 4976 1142 F6 20        	or 32
 4977 1144              ; 38     a |= vboxSDW;
 4978 1144 F6 10        	or 16
 4979 1146              ; 39     a |= vboxUMP;
 4980 1146 F6 04        	or 4
 4981 1148              ; 40     vboxOpenHLDECA();
 4982 1148 CD 6D 39     	call vboxopenhldeca
 4983 114B              ; 41     //
 4984 114B              ; 42     ButtonShadowViewShowTitleBC();
 4985 114B C3 7C 11     	jp buttonshadowviewshowtitlebc
 4986 114E              ; 43 }
 4987 114E              ; 44
 4988 114E              ; 45 /// Закраска кнопки
 4989 114E              ; 46 /// 0 - прямой
 4990 114E              ; 47 /// 1 - инверсный
 4991 114E              ; 48 void ButtonShadowViewSelectA() {
 4992 114E              buttonshadowviewselecta:
 4993 114E              ; 49     push_pop(bc, de, hl) {
 4994 114E C5           	push bc
 4995 114F D5           	push de
 4996 1150 E5           	push hl
 4997 1151              ; 50         b = a;
 4998 1151 47           	ld b, a
 4999 1152              ; 51         a = ButtonShadowViewX;
 5000 1152 3A BD 11     	ld a, (buttonshadowviewx)
 5001 1155              ; 52         h = a;
 5002 1155 67           	ld h, a
 5003 1156              ; 53         a = ButtonShadowViewY;
 5004 1156 3A BE 11     	ld a, (buttonshadowviewy)
 5005 1159              ; 54         l = a;
 5006 1159 6F           	ld l, a
 5007 115A              ; 55         a = ButtonShadowViewDX;
 5008 115A 3A BF 11     	ld a, (buttonshadowviewdx)
 5009 115D              ; 56         d = a;
 5010 115D 57           	ld d, a
 5011 115E              ; 57         a = ButtonShadowViewDY;
 5012 115E 3A C0 11     	ld a, (buttonshadowviewdy)
 5013 1161              ; 58         e = a;
 5014 1161 5F           	ld e, a
 5015 1162              ; 59         //--------
 5016 1162              ; 60         if ((a = b) == 0) {
 5017 1162 78           	ld a, b
 5018 1163 B7           	or a
 5019 1164 C2 6D 11     	jp nz, __l_343
 5020 1167              ; 61             a = ButtonShadowViewColor;
 5021 1167 3A C1 11     	ld a, (buttonshadowviewcolor)
 5022 116A C3 70 11     	jp __l_344
 5023 116D              __l_343:
 5024 116D              ; 62         } else {
 5025 116D              ; 63             a = ButtonShadowViewInvColor;
 5026 116D 3A C2 11     	ld a, (buttonshadowviewinvcolor)
 5027 1170              __l_344:
 5028 1170              ; 64         }
 5029 1170              ; 65         c = a;
 5030 1170 4F           	ld c, a
 5031 1171              ; 66         //----
 5032 1171              ; 67         a = vboxFRM;
 5033 1171 3E 20        	ld a, 32
 5034 1173              ; 68         a |= vboxUMP;
 5035 1173 F6 04        	or 4
 5036 1175              ; 69         vboxOpenHLDECA();
 5037 1175 CD 6D 39     	call vboxopenhldeca
 5038 1178 E1           	pop hl
 5039 1179 D1           	pop de
 5040 117A C1           	pop bc
 5041 117B C9           	ret
 5042 117C              ; 70     }
 5043 117C              ; 71 }
 5044 117C              ; 72
 5045 117C              ; 73 void ButtonShadowViewShowTitleBC() {
 5046 117C              buttonshadowviewshowtitlebc:
 5047 117C              ; 74     push_pop(hl, de, bc) {
 5048 117C E5           	push hl
 5049 117D D5           	push de
 5050 117E C5           	push bc
 5051 117F              ; 75         hl = ButtonShadowViewTitlePoint;
 5052 117F 2A C3 11     	ld hl, (buttonshadowviewtitlepoint)
 5053 1182              ; 76         b = 0;
 5054 1182 06 00        	ld b, 0
 5055 1184              ; 77         a = ButtonShadowViewDX;
 5056 1184 3A BF 11     	ld a, (buttonshadowviewdx)
 5057 1187              ; 78         c = a;
 5058 1187 4F           	ld c, a
 5059 1188              ; 79         do {
 5060 1188              __l_345:
 5061 1188              ; 80             a = *hl;
 5062 1188 7E           	ld a, (hl)
 5063 1189              ; 81             d = a;
 5064 1189 57           	ld d, a
 5065 118A              ; 82             hl++;
 5066 118A 23           	inc hl
 5067 118B              ; 83             if (a > 0) {
 5068 118B B7           	or a
 5069 118C CA 90 11     	jp z, __l_348
 5070 118F              ; 84                 b++;
 5071 118F 04           	inc b
 5072 1190              __l_348:
 5073 1190              ; 85             }
 5074 1190              ; 86             if ((a = b) >= c) {
 5075 1190 78           	ld a, b
 5076 1191 B9           	cp c
 5077 1192 DA 97 11     	jp c, __l_350
 5078 1195              ; 87                 d = 0;
 5079 1195 16 00        	ld d, 0
 5080 1197              __l_350:
 5081 1197              __l_346:
 5082 1197              ; 88             }
 5083 1197              ; 89         } while ((a = d) > 0);
 5084 1197 7A           	ld a, d
 5085 1198 B7           	or a
 5086 1199 C2 88 11     	jp nz, __l_345
 5087 119C              ; 90         a = ButtonShadowViewDX;
 5088 119C 3A BF 11     	ld a, (buttonshadowviewdx)
 5089 119F              ; 91         a -= b;
 5090 119F 90           	sub b
 5091 11A0              ; 92         a &= 0xFE;
 5092 11A0 E6 FE        	and 254
 5093 11A2              ; 93         cyclic_rotate_right(a, 1);
 5094 11A2 0F           	rrca
 5095 11A3              ; 94         b = a;
 5096 11A3 47           	ld b, a
 5097 11A4              ; 95         a = ButtonShadowViewX;
 5098 11A4 3A BD 11     	ld a, (buttonshadowviewx)
 5099 11A7              ; 96         a += b;
 5100 11A7 80           	add b
 5101 11A8              ; 97         myCharPosX = a;
 5102 11A8 32 E3 0E     	ld (mycharposx), a
 5103 11AB              ; 98         a = ButtonShadowViewY;
 5104 11AB 3A BE 11     	ld a, (buttonshadowviewy)
 5105 11AE              ; 99         a += 1;
 5106 11AE C6 01        	add 1
 5107 11B0              ; 100         myCharPosY = a;
 5108 11B0 32 E4 0E     	ld (mycharposy), a
 5109 11B3              ; 101         printMyHLStr(hl = ButtonShadowViewTitlePoint);
 5110 11B3 2A C3 11     	ld hl, (buttonshadowviewtitlepoint)
 5111 11B6 CD ED 0C     	call printmyhlstr
 5112 11B9 C1           	pop bc
 5113 11BA D1           	pop de
 5114 11BB E1           	pop hl
 5115 11BC C9           	ret
 5116 11BD              ; 102     }
 5117 11BD              ; 103 }
 5118 11BD              ; 104
 5119 11BD              ; 105 uint8_t ButtonShadowViewX = 0;
 5120 11BD              buttonshadowviewx:
 5121 11BD 00           	db 0
 5122 11BE              ; 106 uint8_t ButtonShadowViewY = 0;
 5123 11BE              buttonshadowviewy:
 5124 11BE 00           	db 0
 5125 11BF              ; 107 uint8_t ButtonShadowViewDX = 0;
 5126 11BF              buttonshadowviewdx:
 5127 11BF 00           	db 0
 5128 11C0              ; 108 uint8_t ButtonShadowViewDY = 0;
 5129 11C0              buttonshadowviewdy:
 5130 11C0 00           	db 0
 5131 11C1              ; 110 uint8_t ButtonShadowViewColor = 0xF7;
 5132 11C1              buttonshadowviewcolor:
 5133 11C1 F7           	db 247
 5134 11C2              ; 111 uint8_t ButtonShadowViewInvColor = 0xE2; //0xE6
 5135 11C2              buttonshadowviewinvcolor:
 5136 11C2 E2           	db 226
 5137 11C3              ; 113 uint16_t ButtonShadowViewTitlePoint = 0x0000;
 5138 11C3              buttonshadowviewtitlepoint:
 5139 11C3 00 00        	dw 0
 5140 11C5              ; 14 void EditFieldViewShow() {
 5141 11C5              editfieldviewshow:
 5142 11C5              ; 15     CurrentViewChangeAndPushIdA(a = EditFieldViewId);
 5143 11C5 3E 06        	ld a, 6
 5144 11C7 CD 58 0F     	call currentviewchangeandpushida
 5145 11CA              ; 16     //-- clear
 5146 11CA              ; 17     a = 0;
 5147 11CA 3E 00        	ld a, 0
 5148 11CC              ; 18     EditFieldViewTextIsChanged = a;
 5149 11CC 32 1A 13     	ld (editfieldviewtextischanged), a
 5150 11CF              ; 19     //-- Save
 5151 11CF              ; 20     a = h;
 5152 11CF 7C           	ld a, h
 5153 11D0              ; 21     EditFieldViewX = a;
 5154 11D0 32 02 13     	ld (editfieldviewx), a
 5155 11D3              ; 22     a = l;
 5156 11D3 7D           	ld a, l
 5157 11D4              ; 23     EditFieldViewY = a;
 5158 11D4 32 03 13     	ld (editfieldviewy), a
 5159 11D7              ; 24     a = d;
 5160 11D7 7A           	ld a, d
 5161 11D8              ; 25     EditFieldViewDX = a;
 5162 11D8 32 04 13     	ld (editfieldviewdx), a
 5163 11DB              ; 26     a = e;
 5164 11DB 7B           	ld a, e
 5165 11DC              ; 27     EditFieldViewDY = a;
 5166 11DC 32 05 13     	ld (editfieldviewdy), a
 5167 11DF              ; 28     //--
 5168 11DF              ; 29     push_pop(bc) {
 5169 11DF C5           	push bc
 5170 11E0              ; 30         a = EditFieldViewColor;
 5171 11E0 3A 06 13     	ld a, (editfieldviewcolor)
 5172 11E3              ; 31         c = a;
 5173 11E3 4F           	ld c, a
 5174 11E4              ; 32         // A
 5175 11E4              ; 33         a = vboxCLW
 5176 11E4 3E 40        	ld a, 64
 5177 11E6              ; 34         a |= vboxSAV
 5178 11E6 F6 08        	or 8
 5179 11E8              ; 35         a |= vboxUMP;
 5180 11E8 F6 04        	or 4
 5181 11EA              ; 36         vboxOpenHLDECA();
 5182 11EA CD 6D 39     	call vboxopenhldeca
 5183 11ED C1           	pop bc
 5184 11EE              ; 37     }
 5185 11EE              ; 38     // Save text point
 5186 11EE              ; 39     h = b;
 5187 11EE 60           	ld h, b
 5188 11EF              ; 40     l = c;
 5189 11EF 69           	ld l, c
 5190 11F0              ; 41     EditFieldViewTextPoint = hl;
 5191 11F0 22 07 13     	ld (editfieldviewtextpoint), hl
 5192 11F3              ; 42     //-- Copy text to edit
 5193 11F3              ; 43     EditFieldViewTextCopy();
 5194 11F3 CD AE 12     	call editfieldviewtextcopy
 5195 11F6              ; 44     //--
 5196 11F6              ; 45     EditFieldViewShowTextValue();
 5197 11F6 CD 74 12     	call editfieldviewshowtextvalue
 5198 11F9              ; 46     //--
 5199 11F9              ; 47     EditFieldViewLoopKey();
 5200 11F9 C3 06 12     	jp editfieldviewloopkey
 5201 11FC              ; 48 }
 5202 11FC              ; 49
 5203 11FC              ; 50 void EditFieldViewClose() {
 5204 11FC              editfieldviewclose:
 5205 11FC              ; 51     vboxClose();
 5206 11FC CD 86 3A     	call vboxclose
 5207 11FF              ; 52     CurrentViewReturn();
 5208 11FF CD 4F 10     	call currentviewreturn
 5209 1202              ; 53     a = EditFieldViewTextIsChanged;
 5210 1202 3A 1A 13     	ld a, (editfieldviewtextischanged)
 5211 1205 C9           	ret
 5212 1206              ; 54 }
 5213 1206              ; 55
 5214 1206              ; 56 void EditFieldViewLoopKey() {
 5215 1206              editfieldviewloopkey:
 5216 1206              ; 57     push_pop(bc, de) {
 5217 1206 C5           	push bc
 5218 1207 D5           	push de
 5219 1208              ; 58         b = 0;
 5220 1208 06 00        	ld b, 0
 5221 120A              ; 59         do {
 5222 120A              __l_352:
 5223 120A              ; 60             getKeyboardCharA();
 5224 120A CD 03 F8     	call getkeyboardchara
 5225 120D              ; 61             c = a;
 5226 120D 4F           	ld c, a
 5227 120E              ; 62             if ((a = c) == 0x1B) { //ESC выход
 5228 120E 79           	ld a, c
 5229 120F FE 1B        	cp 27
 5230 1211 C2 19 12     	jp nz, __l_355
 5231 1214              ; 63                 b = 1;
 5232 1214 06 01        	ld b, 1
 5233 1216 C3 6A 12     	jp __l_356
 5234 1219              __l_355:
 5235 1219              ; 64             } else if ((a = c) == 0x7F) { //Забой... (удаление символа)
 5236 1219 79           	ld a, c
 5237 121A FE 7F        	cp 127
 5238 121C C2 30 12     	jp nz, __l_357
 5239 121F              ; 65                 a = EditFieldViewEditTextPos;
 5240 121F 3A 19 13     	ld a, (editfieldviewedittextpos)
 5241 1222              ; 66                 if (a > 0) {
 5242 1222 B7           	or a
 5243 1223 CA 2A 12     	jp z, __l_359
 5244 1226              ; 67                     a--;
 5245 1226 3D           	dec a
 5246 1227              ; 68                     EditFieldViewEditTextPos = a;
 5247 1227 32 19 13     	ld (editfieldviewedittextpos), a
 5248 122A              __l_359:
 5249 122A              ; 69                 }
 5250 122A              ; 70                 EditFieldViewShowTextValue();
 5251 122A CD 74 12     	call editfieldviewshowtextvalue
 5252 122D C3 6A 12     	jp __l_358
 5253 1230              __l_357:
 5254 1230              ; 71             } else if ((a = c) == 0x0D) { // Сохранить и выйти из редактирования
 5255 1230 79           	ld a, c
 5256 1231 FE 0D        	cp 13
 5257 1233 C2 43 12     	jp nz, __l_361
 5258 1236              ; 72                 a = 1;
 5259 1236 3E 01        	ld a, 1
 5260 1238              ; 73                 EditFieldViewTextIsChanged = a;
 5261 1238 32 1A 13     	ld (editfieldviewtextischanged), a
 5262 123B              ; 74                 EditFieldViewTextSave();
 5263 123B CD D7 12     	call editfieldviewtextsave
 5264 123E              ; 75                 b = 1;
 5265 123E 06 01        	ld b, 1
 5266 1240 C3 6A 12     	jp __l_362
 5267 1243              __l_361:
 5268 1243              ; 76             } else if ((a = c) < 0x20) { // ничего не делаем
 5269 1243 79           	ld a, c
 5270 1244 FE 20        	cp 32
 5271 1246 D2 4C 12     	jp nc, __l_363
 5272 1249 C3 6A 12     	jp __l_364
 5273 124C              __l_363:
 5274 124C              ; 77
 5275 124C              ; 78             } else {
 5276 124C              ; 79                 a = EditFieldViewEditTextPos;
 5277 124C 3A 19 13     	ld a, (editfieldviewedittextpos)
 5278 124F              ; 80                 if (a < 15) {
 5279 124F FE 0F        	cp 15
 5280 1251 D2 6A 12     	jp nc, __l_365
 5281 1254              ; 81                     d = 0;
 5282 1254 16 00        	ld d, 0
 5283 1256              ; 82                     e = a;
 5284 1256 5F           	ld e, a
 5285 1257              ; 83                     hl = EditFieldViewEditText;
 5286 1257 21 09 13     	ld hl, editfieldviewedittext
 5287 125A              ; 84                     hl += de;
 5288 125A 19           	add hl, de
 5289 125B              ; 85                     a = c;
 5290 125B 79           	ld a, c
 5291 125C              ; 86                     convertKeyToMyFontA(); // перевести данные
 5292 125C CD 1B 13     	call convertkeytomyfonta
 5293 125F              ; 87                     *hl = a;
 5294 125F 77           	ld (hl), a
 5295 1260              ; 88                     //--
 5296 1260              ; 89                     a = EditFieldViewEditTextPos;
 5297 1260 3A 19 13     	ld a, (editfieldviewedittextpos)
 5298 1263              ; 90                     a++;
 5299 1263 3C           	inc a
 5300 1264              ; 91                     EditFieldViewEditTextPos = a;
 5301 1264 32 19 13     	ld (editfieldviewedittextpos), a
 5302 1267              ; 92                     //--
 5303 1267              ; 93                     EditFieldViewShowTextValue();
 5304 1267 CD 74 12     	call editfieldviewshowtextvalue
 5305 126A              __l_365:
 5306 126A              __l_364:
 5307 126A              __l_362:
 5308 126A              __l_358:
 5309 126A              __l_356:
 5310 126A              __l_353:
 5311 126A              ; 94                 }
 5312 126A              ; 95             }
 5313 126A              ; 96         } while ((a = b) == 0);
 5314 126A 78           	ld a, b
 5315 126B B7           	or a
 5316 126C CA 0A 12     	jp z, __l_352
 5317 126F D1           	pop de
 5318 1270 C1           	pop bc
 5319 1271              ; 97     }
 5320 1271              ; 98     EditFieldViewClose();
 5321 1271 C3 FC 11     	jp editfieldviewclose
 5322 1274              ; 99 }
 5323 1274              ; 100
 5324 1274              ; 101 void EditFieldViewShowTextValue() {
 5325 1274              editfieldviewshowtextvalue:
 5326 1274              ; 102     push_pop(bc, hl) {
 5327 1274 C5           	push bc
 5328 1275 E5           	push hl
 5329 1276              ; 103         //-- POS
 5330 1276              ; 104         a = EditFieldViewX;
 5331 1276 3A 02 13     	ld a, (editfieldviewx)
 5332 1279              ; 105         a += 1;
 5333 1279 C6 01        	add 1
 5334 127B              ; 106         myCharPosX = a;
 5335 127B 32 E3 0E     	ld (mycharposx), a
 5336 127E              ; 107         a = EditFieldViewY;
 5337 127E 3A 03 13     	ld a, (editfieldviewy)
 5338 1281              ; 108         myCharPosY = a;
 5339 1281 32 E4 0E     	ld (mycharposy), a
 5340 1284              ; 109         //--
 5341 1284              ; 110         a = EditFieldViewEditTextPos;
 5342 1284 3A 19 13     	ld a, (editfieldviewedittextpos)
 5343 1287              ; 111         b = a;
 5344 1287 47           	ld b, a
 5345 1288              ; 112         c = a;
 5346 1288 4F           	ld c, a
 5347 1289              ; 113         hl = EditFieldViewEditText;
 5348 1289 21 09 13     	ld hl, editfieldviewedittext
 5349 128C              ; 114         if ((a = b) > 0) {
 5350 128C 78           	ld a, b
 5351 128D B7           	or a
 5352 128E CA 9C 12     	jp z, __l_367
 5353 1291              ; 115             do {
 5354 1291              __l_369:
 5355 1291              ; 116                 printMyCharA(a = *hl);
 5356 1291 7E           	ld a, (hl)
 5357 1292 CD 4E 0D     	call printmychara
 5358 1295              ; 117                 hl++;
 5359 1295 23           	inc hl
 5360 1296              ; 118                 c--;
 5361 1296 0D           	dec c
 5362 1297              __l_370:
 5363 1297              ; 119             } while ((a = c) > 0);
 5364 1297 79           	ld a, c
 5365 1298 B7           	or a
 5366 1299 C2 91 12     	jp nz, __l_369
 5367 129C              __l_367:
 5368 129C              ; 120         }
 5369 129C              ; 121         // Clear
 5370 129C              ; 122         a = 16; // Max char array
 5371 129C 3E 10        	ld a, 16
 5372 129E              ; 123         a -= b;
 5373 129E 90           	sub b
 5374 129F              ; 124         c = a;
 5375 129F 4F           	ld c, a
 5376 12A0              ; 125         do {
 5377 12A0              __l_372:
 5378 12A0              ; 126             printMyCharA(a = ' ');
 5379 12A0 3E 20        	ld a, 32
 5380 12A2 CD 4E 0D     	call printmychara
 5381 12A5              ; 127             c--;
 5382 12A5 0D           	dec c
 5383 12A6              __l_373:
 5384 12A6              ; 128         } while ((a = c) > 0);
 5385 12A6 79           	ld a, c
 5386 12A7 B7           	or a
 5387 12A8 C2 A0 12     	jp nz, __l_372
 5388 12AB E1           	pop hl
 5389 12AC C1           	pop bc
 5390 12AD C9           	ret
 5391 12AE              ; 129
 5392 12AE              ; 130     }
 5393 12AE              ; 131 }
 5394 12AE              ; 132
 5395 12AE              ; 133 void EditFieldViewTextCopy() {
 5396 12AE              editfieldviewtextcopy:
 5397 12AE              ; 134     push_pop(bc, de, hl) {
 5398 12AE C5           	push bc
 5399 12AF D5           	push de
 5400 12B0 E5           	push hl
 5401 12B1              ; 135         hl = EditFieldViewTextPoint;
 5402 12B1 2A 07 13     	ld hl, (editfieldviewtextpoint)
 5403 12B4              ; 136         de = EditFieldViewEditText;
 5404 12B4 11 09 13     	ld de, editfieldviewedittext
 5405 12B7              ; 137         c = 1;
 5406 12B7 0E 01        	ld c, 1
 5407 12B9              ; 138         b = 0;
 5408 12B9 06 00        	ld b, 0
 5409 12BB              ; 139         do {
 5410 12BB              __l_375:
 5411 12BB              ; 140             a = *hl;
 5412 12BB 7E           	ld a, (hl)
 5413 12BC              ; 141             if (a > 0) {
 5414 12BC B7           	or a
 5415 12BD CA C7 12     	jp z, __l_378
 5416 12C0              ; 142                 b++;
 5417 12C0 04           	inc b
 5418 12C1              ; 143                 *de = a;
 5419 12C1 12           	ld (de), a
 5420 12C2              ; 144                 hl++;
 5421 12C2 23           	inc hl
 5422 12C3              ; 145                 de++;
 5423 12C3 13           	inc de
 5424 12C4 C3 CD 12     	jp __l_379
 5425 12C7              __l_378:
 5426 12C7              ; 146             } else {
 5427 12C7              ; 147                 a = b;
 5428 12C7 78           	ld a, b
 5429 12C8              ; 148                 EditFieldViewEditTextPos = a;
 5430 12C8 32 19 13     	ld (editfieldviewedittextpos), a
 5431 12CB              ; 149                 c = 0;
 5432 12CB 0E 00        	ld c, 0
 5433 12CD              __l_379:
 5434 12CD              __l_376:
 5435 12CD              ; 150             }
 5436 12CD              ; 151         } while ((a = c) == 1);
 5437 12CD 79           	ld a, c
 5438 12CE FE 01        	cp 1
 5439 12D0 CA BB 12     	jp z, __l_375
 5440 12D3 E1           	pop hl
 5441 12D4 D1           	pop de
 5442 12D5 C1           	pop bc
 5443 12D6 C9           	ret
 5444 12D7              ; 152     }
 5445 12D7              ; 153 }
 5446 12D7              ; 154
 5447 12D7              ; 155 void EditFieldViewTextSave() {
 5448 12D7              editfieldviewtextsave:
 5449 12D7              ; 156     a = EditFieldViewEditTextPos;
 5450 12D7 3A 19 13     	ld a, (editfieldviewedittextpos)
 5451 12DA              ; 157     if (a == 0) {
 5452 12DA B7           	or a
 5453 12DB C2 E8 12     	jp nz, __l_380
 5454 12DE              ; 158         push_pop(hl) {
 5455 12DE E5           	push hl
 5456 12DF              ; 159             hl = EditFieldViewTextPoint;
 5457 12DF 2A 07 13     	ld hl, (editfieldviewtextpoint)
 5458 12E2              ; 160             *hl = 0;
 5459 12E2 36 00        	ld (hl), 0
 5460 12E4 E1           	pop hl
 5461 12E5 C3 01 13     	jp __l_381
 5462 12E8              __l_380:
 5463 12E8              ; 161         }
 5464 12E8              ; 162     } else {
 5465 12E8              ; 163         push_pop(bc, de, hl) {
 5466 12E8 C5           	push bc
 5467 12E9 D5           	push de
 5468 12EA E5           	push hl
 5469 12EB              ; 164             b = a;
 5470 12EB 47           	ld b, a
 5471 12EC              ; 165             de = EditFieldViewEditText;
 5472 12EC 11 09 13     	ld de, editfieldviewedittext
 5473 12EF              ; 166             hl = EditFieldViewTextPoint;
 5474 12EF 2A 07 13     	ld hl, (editfieldviewtextpoint)
 5475 12F2              ; 167             do {
 5476 12F2              __l_382:
 5477 12F2              ; 168                 a = *de;
 5478 12F2 1A           	ld a, (de)
 5479 12F3              ; 169                 *hl = a;
 5480 12F3 77           	ld (hl), a
 5481 12F4              ; 170                 hl++;
 5482 12F4 23           	inc hl
 5483 12F5              ; 171                 de++;
 5484 12F5 13           	inc de
 5485 12F6              ; 172                 b--;
 5486 12F6 05           	dec b
 5487 12F7              __l_383:
 5488 12F7              ; 173             } while ((a = b) > 0);
 5489 12F7 78           	ld a, b
 5490 12F8 B7           	or a
 5491 12F9 C2 F2 12     	jp nz, __l_382
 5492 12FC              ; 174             *hl = 0;
 5493 12FC 36 00        	ld (hl), 0
 5494 12FE E1           	pop hl
 5495 12FF D1           	pop de
 5496 1300 C1           	pop bc
 5497 1301              __l_381:
 5498 1301 C9           	ret
 5499 1302              ; 175         }
 5500 1302              ; 176     }
 5501 1302              ; 177 }
 5502 1302              ; 178
 5503 1302              ; 179 uint8_t EditFieldViewX = 0;
 5504 1302              editfieldviewx:
 5505 1302 00           	db 0
 5506 1303              ; 180 uint8_t EditFieldViewY = 0;
 5507 1303              editfieldviewy:
 5508 1303 00           	db 0
 5509 1304              ; 181 uint8_t EditFieldViewDX = 0;
 5510 1304              editfieldviewdx:
 5511 1304 00           	db 0
 5512 1305              ; 182 uint8_t EditFieldViewDY = 0;
 5513 1305              editfieldviewdy:
 5514 1305 00           	db 0
 5515 1306              ; 183 uint8_t EditFieldViewColor = 0xA0; //0xF0;
 5516 1306              editfieldviewcolor:
 5517 1306 A0           	db 160
 5518 1307              ; 185 uint16_t EditFieldViewTextPoint = 0;
 5519 1307              editfieldviewtextpoint:
 5520 1307 00 00        	dw 0
 5521 1309              ; 186 uint8_t EditFieldViewEditText[16];
 5522 1309              editfieldviewedittext:
 5523 1309 00 00 00...  	ds 16
 5524 1319              ; 187 uint8_t EditFieldViewEditTextPos = 0;
 5525 1319              editfieldviewedittextpos:
 5526 1319 00           	db 0
 5527 131A              ; 189 uint8_t EditFieldViewTextIsChanged = 0;
 5528 131A              editfieldviewtextischanged:
 5529 131A 00           	db 0
 5530 131B              ; 11 void convertKeyToMyFontA() {
 5531 131B              convertkeytomyfonta:
 5532 131B              ; 12     push_pop(bc) {
 5533 131B C5           	push bc
 5534 131C              ; 13         b = a;
 5535 131C 47           	ld b, a
 5536 131D              ; 14         c = a;
 5537 131D 4F           	ld c, a
 5538 131E              ; 15         if ((a = keyRusAddress) == 0) { //0 лат
 5539 131E 3A E5 F3     	ld a, (keyrusaddress)
 5540 1321 B7           	or a
 5541 1322 C2 48 13     	jp nz, __l_385
 5542 1325              ; 16             // Меняем заглавные на маленькие
 5543 1325              ; 17             if ((a = b) >= 0x41) {
 5544 1325 78           	ld a, b
 5545 1326 FE 41        	cp 65
 5546 1328 DA 35 13     	jp c, __l_387
 5547 132B              ; 18                 if ((a = b) < 0x5B) {
 5548 132B 78           	ld a, b
 5549 132C FE 5B        	cp 91
 5550 132E D2 35 13     	jp nc, __l_389
 5551 1331              ; 19                     a = b;
 5552 1331 78           	ld a, b
 5553 1332              ; 20                     a += 0x20;
 5554 1332 C6 20        	add 32
 5555 1334              ; 21                     c = a;
 5556 1334 4F           	ld c, a
 5557 1335              __l_389:
 5558 1335              __l_387:
 5559 1335              ; 22                 }
 5560 1335              ; 23             }
 5561 1335              ; 24             // Меняем маленькие на заглавные
 5562 1335              ; 25             if ((a = b) >= 0x61) {
 5563 1335 78           	ld a, b
 5564 1336 FE 61        	cp 97
 5565 1338 DA 45 13     	jp c, __l_391
 5566 133B              ; 26                 if ((a = b) < 0x7B) {
 5567 133B 78           	ld a, b
 5568 133C FE 7B        	cp 123
 5569 133E D2 45 13     	jp nc, __l_393
 5570 1341              ; 27                     a = b;
 5571 1341 78           	ld a, b
 5572 1342              ; 28                     a -= 0x20;
 5573 1342 D6 20        	sub 32
 5574 1344              ; 29                     c = a;
 5575 1344 4F           	ld c, a
 5576 1345              __l_393:
 5577 1345              __l_391:
 5578 1345 C3 E7 13     	jp __l_386
 5579 1348              __l_385:
 5580 1348              ; 30                 }
 5581 1348              ; 31             }
 5582 1348              ; 32         } else if ((a = keyRusAddress) == 0xFF) { // rus
 5583 1348 3A E5 F3     	ld a, (keyrusaddress)
 5584 134B FE FF        	cp 255
 5585 134D C2 E7 13     	jp nz, __l_395
 5586 1350              ; 33             // Меняем заглавные английские на заглавные русские
 5587 1350              ; 34             if ((a = b) >= 0x41) {
 5588 1350 78           	ld a, b
 5589 1351 FE 41        	cp 65
 5590 1353 DA 65 13     	jp c, __l_397
 5591 1356              ; 35                 if ((a = b) < 0x5B) {
 5592 1356 78           	ld a, b
 5593 1357 FE 5B        	cp 91
 5594 1359 D2 65 13     	jp nc, __l_399
 5595 135C              ; 36                     a = b;
 5596 135C 78           	ld a, b
 5597 135D              ; 37                     a += 0x3F;
 5598 135D C6 3F        	add 63
 5599 135F              ; 38                     c = a;
 5600 135F 4F           	ld c, a
 5601 1360              ; 39                     KeyboardConverRusCharC(a = 1);
 5602 1360 3E 01        	ld a, 1
 5603 1362 CD 04 14     	call keyboardconverruscharc
 5604 1365              __l_399:
 5605 1365              __l_397:
 5606 1365              ; 40                 }
 5607 1365              ; 41             }
 5608 1365              ; 42             // Меняем маленькие английские на маленькие русские
 5609 1365              ; 43             if ((a = b) >= 0x61) {
 5610 1365 78           	ld a, b
 5611 1366 FE 61        	cp 97
 5612 1368 DA 84 13     	jp c, __l_401
 5613 136B              ; 44                 if ((a = b) < 0x7B) {
 5614 136B 78           	ld a, b
 5615 136C FE 7B        	cp 123
 5616 136E D2 84 13     	jp nc, __l_403
 5617 1371              ; 45                     a = b;
 5618 1371 78           	ld a, b
 5619 1372              ; 46                     a += 0x3F;
 5620 1372 C6 3F        	add 63
 5621 1374              ; 47                     c = a;
 5622 1374 4F           	ld c, a
 5623 1375              ; 48                     //
 5624 1375              ; 49                     KeyboardConverRusCharC(a = 0);
 5625 1375 3E 00        	ld a, 0
 5626 1377 CD 04 14     	call keyboardconverruscharc
 5627 137A              ; 50                     // если больше "п" то + 30
 5628 137A              ; 51                     if ((a = c) >= 0xB0) {
 5629 137A 79           	ld a, c
 5630 137B FE B0        	cp 176
 5631 137D DA 84 13     	jp c, __l_405
 5632 1380              ; 52                         a = c;
 5633 1380 79           	ld a, c
 5634 1381              ; 53                         a += 0x30;
 5635 1381 C6 30        	add 48
 5636 1383              ; 54                         c = a;
 5637 1383 4F           	ld c, a
 5638 1384              __l_405:
 5639 1384              __l_403:
 5640 1384              __l_401:
 5641 1384              ; 55                     }
 5642 1384              ; 56                 }
 5643 1384              ; 57             }
 5644 1384              ; 58             // Ю
 5645 1384              ; 59             d = 0x40;
 5646 1384 16 40        	ld d, 64
 5647 1386              ; 60             e = 0x60;
 5648 1386 1E 60        	ld e, 96
 5649 1388              ; 61             KeyboardBOrDOrE();
 5650 1388 CD EA 13     	call keyboardbordore
 5651 138B              ; 62             if (a == 1) {
 5652 138B FE 01        	cp 1
 5653 138D C2 94 13     	jp nz, __l_407
 5654 1390              ; 63                 a = b;
 5655 1390 78           	ld a, b
 5656 1391              ; 64                 a += 0x5E;
 5657 1391 C6 5E        	add 94
 5658 1393              ; 65                 c = a;
 5659 1393 4F           	ld c, a
 5660 1394              __l_407:
 5661 1394              ; 66             }
 5662 1394              ; 67             // Э
 5663 1394              ; 68             d = 0x5C;
 5664 1394 16 5C        	ld d, 92
 5665 1396              ; 69             e = 0x7C;
 5666 1396 1E 7C        	ld e, 124
 5667 1398              ; 70             KeyboardBOrDOrE();
 5668 1398 CD EA 13     	call keyboardbordore
 5669 139B              ; 71             if (a == 1) {
 5670 139B FE 01        	cp 1
 5671 139D C2 A4 13     	jp nz, __l_409
 5672 13A0              ; 72                 a = b;
 5673 13A0 78           	ld a, b
 5674 13A1              ; 73                 a += 0x41;
 5675 13A1 C6 41        	add 65
 5676 13A3              ; 74                 c = a;
 5677 13A3 4F           	ld c, a
 5678 13A4              __l_409:
 5679 13A4              ; 75             }
 5680 13A4              ; 76             // Ч
 5681 13A4              ; 77             d = 0x5E;
 5682 13A4 16 5E        	ld d, 94
 5683 13A6              ; 78             e = 0x7E;
 5684 13A6 1E 7E        	ld e, 126
 5685 13A8              ; 79             KeyboardBOrDOrE();
 5686 13A8 CD EA 13     	call keyboardbordore
 5687 13AB              ; 80             if (a == 1) {
 5688 13AB FE 01        	cp 1
 5689 13AD C2 B4 13     	jp nz, __l_411
 5690 13B0              ; 81                 a = b;
 5691 13B0 78           	ld a, b
 5692 13B1              ; 82                 a += 0x39;
 5693 13B1 C6 39        	add 57
 5694 13B3              ; 83                 c = a;
 5695 13B3 4F           	ld c, a
 5696 13B4              __l_411:
 5697 13B4              ; 84             }
 5698 13B4              ; 85             // Ш
 5699 13B4              ; 86             d = 0x5B;
 5700 13B4 16 5B        	ld d, 91
 5701 13B6              ; 87             e = 0x7B;
 5702 13B6 1E 7B        	ld e, 123
 5703 13B8              ; 88             KeyboardBOrDOrE();
 5704 13B8 CD EA 13     	call keyboardbordore
 5705 13BB              ; 89             if (a == 1) {
 5706 13BB FE 01        	cp 1
 5707 13BD C2 C4 13     	jp nz, __l_413
 5708 13C0              ; 90                 a = b;
 5709 13C0 78           	ld a, b
 5710 13C1              ; 91                 a += 0x3D;
 5711 13C1 C6 3D        	add 61
 5712 13C3              ; 92                 c = a;
 5713 13C3 4F           	ld c, a
 5714 13C4              __l_413:
 5715 13C4              ; 93             }
 5716 13C4              ; 94             // Щ
 5717 13C4              ; 95             d = 0x5D;
 5718 13C4 16 5D        	ld d, 93
 5719 13C6              ; 96             e = 0x7D;
 5720 13C6 1E 7D        	ld e, 125
 5721 13C8              ; 97             KeyboardBOrDOrE();
 5722 13C8 CD EA 13     	call keyboardbordore
 5723 13CB              ; 98             if (a == 1) {
 5724 13CB FE 01        	cp 1
 5725 13CD C2 D4 13     	jp nz, __l_415
 5726 13D0              ; 99                 a = b;
 5727 13D0 78           	ld a, b
 5728 13D1              ; 100                 a += 0x3C;
 5729 13D1 C6 3C        	add 60
 5730 13D3              ; 101                 c = a;
 5731 13D3 4F           	ld c, a
 5732 13D4              __l_415:
 5733 13D4              ; 102             }
 5734 13D4              ; 103             if ((a = c) >= 0xB0) {
 5735 13D4 79           	ld a, c
 5736 13D5 FE B0        	cp 176
 5737 13D7 DA E4 13     	jp c, __l_417
 5738 13DA              ; 104                 if ((a = c) < 0xC0) {
 5739 13DA 79           	ld a, c
 5740 13DB FE C0        	cp 192
 5741 13DD D2 E4 13     	jp nc, __l_419
 5742 13E0              ; 105                     a = c;
 5743 13E0 79           	ld a, c
 5744 13E1              ; 106                     a += 0x30;
 5745 13E1 C6 30        	add 48
 5746 13E3              ; 107                     c = a;
 5747 13E3 4F           	ld c, a
 5748 13E4              __l_419:
 5749 13E4              __l_417:
 5750 13E4 C3 E7 13     	jp __l_396
 5751 13E7              __l_395:
 5752 13E7              ; 108                 }
 5753 13E7              ; 109             }
 5754 13E7              ; 110         } else {
 5755 13E7              __l_396:
 5756 13E7              __l_386:
 5757 13E7              ; 111
 5758 13E7              ; 112         }
 5759 13E7              ; 113         a = c;
 5760 13E7 79           	ld a, c
 5761 13E8 C1           	pop bc
 5762 13E9 C9           	ret
 5763 13EA              ; 114     }
 5764 13EA              ; 115 }
 5765 13EA              ; 116
 5766 13EA              ; 117 void KeyboardBOrDOrE() {
 5767 13EA              keyboardbordore:
 5768 13EA              ; 118     push_pop(hl) {
 5769 13EA E5           	push hl
 5770 13EB              ; 119         if ((a = b) == d) {
 5771 13EB 78           	ld a, b
 5772 13EC BA           	cp d
 5773 13ED C2 F5 13     	jp nz, __l_421
 5774 13F0              ; 120             h = 1;
 5775 13F0 26 01        	ld h, 1
 5776 13F2 C3 01 14     	jp __l_422
 5777 13F5              __l_421:
 5778 13F5              ; 121         } else if ((a = b) == e) {
 5779 13F5 78           	ld a, b
 5780 13F6 BB           	cp e
 5781 13F7 C2 FF 13     	jp nz, __l_423
 5782 13FA              ; 122             h = 1;
 5783 13FA 26 01        	ld h, 1
 5784 13FC C3 01 14     	jp __l_424
 5785 13FF              __l_423:
 5786 13FF              ; 123         } else {
 5787 13FF              ; 124             h = 0;
 5788 13FF 26 00        	ld h, 0
 5789 1401              __l_424:
 5790 1401              __l_422:
 5791 1401              ; 125         }
 5792 1401              ; 126         a = h;
 5793 1401 7C           	ld a, h
 5794 1402 E1           	pop hl
 5795 1403 C9           	ret
 5796 1404              ; 127     }
 5797 1404              ; 128 }
 5798 1404              ; 129
 5799 1404              ; 130 /// A - 0 происная, 1 - заглавная
 5800 1404              ; 131 /// C - Символ
 5801 1404              ; 132 void KeyboardConverRusCharC() {
 5802 1404              keyboardconverruscharc:
 5803 1404              ; 133     push_pop(hl, de) {
 5804 1404 E5           	push hl
 5805 1405 D5           	push de
 5806 1406              ; 134         if (a == 0) {
 5807 1406 B7           	or a
 5808 1407 C2 11 14     	jp nz, __l_425
 5809 140A              ; 135             a = c;
 5810 140A 79           	ld a, c
 5811 140B              ; 136             a -= 0xA0;
 5812 140B D6 A0        	sub 160
 5813 140D              ; 137             e = a;
 5814 140D 5F           	ld e, a
 5815 140E C3 15 14     	jp __l_426
 5816 1411              __l_425:
 5817 1411              ; 138         } else {
 5818 1411              ; 139             a = c;
 5819 1411 79           	ld a, c
 5820 1412              ; 140             a -= 0x80;
 5821 1412 D6 80        	sub 128
 5822 1414              ; 141             e = a;
 5823 1414 5F           	ld e, a
 5824 1415              __l_426:
 5825 1415              ; 142         }
 5826 1415              ; 143         d = 0;
 5827 1415 16 00        	ld d, 0
 5828 1417              ; 144         hl = KeyboardRusCharConver;
 5829 1417 21 21 14     	ld hl, keyboardruscharconver
 5830 141A              ; 145         hl += de;
 5831 141A 19           	add hl, de
 5832 141B              ; 146         a = *hl;
 5833 141B 7E           	ld a, (hl)
 5834 141C              ; 147         a += c;
 5835 141C 81           	add c
 5836 141D              ; 148         c = a;
 5837 141D 4F           	ld c, a
 5838 141E D1           	pop de
 5839 141F E1           	pop hl
 5840 1420 C9           	ret
 5841 1421              ; 149     }
 5842 1421              ; 150 }
 5843 1421              ; 151
 5844 1421              ; 152 uint8_t KeyboardRusCharConver[32] = {
 5845 1421              keyboardruscharconver:
 5846 1421 00           	db 0
 5847 1422 00           	db 0
 5848 1423 14           	db 20
 5849 1424 01           	db 1
 5850 1425 01           	db 1
 5851 1426 0F           	db 15
 5852 1427 FD           	db 253
 5853 1428 0E           	db 14
 5854 1429 00           	db 0
 5855 142A 00           	db 0
 5856 142B 00           	db 0
 5857 142C 00           	db 0
 5858 142D 00           	db 0
 5859 142E 00           	db 0
 5860 142F 00           	db 0
 5861 1430 00           	db 0
 5862 1431 0F           	db 15
 5863 1432 FF           	db 255
 5864 1433 FF           	db 255
 5865 1434 FF           	db 255
 5866 1435 FF           	db 255
 5867 1436 F1           	db 241
 5868 1437 EC           	db 236
 5869 1438 05           	db 5
 5870 1439 03           	db 3
 5871 143A ED           	db 237
 5872 143B 00           	db 0
 5873 143C 00           	db 0
 5874 143D 00           	db 0
 5875 143E 00           	db 0
 5876 143F 00           	db 0
 5877 1440 00           	db 0
 5878 1441              ; 11 void ThreadsTickNow() {
 5879 1441              threadsticknow:
 5880 1441              ; 12     a = 101;
 5881 1441 3E 65        	ld a, 101
 5882 1443              ; 13     ThreadsTickCount = a;
 5883 1443 32 C8 15     	ld (threadstickcount), a
 5884 1446 C9           	ret
 5885 1447              ; 14 }
 5886 1447              ; 15
 5887 1447              ; 16 void ThreadsTick() {
 5888 1447              threadstick:
 5889 1447              ; 17     #ifdef _IS_SIMULATOR
 5890 1447              ; 18
 5891 1447              ; 19     #else
 5892 1447              ; 20     if ((a = ThreadsTickCount) >= 50) { //50
 5893 1447 3A C8 15     	ld a, (threadstickcount)
 5894 144A FE 32        	cp 50
 5895 144C DA 5A 14     	jp c, __l_427
 5896 144F              ; 21         a = 0;
 5897 144F 3E 00        	ld a, 0
 5898 1451              ; 22         ThreadsTickCount = a;
 5899 1451 32 C8 15     	ld (threadstickcount), a
 5900 1454              ; 23         //--
 5901 1454              ; 24         ThreadsNetUpdateState();
 5902 1454 CD 5E 14     	call threadsnetupdatestate
 5903 1457 C3 5D 14     	jp __l_428
 5904 145A              __l_427:
 5905 145A              ; 25     } else {
 5906 145A              ; 26         ThreadsTickCountNext();
 5907 145A CD 91 14     	call threadstickcountnext
 5908 145D              __l_428:
 5909 145D C9           	ret
 5910 145E              ; 27     }
 5911 145E              ; 28     #endif
 5912 145E              ; 29 }
 5913 145E              ; 30
 5914 145E              ; 31 void ThreadsNetUpdateState() {
 5915 145E              threadsnetupdatestate:
 5916 145E              ; 32     CurrentViewDiskOrFtpViewByIdA(a = CurrentViewId);
 5917 145E 3A 8F 10     	ld a, (currentviewid)
 5918 1461 CD 55 10     	call currentviewdiskorftpviewbyida
 5919 1464              ; 33     if (a == 1) {
 5920 1464 FE 01        	cp 1
 5921 1466 C2 6F 14     	jp nz, __l_429
 5922 1469              ; 34         NetGetAllStatus();
 5923 1469 CD E7 04     	call netgetallstatus
 5924 146C              ; 35         ThreadsNetNeedStateChange();
 5925 146C CD 70 14     	call threadsnetneedstatechange
 5926 146F              __l_429:
 5927 146F C9           	ret
 5928 1470              ; 36     }
 5929 1470              ; 37 }
 5930 1470              ; 38
 5931 1470              ; 39 void ThreadsNetNeedStateChange() {
 5932 1470              threadsnetneedstatechange:
 5933 1470              ; 40     if ((a = WiFiNetStateChange) == 1) {
 5934 1470 3A 91 10     	ld a, (wifinetstatechange)
 5935 1473 FE 01        	cp 1
 5936 1475 C2 80 14     	jp nz, __l_431
 5937 1478              ; 41         ThreadsNetNeedUpdateWiFiData();
 5938 1478 CD CB 14     	call threadsnetneedupdatewifidata
 5939 147B              ; 42         a = 0;
 5940 147B 3E 00        	ld a, 0
 5941 147D              ; 43         WiFiNetStateChange = a;
 5942 147D 32 91 10     	ld (wifinetstatechange), a
 5943 1480              __l_431:
 5944 1480              ; 44     }
 5945 1480              ; 45     if ((a = FtpNetStateChange) == 1) {
 5946 1480 3A 90 10     	ld a, (ftpnetstatechange)
 5947 1483 FE 01        	cp 1
 5948 1485 C2 90 14     	jp nz, __l_433
 5949 1488              ; 46         ThreadsNetNeedUpdateFtpData();
 5950 1488 CD 09 15     	call threadsnetneedupdateftpdata
 5951 148B              ; 47         a = 0;
 5952 148B 3E 00        	ld a, 0
 5953 148D              ; 48         FtpNetStateChange = a;
 5954 148D 32 90 10     	ld (ftpnetstatechange), a
 5955 1490              __l_433:
 5956 1490 C9           	ret
 5957 1491              ; 49     }
 5958 1491              ; 50 }
 5959 1491              ; 51
 5960 1491              ; 52 void ThreadsTickCountNext() {
 5961 1491              threadstickcountnext:
 5962 1491              ; 53     push_pop(hl) {
 5963 1491 E5           	push hl
 5964 1492              ; 54         hl = ThreadsTickSubCount;
 5965 1492 2A C6 15     	ld hl, (threadsticksubcount)
 5966 1495              ; 55         // Compare hl == 0
 5967 1495              ; 56         a = h;
 5968 1495 7C           	ld a, h
 5969 1496              ; 57         a |= l;
 5970 1496 B5           	or l
 5971 1497              ; 58         if (a == 0) {
 5972 1497 B7           	or a
 5973 1498 C2 A8 14     	jp nz, __l_435
 5974 149B              ; 59             //-- TickCount ++
 5975 149B              ; 60             a = ThreadsTickCount;
 5976 149B 3A C8 15     	ld a, (threadstickcount)
 5977 149E              ; 61             a++;
 5978 149E 3C           	inc a
 5979 149F              ; 62             ThreadsTickCount = a;
 5980 149F 32 C8 15     	ld (threadstickcount), a
 5981 14A2              ; 63             //-- TickSubCount = max
 5982 14A2              ; 64             hl = 0x100; //0x800; //0x1000; //0x300;
 5983 14A2 21 00 01     	ld hl, 256
 5984 14A5 C3 A9 14     	jp __l_436
 5985 14A8              __l_435:
 5986 14A8              ; 65         } else {
 5987 14A8              ; 66             hl--;
 5988 14A8 2B           	dec hl
 5989 14A9              __l_436:
 5990 14A9              ; 67         }
 5991 14A9              ; 68         ThreadsTickSubCount = hl;
 5992 14A9 22 C6 15     	ld (threadsticksubcount), hl
 5993 14AC E1           	pop hl
 5994 14AD C9           	ret
 5995 14AE              ; 69     }
 5996 14AE              ; 70 }
 5997 14AE              ; 71
 5998 14AE              ; 72 void delay50ms() {
 5999 14AE              delay50ms:
 6000 14AE              ; 73     push_pop(bc) {
 6001 14AE C5           	push bc
 6002 14AF              ; 74         bc = 0xFFFF;
 6003 14AF 01 FF FF     	ld bc, 65535
 6004 14B2              ; 75         do {
 6005 14B2              __l_437:
 6006 14B2              ; 76             bc--;
 6007 14B2 0B           	dec bc
 6008 14B3              ; 77             a = b;
 6009 14B3 78           	ld a, b
 6010 14B4              ; 78             a |= c;
 6011 14B4 B1           	or c
 6012 14B5              __l_438:
 6013 14B5 C2 B2 14     	jp nz, __l_437
 6014 14B8 C1           	pop bc
 6015 14B9 C9           	ret
 6016 14BA              ; 79         } while (flag_nz);
 6017 14BA              ; 80     }
 6018 14BA              ; 81 }
 6019 14BA              ; 82
 6020 14BA              ; 83 void NetUpdateData() {
 6021 14BA              netupdatedata:
 6022 14BA              ; 84     NetDiskGetNum();
 6023 14BA CD E9 05     	call netdiskgetnum
 6024 14BD              ; 85     if (a == 1) { // Обновляем локальный диск
 6025 14BD FE 01        	cp 1
 6026 14BF C2 C5 14     	jp nz, __l_440
 6027 14C2              ; 86         DiskViewReload();
 6028 14C2 CD AA 19     	call diskviewreload
 6029 14C5              __l_440:
 6030 14C5              ; 87     }
 6031 14C5              ; 88     // NEXT
 6032 14C5              ; 89     ThreadsNetNeedUpdateFtpValue();
 6033 14C5 CD 35 15     	call threadsnetneedupdateftpvalue
 6034 14C8              ; 90     ThreadsNetNeedUpdateWiFiValue();
 6035 14C8 C3 DA 14     	jp threadsnetneedupdatewifivalue
 6036 14CB              ; 91 }
 6037 14CB              ; 92
 6038 14CB              ; 93 // ----------------------------------
 6039 14CB              ; 94 // ------------ WiFi ----------------
 6040 14CB              ; 95 // ----------------------------------
 6041 14CB              ; 96 void ThreadsNetNeedUpdateWiFiData() {
 6042 14CB              threadsnetneedupdatewifidata:
 6043 14CB              ; 97     NetWiFiGetSsidIp();
 6044 14CB CD 7B 03     	call netwifigetssidip
 6045 14CE              ; 98     WifiStateViewShowValue();
 6046 14CE C3 36 16     	jp wifistateviewshowvalue
 6047 14D1              ; 99 }
 6048 14D1              ; 100
 6049 14D1              ; 101 void ThreadsNetPasswordUpdate() {
 6050 14D1              threadsnetpasswordupdate:
 6051 14D1              ; 102     NetWiFiSetSsidPassword();
 6052 14D1 CD 67 03     	call netwifisetssidpassword
 6053 14D4              ; 103     nop();
 6054 14D4 00           	nop
 6055 14D5              ; 104     NetWiFiGetSsidPassword();
 6056 14D5 CD 52 03     	call netwifigetssidpassword
 6057 14D8              ; 105     nop();
 6058 14D8 00           	nop
 6059 14D9 C9           	ret
 6060 14DA              ; 106 }
 6061 14DA              ; 107
 6062 14DA              ; 108 void ThreadsNetNeedUpdateWiFiValue() {
 6063 14DA              threadsnetneedupdatewifivalue:
 6064 14DA              ; 109     NetWiFiGetSsidIp();
 6065 14DA CD 7B 03     	call netwifigetssidip
 6066 14DD              ; 110     NetWiFiGetSsidMac();
 6067 14DD CD 90 03     	call netwifigetssidmac
 6068 14E0              ; 111     NetWiFiGetSsid();
 6069 14E0 CD A5 03     	call netwifigetssid
 6070 14E3              ; 112     NetWiFiGetSsidPassword();
 6071 14E3 CD 52 03     	call netwifigetssidpassword
 6072 14E6              ; 113     // UI
 6073 14E6              ; 114     WifiStateViewShowValue();
 6074 14E6 C3 36 16     	jp wifistateviewshowvalue
 6075 14E9              ; 115 }
 6076 14E9              ; 116
 6077 14E9              ; 117 void ThreadsNetSsidUpdateA() {
 6078 14E9              threadsnetssidupdatea:
 6079 14E9              ; 118     NetWiFiSetListA();
 6080 14E9 CD CF 04     	call netwifisetlista
 6081 14EC              ; 119     NetWiFiGetSsid();
 6082 14EC CD A5 03     	call netwifigetssid
 6083 14EF              ; 120     WifiStateViewShowValue();
 6084 14EF C3 36 16     	jp wifistateviewshowvalue
 6085 14F2              ; 121 }
 6086 14F2              ; 122
 6087 14F2              ; 123 void ThreadsNetSetWiFiStateA() {
 6088 14F2              threadsnetsetwifistatea:
 6089 14F2              ; 124     push_pop(bc) {
 6090 14F2 C5           	push bc
 6091 14F3              ; 125         a &= 0x01;
 6092 14F3 E6 01        	and 1
 6093 14F5              ; 126         b = a;
 6094 14F5 47           	ld b, a
 6095 14F6              ; 127         // Old Value
 6096 14F6              ; 128         a = WiFiSettingsViewSSIDIsConnected;
 6097 14F6 3A 5B 0C     	ld a, (wifisettingsviewssidisconnected)
 6098 14F9              ; 129         c = a;
 6099 14F9 4F           	ld c, a
 6100 14FA              ; 130         // --
 6101 14FA              ; 131         a = b;
 6102 14FA 78           	ld a, b
 6103 14FB              ; 132         WiFiSettingsViewSSIDIsConnected = a;
 6104 14FB 32 5B 0C     	ld (wifisettingsviewssidisconnected), a
 6105 14FE              ; 133         if(a != c){
 6106 14FE B9           	cp c
 6107 14FF CA 07 15     	jp z, __l_442
 6108 1502              ; 134             a = 0x01;
 6109 1502 3E 01        	ld a, 1
 6110 1504              ; 135             WiFiNetStateChange = a;
 6111 1504 32 91 10     	ld (wifinetstatechange), a
 6112 1507              __l_442:
 6113 1507 C1           	pop bc
 6114 1508 C9           	ret
 6115 1509              ; 136         }
 6116 1509              ; 137     }
 6117 1509              ; 138 }
 6118 1509              ; 139
 6119 1509              ; 140 // ----------------------------------
 6120 1509              ; 141 // ------------ Ftp  ----------------
 6121 1509              ; 142 // ----------------------------------
 6122 1509              ; 143 void ThreadsNetNeedUpdateFtpData() {
 6123 1509              threadsnetneedupdateftpdata:
 6124 1509              ; 144     FtpStateViewShowValue();
 6125 1509 CD 55 1C     	call ftpstateviewshowvalue
 6126 150C              ; 145     // Update ftp dir
 6127 150C              ; 146     NetFtpGetCurrentPath();
 6128 150C CD FE 04     	call netftpgetcurrentpath
 6129 150F              ; 147     FtpViewShowPath();
 6130 150F CD E9 21     	call ftpviewshowpath
 6131 1512              ; 148     //
 6132 1512              ; 149     CurrentViewDiskOrFtpViewByIdA(a = CurrentViewId);
 6133 1512 3A 8F 10     	ld a, (currentviewid)
 6134 1515 CD 55 10     	call currentviewdiskorftpviewbyida
 6135 1518              ; 150     if (a == 1) {
 6136 1518 FE 01        	cp 1
 6137 151A C2 34 15     	jp nz, __l_444
 6138 151D              ; 151         if ((a = FtpStateViewStatus) == 1) {
 6139 151D 3A D6 1C     	ld a, (ftpstateviewstatus)
 6140 1520 FE 01        	cp 1
 6141 1522 C2 2E 15     	jp nz, __l_446
 6142 1525              ; 152             NetFtpUpdateList();
 6143 1525 CD 33 05     	call netftpupdatelist
 6144 1528              ; 153             NetFtpListFiles();
 6145 1528 CD 43 05     	call netftplistfiles
 6146 152B C3 31 15     	jp __l_447
 6147 152E              __l_446:
 6148 152E              ; 154         } else {
 6149 152E              ; 155             FtpViewEmptyList();
 6150 152E CD 18 24     	call ftpviewemptylist
 6151 1531              __l_447:
 6152 1531              ; 156         }
 6153 1531              ; 157         FtpViewListUpdateUI();
 6154 1531 CD 3F 24     	call ftpviewlistupdateui
 6155 1534              __l_444:
 6156 1534 C9           	ret
 6157 1535              ; 158     }
 6158 1535              ; 159 }
 6159 1535              ; 160
 6160 1535              ; 161 void ThreadsNetNeedUpdateFtpValue() {
 6161 1535              threadsnetneedupdateftpvalue:
 6162 1535              ; 162     NetFtpGetUrl();
 6163 1535 CD BA 03     	call netftpgeturl
 6164 1538              ; 163     NetFtpGetHomeDir();
 6165 1538 CD 35 04     	call netftpgethomedir
 6166 153B              ; 164     NetFtpGetPort();
 6167 153B CD 5E 04     	call netftpgetport
 6168 153E              ; 165     NetFtpGetUser();
 6169 153E CD E3 03     	call netftpgetuser
 6170 1541              ; 166     NetFtpGetPassword();
 6171 1541 CD 0C 04     	call netftpgetpassword
 6172 1544              ; 167     // UI
 6173 1544              ; 168     FtpStateViewShowValue();
 6174 1544 C3 55 1C     	jp ftpstateviewshowvalue
 6175 1547              ; 169 }
 6176 1547              ; 170
 6177 1547              ; 171 void ThreadsNetFtpHomeDirUpdate() {
 6178 1547              threadsnetftphomedirupdate:
 6179 1547              ; 172     NetFtpSetHomeDir();
 6180 1547 CD 4A 04     	call netftpsethomedir
 6181 154A              ; 173     NetFtpGetHomeDir();
 6182 154A C3 35 04     	jp netftpgethomedir
 6183 154D              ; 174 }
 6184 154D              ; 175
 6185 154D              ; 176 void ThreadsNetFtpUserUpdate() {
 6186 154D              threadsnetftpuserupdate:
 6187 154D              ; 177     NetFtpSetUser();
 6188 154D CD F8 03     	call netftpsetuser
 6189 1550              ; 178     NetFtpGetUser();
 6190 1550 C3 E3 03     	jp netftpgetuser
 6191 1553              ; 179 }
 6192 1553              ; 180
 6193 1553              ; 181 void ThreadsNetFtpPasswordUpdate() {
 6194 1553              threadsnetftppasswordupdate:
 6195 1553              ; 182     NetFtpSetPassword();
 6196 1553 CD 21 04     	call netftpsetpassword
 6197 1556              ; 183     NetFtpGetPassword();
 6198 1556 C3 0C 04     	jp netftpgetpassword
 6199 1559              ; 184 }
 6200 1559              ; 185
 6201 1559              ; 186 void ThreadsNetFtpServerUrlUpdate() {
 6202 1559              threadsnetftpserverurlupdate:
 6203 1559              ; 187     NetFtpSetUrl();
 6204 1559 CD CF 03     	call netftpseturl
 6205 155C              ; 188     NetFtpGetUrl();
 6206 155C C3 BA 03     	jp netftpgeturl
 6207 155F              ; 189 }
 6208 155F              ; 190
 6209 155F              ; 191 void ThreadsNetFtpPortUpdate() {
 6210 155F              threadsnetftpportupdate:
 6211 155F              ; 192     NetFtpSetPort();
 6212 155F CD 73 04     	call netftpsetport
 6213 1562              ; 193     NetFtpGetPort();
 6214 1562 C3 5E 04     	jp netftpgetport
 6215 1565              ; 194 }
 6216 1565              ; 195
 6217 1565              ; 196 void ThreadsNetFtpGoToHomeDir() {
 6218 1565              threadsnetftpgotohomedir:
 6219 1565              ; 197     NetFtpGoToHomeDir();
 6220 1565 CD F4 04     	call netftpgotohomedir
 6221 1568              ; 198     NetFtpGetCurrentPath();
 6222 1568 CD FE 04     	call netftpgetcurrentpath
 6223 156B              ; 199     FtpViewShowPath();
 6224 156B CD E9 21     	call ftpviewshowpath
 6225 156E              ; 200     if ((a = FtpStateViewStatus) == 1) {
 6226 156E 3A D6 1C     	ld a, (ftpstateviewstatus)
 6227 1571 FE 01        	cp 1
 6228 1573 C2 7F 15     	jp nz, __l_448
 6229 1576              ; 201         NetFtpUpdateList();
 6230 1576 CD 33 05     	call netftpupdatelist
 6231 1579              ; 202         NetFtpListFiles();
 6232 1579 CD 43 05     	call netftplistfiles
 6233 157C C3 82 15     	jp __l_449
 6234 157F              __l_448:
 6235 157F              ; 203     } else {
 6236 157F              ; 204         FtpViewEmptyList();
 6237 157F CD 18 24     	call ftpviewemptylist
 6238 1582              __l_449:
 6239 1582              ; 205     }
 6240 1582              ; 206     FtpViewListUpdateUI();
 6241 1582 C3 3F 24     	jp ftpviewlistupdateui
 6242 1585              ; 207 }
 6243 1585              ; 208
 6244 1585              ; 209 void ThreadsNetFtpDeleteFileA() {
 6245 1585              threadsnetftpdeletefilea:
 6246 1585              ; 210     NetFtpDeleteFileIndexA();
 6247 1585 CD A1 05     	call netftpdeletefileindexa
 6248 1588              ; 211     NetFtpUpdateList();
 6249 1588 CD 33 05     	call netftpupdatelist
 6250 158B              ; 212     NetFtpListFiles();
 6251 158B CD 43 05     	call netftplistfiles
 6252 158E              ; 213     FtpViewListUpdateUI();
 6253 158E C3 3F 24     	jp ftpviewlistupdateui
 6254 1591              ; 214 }
 6255 1591              ; 215
 6256 1591              ; 216 void ThreadsNetSetFtpStateA() {
 6257 1591              threadsnetsetftpstatea:
 6258 1591              ; 217     push_pop(bc) {
 6259 1591 C5           	push bc
 6260 1592              ; 218         a &= 0x01;
 6261 1592 E6 01        	and 1
 6262 1594              ; 219         b = a;
 6263 1594 47           	ld b, a
 6264 1595              ; 220         // Old Value
 6265 1595              ; 221         a = FtpStateViewStatus;
 6266 1595 3A D6 1C     	ld a, (ftpstateviewstatus)
 6267 1598              ; 222         c = a;
 6268 1598 4F           	ld c, a
 6269 1599              ; 223         // --
 6270 1599              ; 224         a = b;
 6271 1599 78           	ld a, b
 6272 159A              ; 225         FtpStateViewStatus = a;
 6273 159A 32 D6 1C     	ld (ftpstateviewstatus), a
 6274 159D              ; 226         if(a != c){
 6275 159D B9           	cp c
 6276 159E CA A6 15     	jp z, __l_450
 6277 15A1              ; 227             a = 0x01;
 6278 15A1 3E 01        	ld a, 1
 6279 15A3              ; 228             FtpNetStateChange = a;
 6280 15A3 32 90 10     	ld (ftpnetstatechange), a
 6281 15A6              __l_450:
 6282 15A6 C1           	pop bc
 6283 15A7 C9           	ret
 6284 15A8              ; 229         }
 6285 15A8              ; 230     }
 6286 15A8              ; 231 }
 6287 15A8              ; 232
 6288 15A8              ; 233 void ThreadsNetDetectError() {
 6289 15A8              threadsnetdetecterror:
 6290 15A8              ; 234     push_pop(bc, hl) {
 6291 15A8 C5           	push bc
 6292 15A9 E5           	push hl
 6293 15AA              ; 235         if ((a = ESPError) > 0) {
 6294 15AA 3A 51 03     	ld a, (esperror)
 6295 15AD B7           	or a
 6296 15AE CA C3 15     	jp z, __l_452
 6297 15B1              ; 236             b = a;
 6298 15B1 47           	ld b, a
 6299 15B2              ; 237             // Clear error
 6300 15B2              ; 238             a = 0;
 6301 15B2 3E 00        	ld a, 0
 6302 15B4              ; 239             ESPError = a;
 6303 15B4 32 51 03     	ld (esperror), a
 6304 15B7              ; 240             //-- ENUM
 6305 15B7              ; 241             if ((a = b) == ESPError_TimeOut) {
 6306 15B7 78           	ld a, b
 6307 15B8 FE 01        	cp 1
 6308 15BA C2 C3 15     	jp nz, __l_454
 6309 15BD              ; 242                 AllertOkViewShowHL(hl = StringLocaleNetTimeOut);
 6310 15BD 21 C5 10     	ld hl, stringlocalenettimeout
 6311 15C0 CD ED 2B     	call allertokviewshowhl
 6312 15C3              __l_454:
 6313 15C3              __l_452:
 6314 15C3 E1           	pop hl
 6315 15C4 C1           	pop bc
 6316 15C5 C9           	ret
 6317 15C6              ; 243             }
 6318 15C6              ; 244         }
 6319 15C6              ; 245     }
 6320 15C6              ; 246 }
 6321 15C6              ; 247
 6322 15C6              ; 248 uint16_t ThreadsTickSubCount = 0x0000;
 6323 15C6              threadsticksubcount:
 6324 15C6 00 00        	dw 0
 6325 15C8              ; 249 uint8_t ThreadsTickCount = 0;
 6326 15C8              threadstickcount:
 6327 15C8 00           	db 0
 6328 15C9              ; 11 void WifiStateViewShow() {
 6329 15C9              wifistateviewshow:
 6330 15C9              ; 12     push_pop(hl, de, bc) {
 6331 15C9 E5           	push hl
 6332 15CA D5           	push de
 6333 15CB C5           	push bc
 6334 15CC              ; 13         a = WifiStateViewX;
 6335 15CC 3A 66 16     	ld a, (wifistateviewx)
 6336 15CF              ; 14         h = a;
 6337 15CF 67           	ld h, a
 6338 15D0              ; 15         a = WifiStateViewY;
 6339 15D0 3A 67 16     	ld a, (wifistateviewy)
 6340 15D3              ; 16         l = a;
 6341 15D3 6F           	ld l, a
 6342 15D4              ; 17         a = WifiStateViewDX;
 6343 15D4 3A 68 16     	ld a, (wifistateviewdx)
 6344 15D7              ; 18         d = a;
 6345 15D7 57           	ld d, a
 6346 15D8              ; 19         a = WifiStateViewDY;
 6347 15D8 3A 69 16     	ld a, (wifistateviewdy)
 6348 15DB              ; 20         e = a;
 6349 15DB 5F           	ld e, a
 6350 15DC              ; 21         a = WifiStateViewColor;
 6351 15DC 3A 6A 16     	ld a, (wifistateviewcolor)
 6352 15DF              ; 22         vboxOpenHLDE();
 6353 15DF CD 3C 3A     	call vboxopenhlde
 6354 15E2              ; 23         vboxBorderHLDE();
 6355 15E2 CD A8 39     	call vboxborderhlde
 6356 15E5              ; 24         WifiStateViewShowTitle();
 6357 15E5 CD EF 15     	call wifistateviewshowtitle
 6358 15E8              ; 25         WifiStateViewShowValue();
 6359 15E8 CD 36 16     	call wifistateviewshowvalue
 6360 15EB C1           	pop bc
 6361 15EC D1           	pop de
 6362 15ED E1           	pop hl
 6363 15EE C9           	ret
 6364 15EF              ; 26     }
 6365 15EF              ; 27 }
 6366 15EF              ; 28
 6367 15EF              ; 29 void WifiStateViewShowTitle() {
 6368 15EF              wifistateviewshowtitle:
 6369 15EF              ; 30     push_pop(hl, bc) {
 6370 15EF E5           	push hl
 6371 15F0 C5           	push bc
 6372 15F1              ; 31         //Title
 6373 15F1              ; 32         a = WifiStateViewX;
 6374 15F1 3A 66 16     	ld a, (wifistateviewx)
 6375 15F4              ; 33         b = a;
 6376 15F4 47           	ld b, a
 6377 15F5              ; 34         a = WifiStateViewDX;
 6378 15F5 3A 68 16     	ld a, (wifistateviewdx)
 6379 15F8              ; 35         a += b;
 6380 15F8 80           	add b
 6381 15F9              ; 36         a -= 8; //len Title
 6382 15F9 D6 08        	sub 8
 6383 15FB              ; 37         myCharPosX = a;
 6384 15FB 32 E3 0E     	ld (mycharposx), a
 6385 15FE              ; 38         a = WifiStateViewY;
 6386 15FE 3A 67 16     	ld a, (wifistateviewy)
 6387 1601              ; 39         myCharPosY = a;
 6388 1601 32 E4 0E     	ld (mycharposy), a
 6389 1604              ; 40         printMyHLStr(hl = WifiStateViewTitle);
 6390 1604 21 72 16     	ld hl, wifistateviewtitle
 6391 1607 CD ED 0C     	call printmyhlstr
 6392 160A              ; 41         //SSID
 6393 160A              ; 42         a = WifiStateViewX;
 6394 160A 3A 66 16     	ld a, (wifistateviewx)
 6395 160D              ; 43         a++;
 6396 160D 3C           	inc a
 6397 160E              ; 44         myCharPosX = a;
 6398 160E 32 E3 0E     	ld (mycharposx), a
 6399 1611              ; 45         a = WifiStateViewY;
 6400 1611 3A 67 16     	ld a, (wifistateviewy)
 6401 1614              ; 46         a++;
 6402 1614 3C           	inc a
 6403 1615              ; 47         myCharPosY = a;
 6404 1615 32 E4 0E     	ld (mycharposy), a
 6405 1618              ; 48         printMyHLStr(hl = WiFiSettingsViewTitleSSID);
 6406 1618 21 40 0C     	ld hl, wifisettingsviewtitlessid
 6407 161B CD ED 0C     	call printmyhlstr
 6408 161E              ; 49         //IP
 6409 161E              ; 50         a = WifiStateViewX;
 6410 161E 3A 66 16     	ld a, (wifistateviewx)
 6411 1621              ; 51         a++;
 6412 1621 3C           	inc a
 6413 1622              ; 52         myCharPosX = a;
 6414 1622 32 E3 0E     	ld (mycharposx), a
 6415 1625              ; 53         a = WifiStateViewY;
 6416 1625 3A 67 16     	ld a, (wifistateviewy)
 6417 1628              ; 54         a++;
 6418 1628 3C           	inc a
 6419 1629              ; 55         a++;
 6420 1629 3C           	inc a
 6421 162A              ; 56         myCharPosY = a;
 6422 162A 32 E4 0E     	ld (mycharposy), a
 6423 162D              ; 57         printMyHLStr(hl = WifiStateViewTitleIP);
 6424 162D 21 6B 16     	ld hl, wifistateviewtitleip
 6425 1630 CD ED 0C     	call printmyhlstr
 6426 1633 C1           	pop bc
 6427 1634 E1           	pop hl
 6428 1635 C9           	ret
 6429 1636              ; 58     }
 6430 1636              ; 59 }
 6431 1636              ; 60
 6432 1636              ; 61
 6433 1636              ; 62
 6434 1636              ; 63 void WifiStateViewShowValue() {
 6435 1636              wifistateviewshowvalue:
 6436 1636              ; 64     // SSID
 6437 1636              ; 65     a = WifiStateViewX;
 6438 1636 3A 66 16     	ld a, (wifistateviewx)
 6439 1639              ; 66     a += 7;
 6440 1639 C6 07        	add 7
 6441 163B              ; 67     myCharPosX = a;
 6442 163B 32 E3 0E     	ld (mycharposx), a
 6443 163E              ; 68     a = WifiStateViewY;
 6444 163E 3A 67 16     	ld a, (wifistateviewy)
 6445 1641              ; 69     a += 1;
 6446 1641 C6 01        	add 1
 6447 1643              ; 70     myCharPosY = a;
 6448 1643 32 E4 0E     	ld (mycharposy), a
 6449 1646              ; 71     a = 16;
 6450 1646 3E 10        	ld a, 16
 6451 1648              ; 72     printMyHLStrLenA(hl = WiFiSettingsViewSsidValue);
 6452 1648 21 5C 0C     	ld hl, wifisettingsviewssidvalue
 6453 164B CD FC 0C     	call printmyhlstrlena
 6454 164E              ; 73     // IP
 6455 164E              ; 74     a = WifiStateViewX;
 6456 164E 3A 66 16     	ld a, (wifistateviewx)
 6457 1651              ; 75     a += 7;
 6458 1651 C6 07        	add 7
 6459 1653              ; 76     myCharPosX = a;
 6460 1653 32 E3 0E     	ld (mycharposx), a
 6461 1656              ; 77     a = WifiStateViewY;
 6462 1656 3A 67 16     	ld a, (wifistateviewy)
 6463 1659              ; 78     a += 2;
 6464 1659 C6 02        	add 2
 6465 165B              ; 79     myCharPosY = a;
 6466 165B 32 E4 0E     	ld (mycharposy), a
 6467 165E              ; 80     a = 16;
 6468 165E 3E 10        	ld a, 16
 6469 1660              ; 81     printMyHLStrLenA(hl = WiFiSettingsViewIpValue);
 6470 1660 21 8E 0C     	ld hl, wifisettingsviewipvalue
 6471 1663 C3 FC 0C     	jp printmyhlstrlena
 6472 1666              ; 82 }
 6473 1666              ; 83
 6474 1666              ; 84 uint8_t WifiStateViewX = 24;
 6475 1666              wifistateviewx:
 6476 1666 18           	db 24
 6477 1667              ; 85 uint8_t WifiStateViewY = 0;
 6478 1667              wifistateviewy:
 6479 1667 00           	db 0
 6480 1668              ; 86 uint8_t WifiStateViewDX = 24;
 6481 1668              wifistateviewdx:
 6482 1668 18           	db 24
 6483 1669              ; 87 uint8_t WifiStateViewDY = 4;
 6484 1669              wifistateviewdy:
 6485 1669 04           	db 4
 6486 166A              ; 89 uint8_t WifiStateViewColor = 0x07;
 6487 166A              wifistateviewcolor:
 6488 166A 07           	db 7
 6489 166B              ; 94 uint8_t WifiStateViewTitleIP[] =   "IP  : ";
 6490 166B              wifistateviewtitleip:
 6491 166B 49           	db 73
 6492 166C 50           	db 80
 6493 166D 20           	db 32
 6494 166E 20           	db 32
 6495 166F 3A           	db 58
 6496 1670 20           	db 32
 6497 1671 00           	ds 1
 6498 1672              ; 95 uint8_t WifiStateViewTitle[] = {0xB5, 'W', 'i', '-', 'F', 'i', 0xC6, '\0'};
 6499 1672              wifistateviewtitle:
 6500 1672 B5           	db 181
 6501 1673 57           	db 87
 6502 1674 69           	db 105
 6503 1675 2D           	db 45
 6504 1676 46           	db 70
 6505 1677 69           	db 105
 6506 1678 C6           	db 198
 6507 1679 00           	db 0
 6508 167A              ; 11 void DiskViewShow() {
 6509 167A              diskviewshow:
 6510 167A              ; 12     a = DiskViewX;
 6511 167A 3A 4E 1A     	ld a, (diskviewx)
 6512 167D              ; 13     h = a;
 6513 167D 67           	ld h, a
 6514 167E              ; 14     a = DiskViewY;
 6515 167E 3A 4F 1A     	ld a, (diskviewy)
 6516 1681              ; 15     l = a;
 6517 1681 6F           	ld l, a
 6518 1682              ; 16     a = DiskViewDX;
 6519 1682 3A 50 1A     	ld a, (diskviewdx)
 6520 1685              ; 17     d = a;
 6521 1685 57           	ld d, a
 6522 1686              ; 18     a = DiskViewDY;
 6523 1686 3A 51 1A     	ld a, (diskviewdy)
 6524 1689              ; 19     e = a;
 6525 1689 5F           	ld e, a
 6526 168A              ; 20     a = DiskViewColor;
 6527 168A 3A 52 1A     	ld a, (diskviewcolor)
 6528 168D              ; 21     vboxOpenHLDE();
 6529 168D CD 3C 3A     	call vboxopenhlde
 6530 1690              ; 22     vboxBorderHLDE();
 6531 1690 CD A8 39     	call vboxborderhlde
 6532 1693              ; 23     DiskViewShowTitle();
 6533 1693 CD 9B 16     	call diskviewshowtitle
 6534 1696              ; 24
 6535 1696              ; 25     //DEBUG!!!
 6536 1696              ; 26     DiskViewSetDiskNumA(a = 'B');
 6537 1696 3E 42        	ld a, 66
 6538 1698 C3 95 19     	jp diskviewsetdisknuma
 6539 169B              ; 27 }
 6540 169B              ; 28
 6541 169B              ; 29 void DiskViewShowTitle() {
 6542 169B              diskviewshowtitle:
 6543 169B              ; 30     a = DiskViewX;
 6544 169B 3A 4E 1A     	ld a, (diskviewx)
 6545 169E              ; 31     a++;
 6546 169E 3C           	inc a
 6547 169F              ; 32     myCharPosX = a;
 6548 169F 32 E3 0E     	ld (mycharposx), a
 6549 16A2              ; 33     a = DiskViewY;
 6550 16A2 3A 4F 1A     	ld a, (diskviewy)
 6551 16A5              ; 34     myCharPosY = a;
 6552 16A5 32 E4 0E     	ld (mycharposy), a
 6553 16A8              ; 35     printMyHLStr(hl = DiskViewTitle);
 6554 16A8 21 5E 1A     	ld hl, diskviewtitle
 6555 16AB C3 ED 0C     	jp printmyhlstr
 6556 16AE              ; 36 }
 6557 16AE              ; 37
 6558 16AE              ; 38 void DiskViewUpdateDir() {
 6559 16AE              diskviewupdatedir:
 6560 16AE              ; 39     push_pop(hl) {
 6561 16AE E5           	push hl
 6562 16AF              ; 40         a = DiskViewDiskNum;
 6563 16AF 3A 54 1A     	ld a, (diskviewdisknum)
 6564 16B2              ; 41         ordos_wnd();
 6565 16B2 CD D6 BF     	call ordos_wnd
 6566 16B5              ; 42         hl = DiskViewDirBufer;
 6567 16B5 2A 56 1A     	ld hl, (diskviewdirbufer)
 6568 16B8              ; 43         ordos_dirm();
 6569 16B8 CD E8 BF     	call ordos_dirm
 6570 16BB              ; 44         DiskViewDirCount = a;
 6571 16BB 32 55 1A     	ld (diskviewdircount), a
 6572 16BE E1           	pop hl
 6573 16BF C9           	ret
 6574 16C0              ; 45     }
 6575 16C0              ; 46 }
 6576 16C0              ; 47
 6577 16C0              ; 48 void DiskViewShowDir() {
 6578 16C0              diskviewshowdir:
 6579 16C0              ; 49     push_pop(hl, bc, de) {
 6580 16C0 E5           	push hl
 6581 16C1 C5           	push bc
 6582 16C2 D5           	push de
 6583 16C3              ; 50         //-----
 6584 16C3              ; 51         a = DiskViewX;
 6585 16C3 3A 4E 1A     	ld a, (diskviewx)
 6586 16C6              ; 52         a += 2;
 6587 16C6 C6 02        	add 2
 6588 16C8              ; 53         d = a; // X
 6589 16C8 57           	ld d, a
 6590 16C9              ; 54         a = DiskViewY;
 6591 16C9 3A 4F 1A     	ld a, (diskviewy)
 6592 16CC              ; 55         a += 3;
 6593 16CC C6 03        	add 3
 6594 16CE              ; 56         e = a; // Y
 6595 16CE 5F           	ld e, a
 6596 16CF              ; 57         //-----
 6597 16CF              ; 58         a = d;
 6598 16CF 7A           	ld a, d
 6599 16D0              ; 59         myCharPosX = a;
 6600 16D0 32 E3 0E     	ld (mycharposx), a
 6601 16D3              ; 60         a = e;
 6602 16D3 7B           	ld a, e
 6603 16D4              ; 61         a--;
 6604 16D4 3D           	dec a
 6605 16D5              ; 62         myCharPosY = a;
 6606 16D5 32 E4 0E     	ld (mycharposy), a
 6607 16D8              ; 63         printMyHLStr(hl = DiskViewDirRootTitle);
 6608 16D8 21 5B 1A     	ld hl, diskviewdirroottitle
 6609 16DB CD ED 0C     	call printmyhlstr
 6610 16DE              ; 64         //-----
 6611 16DE              ; 65         if ((a = DiskViewDirCount) >= 1) {
 6612 16DE 3A 55 1A     	ld a, (diskviewdircount)
 6613 16E1 B7           	or a
 6614 16E2 CA 2E 17     	jp z, __l_456
 6615 16E5              ; 66             hl = DiskViewDirBufer;
 6616 16E5 2A 56 1A     	ld hl, (diskviewdirbufer)
 6617 16E8              ; 67             b = 0;
 6618 16E8 06 00        	ld b, 0
 6619 16EA              ; 68             do {
 6620 16EA              __l_458:
 6621 16EA              ; 69                 a = d;
 6622 16EA 7A           	ld a, d
 6623 16EB              ; 70                 myCharPosX = a;
 6624 16EB 32 E3 0E     	ld (mycharposx), a
 6625 16EE              ; 71                 a = e;
 6626 16EE 7B           	ld a, e
 6627 16EF              ; 72                 a += b;
 6628 16EF 80           	add b
 6629 16F0              ; 73                 myCharPosY = a;
 6630 16F0 32 E4 0E     	ld (mycharposy), a
 6631 16F3              ; 74                 c = 8;
 6632 16F3 0E 08        	ld c, 8
 6633 16F5              ; 75                 do {
 6634 16F5              __l_461:
 6635 16F5              ; 76                     printMyCharA(a = *hl);
 6636 16F5 7E           	ld a, (hl)
 6637 16F6 CD 4E 0D     	call printmychara
 6638 16F9              ; 77                     hl++;
 6639 16F9 23           	inc hl
 6640 16FA              ; 78                     c--;
 6641 16FA 0D           	dec c
 6642 16FB              __l_462:
 6643 16FB              ; 79                 } while ((a = c) > 0);
 6644 16FB 79           	ld a, c
 6645 16FC B7           	or a
 6646 16FD C2 F5 16     	jp nz, __l_461
 6647 1700              ; 80                 hl++;
 6648 1700 23           	inc hl
 6649 1701              ; 81                 hl++;
 6650 1701 23           	inc hl
 6651 1702              ; 82                 push_pop(de) {
 6652 1702 D5           	push de
 6653 1703              ; 83                     a = *hl;
 6654 1703 7E           	ld a, (hl)
 6655 1704              ; 84                     e = a;
 6656 1704 5F           	ld e, a
 6657 1705              ; 85                     hl++;
 6658 1705 23           	inc hl
 6659 1706              ; 86                     a = *hl;
 6660 1706 7E           	ld a, (hl)
 6661 1707              ; 87                     d = a;
 6662 1707 57           	ld d, a
 6663 1708              ; 88                     printMyCharA(a = ' ');
 6664 1708 3E 20        	ld a, 32
 6665 170A CD 4E 0D     	call printmychara
 6666 170D              ; 89                     printMyCharA(a = ' ');
 6667 170D 3E 20        	ld a, 32
 6668 170F CD 4E 0D     	call printmychara
 6669 1712              ; 90                     printMyCharA(a = ' ');
 6670 1712 3E 20        	ld a, 32
 6671 1714 CD 4E 0D     	call printmychara
 6672 1717              ; 91                     printMyCharA(a = ' ');
 6673 1717 3E 20        	ld a, 32
 6674 1719 CD 4E 0D     	call printmychara
 6675 171C              ; 92                     FtpViewShow4CharSizeDE();
 6676 171C CD 9A 21     	call ftpviewshow4charsizede
 6677 171F              ; 93                     hl++;
 6678 171F 23           	inc hl
 6679 1720 D1           	pop de
 6680 1721              ; 94                 }
 6681 1721              ; 95                 hl++;
 6682 1721 23           	inc hl
 6683 1722              ; 96                 hl++;
 6684 1722 23           	inc hl
 6685 1723              ; 97                 hl++;
 6686 1723 23           	inc hl
 6687 1724              ; 98                 hl++;
 6688 1724 23           	inc hl
 6689 1725              ; 99                 b++;
 6690 1725 04           	inc b
 6691 1726              ; 100                 a = DiskViewDirCount;
 6692 1726 3A 55 1A     	ld a, (diskviewdircount)
 6693 1729              ; 101                 a--;
 6694 1729 3D           	dec a
 6695 172A              __l_459:
 6696 172A              ; 102             } while (a >= b);
 6697 172A B8           	cp b
 6698 172B D2 EA 16     	jp nc, __l_458
 6699 172E              __l_456:
 6700 172E              ; 103         }
 6701 172E              ; 104         // show empty rows
 6702 172E              ; 105         a = DiskViewDirCount;
 6703 172E 3A 55 1A     	ld a, (diskviewdircount)
 6704 1731              ; 106         b = a;
 6705 1731 47           	ld b, a
 6706 1732              ; 107         // PosY
 6707 1732              ; 108         a = e;
 6708 1732 7B           	ld a, e
 6709 1733              ; 109         a += b;
 6710 1733 80           	add b
 6711 1734              ; 110         e = a;
 6712 1734 5F           	ld e, a
 6713 1735              ; 111         //
 6714 1735              ; 112         a = DiskViewDY;
 6715 1735 3A 51 1A     	ld a, (diskviewdy)
 6716 1738              ; 113         a -= 4;
 6717 1738 D6 04        	sub 4
 6718 173A              ; 114         a -= b;
 6719 173A 90           	sub b
 6720 173B              ; 115         b = a;
 6721 173B 47           	ld b, a
 6722 173C              ; 116         c = 0;
 6723 173C 0E 00        	ld c, 0
 6724 173E              ; 117         do {
 6725 173E              __l_464:
 6726 173E              ; 118             a = d;
 6727 173E 7A           	ld a, d
 6728 173F              ; 119             myCharPosX = a;
 6729 173F 32 E3 0E     	ld (mycharposx), a
 6730 1742              ; 120             a = e;
 6731 1742 7B           	ld a, e
 6732 1743              ; 121             a += c;
 6733 1743 81           	add c
 6734 1744              ; 122             myCharPosY = a;
 6735 1744 32 E4 0E     	ld (mycharposy), a
 6736 1747              ; 123             //
 6737 1747              ; 124             a = DiskViewDX;
 6738 1747 3A 50 1A     	ld a, (diskviewdx)
 6739 174A              ; 125             a -= 3;
 6740 174A D6 03        	sub 3
 6741 174C              ; 126             h = a;
 6742 174C 67           	ld h, a
 6743 174D              ; 127             do {
 6744 174D              __l_467:
 6745 174D              ; 128                 printMyCharA(a = ' ');
 6746 174D 3E 20        	ld a, 32
 6747 174F CD 4E 0D     	call printmychara
 6748 1752              ; 129                 h--;
 6749 1752 25           	dec h
 6750 1753              __l_468:
 6751 1753              ; 130             } while ((a = h) > 0);
 6752 1753 7C           	ld a, h
 6753 1754 B7           	or a
 6754 1755 C2 4D 17     	jp nz, __l_467
 6755 1758              ; 131             b--;
 6756 1758 05           	dec b
 6757 1759              ; 132             c++;
 6758 1759 0C           	inc c
 6759 175A              __l_465:
 6760 175A              ; 133         } while ((a = b) > 0);
 6761 175A 78           	ld a, b
 6762 175B B7           	or a
 6763 175C C2 3E 17     	jp nz, __l_464
 6764 175F D1           	pop de
 6765 1760 C1           	pop bc
 6766 1761 E1           	pop hl
 6767 1762 C9           	ret
 6768 1763              ; 134     }
 6769 1763              ; 135 }
 6770 1763              ; 136
 6771 1763              ; 137 void DiskViewCurrentFileNameHL() {
 6772 1763              diskviewcurrentfilenamehl:
 6773 1763              ; 138     push_pop(bc) {
 6774 1763 C5           	push bc
 6775 1764              ; 139         hl = DiskViewDirBufer;
 6776 1764 2A 56 1A     	ld hl, (diskviewdirbufer)
 6777 1767              ; 140         a ^= a;
 6778 1767 AF           	xor a
 6779 1768              ; 141         a = DiskViewFileCurrentPos;
 6780 1768 3A 58 1A     	ld a, (diskviewfilecurrentpos)
 6781 176B              ; 142         a -= 1; // Удалить корневой переход на другой диск
 6782 176B D6 01        	sub 1
 6783 176D              ; 143         b = 0;
 6784 176D 06 00        	ld b, 0
 6785 176F              ; 144         carry_rotate_left(a, 4);
 6786 176F 17           	rla
 6787 1770 17           	rla
 6788 1771 17           	rla
 6789 1772 17           	rla
 6790 1773              ; 145         if (flag_c) { // Если переполняние младшего разряда, инкремент старшего
 6791 1773 D2 77 17     	jp nc, __l_470
 6792 1776              ; 146             b++;
 6793 1776 04           	inc b
 6794 1777              __l_470:
 6795 1777              ; 147         }
 6796 1777              ; 148         c = a;
 6797 1777 4F           	ld c, a
 6798 1778              ; 149         hl += bc;
 6799 1778 09           	add hl, bc
 6800 1779              ; 150         push_pop(hl) { // Проставляем 0 в конце строки
 6801 1779 E5           	push hl
 6802 177A              ; 151             bc = 7;
 6803 177A 01 07 00     	ld bc, 7
 6804 177D              ; 152             hl += bc;
 6805 177D 09           	add hl, bc
 6806 177E              ; 153             b = 7;
 6807 177E 06 07        	ld b, 7
 6808 1780              ; 154             do {
 6809 1780              __l_472:
 6810 1780              ; 155                 a = *hl;
 6811 1780 7E           	ld a, (hl)
 6812 1781              ; 156                 if (a == 0x20) {
 6813 1781 FE 20        	cp 32
 6814 1783 C2 8C 17     	jp nz, __l_475
 6815 1786              ; 157                     a = 0;
 6816 1786 3E 00        	ld a, 0
 6817 1788              ; 158                     *hl = a;
 6818 1788 77           	ld (hl), a
 6819 1789 C3 8E 17     	jp __l_476
 6820 178C              __l_475:
 6821 178C              ; 159                 } else {
 6822 178C              ; 160                     b = 1;
 6823 178C 06 01        	ld b, 1
 6824 178E              __l_476:
 6825 178E              ; 161                 }
 6826 178E              ; 162                 hl--;
 6827 178E 2B           	dec hl
 6828 178F              ; 163                 b--;
 6829 178F 05           	dec b
 6830 1790              __l_473:
 6831 1790              ; 164             } while ((a = b) > 0);
 6832 1790 78           	ld a, b
 6833 1791 B7           	or a
 6834 1792 C2 80 17     	jp nz, __l_472
 6835 1795 E1           	pop hl
 6836 1796 C1           	pop bc
 6837 1797 C9           	ret
 6838 1798              ; 165         }
 6839 1798              ; 166     }
 6840 1798              ; 167 }
 6841 1798              ; 168
 6842 1798              ; 169 void DiskViewDeleteSelectedFile() {
 6843 1798              diskviewdeleteselectedfile:
 6844 1798              ; 170     push_pop(hl, bc) {
 6845 1798 E5           	push hl
 6846 1799 C5           	push bc
 6847 179A              ; 171         a = DiskViewDiskNum;
 6848 179A 3A 54 1A     	ld a, (diskviewdisknum)
 6849 179D              ; 172         ordos_wnd();
 6850 179D CD D6 BF     	call ordos_wnd
 6851 17A0              ; 173         DiskViewCurrentFileNameHL();
 6852 17A0 CD 63 17     	call diskviewcurrentfilenamehl
 6853 17A3              ; 174         ordos_sdma();
 6854 17A3 CD D0 BF     	call ordos_sdma
 6855 17A6              ; 175         ordos_eras();
 6856 17A6 CD EE BF     	call ordos_eras
 6857 17A9              ; 176         //а = 1 - нет файла
 6858 17A9              ; 177         //а = 4 - файл 'r/o'
 6859 17A9              ; 178         b = a;
 6860 17A9 47           	ld b, a
 6861 17AA              ; 179         if ((a = b) == 0) {
 6862 17AA 78           	ld a, b
 6863 17AB B7           	or a
 6864 17AC C2 C4 17     	jp nz, __l_477
 6865 17AF              ; 180             DiskViewShowSelectLineA(a = 0);
 6866 17AF 3E 00        	ld a, 0
 6867 17B1 CD 18 1A     	call diskviewshowselectlinea
 6868 17B4              ; 181             a = 0;
 6869 17B4 3E 00        	ld a, 0
 6870 17B6              ; 182             DiskViewFileCurrentPos = a;
 6871 17B6 32 58 1A     	ld (diskviewfilecurrentpos), a
 6872 17B9              ; 183             DiskViewUpdateDateAndUI();
 6873 17B9 CD B7 19     	call diskviewupdatedateandui
 6874 17BC              ; 184             DiskViewShowSelectLineA(a = 1);
 6875 17BC 3E 01        	ld a, 1
 6876 17BE CD 18 1A     	call diskviewshowselectlinea
 6877 17C1 C3 F1 17     	jp __l_478
 6878 17C4              __l_477:
 6879 17C4              ; 185         } else if ((a = b) == 1) { // нет файла
 6880 17C4 78           	ld a, b
 6881 17C5 FE 01        	cp 1
 6882 17C7 C2 D3 17     	jp nz, __l_479
 6883 17CA              ; 186             AllertOkViewShowHL(hl = StringLocaleFileNotFound);
 6884 17CA 21 A7 10     	ld hl, stringlocalefilenotfound
 6885 17CD CD ED 2B     	call allertokviewshowhl
 6886 17D0 C3 F1 17     	jp __l_480
 6887 17D3              __l_479:
 6888 17D3              ; 187         } else if ((a = b) == 4) { // файл 'r/o'
 6889 17D3 78           	ld a, b
 6890 17D4 FE 04        	cp 4
 6891 17D6 C2 E2 17     	jp nz, __l_481
 6892 17D9              ; 188             AllertOkViewShowHL(hl = StringLocaleFileReadOnly);
 6893 17D9 21 B6 10     	ld hl, stringlocalefilereadonly
 6894 17DC CD ED 2B     	call allertokviewshowhl
 6895 17DF C3 F1 17     	jp __l_482
 6896 17E2              __l_481:
 6897 17E2              ; 189         } else if ((a = b) == 0x41) { // Диск A
 6898 17E2 78           	ld a, b
 6899 17E3 FE 41        	cp 65
 6900 17E5 C2 F1 17     	jp nz, __l_483
 6901 17E8              ; 190             AllertOkViewShowHL(hl = StringLocaleFileReadOnly);
 6902 17E8 21 B6 10     	ld hl, stringlocalefilereadonly
 6903 17EB CD ED 2B     	call allertokviewshowhl
 6904 17EE C3 F1 17     	jp __l_484
 6905 17F1              __l_483:
 6906 17F1              ; 191         } else {
 6907 17F1              __l_484:
 6908 17F1              __l_482:
 6909 17F1              __l_480:
 6910 17F1              __l_478:
 6911 17F1 C1           	pop bc
 6912 17F2 E1           	pop hl
 6913 17F3 C9           	ret
 6914 17F4              ; 192             //printMyHexA(a = b);
 6915 17F4              ; 193         }
 6916 17F4              ; 194     }
 6917 17F4              ; 195 }
 6918 17F4              ; 196
 6919 17F4              ; 197 void DiskViewUploadSelectedFile() {
 6920 17F4              diskviewuploadselectedfile:
 6921 17F4              ; 198     push_pop(hl, bc) {
 6922 17F4 E5           	push hl
 6923 17F5 C5           	push bc
 6924 17F6              ; 199         // Open progress view
 6925 17F6              ; 200         LoadViewShowHL(hl = LoadViewUploadTitle);
 6926 17F6 21 9D 26     	ld hl, loadviewuploadtitle
 6927 17F9 CD EB 25     	call loadviewshowhl
 6928 17FC              ; 201         LoadViewShowProgressA(a = 0);
 6929 17FC 3E 00        	ld a, 0
 6930 17FE CD 55 26     	call loadviewshowprogressa
 6931 1801              ; 202         //-- create point File
 6932 1801              ; 203         hl = DiskViewDirBufer;
 6933 1801 2A 56 1A     	ld hl, (diskviewdirbufer)
 6934 1804              ; 204         a ^= a;
 6935 1804 AF           	xor a
 6936 1805              ; 205         a = DiskViewFileCurrentPos;
 6937 1805 3A 58 1A     	ld a, (diskviewfilecurrentpos)
 6938 1808              ; 206         a -= 1; // Удалить корневой переход на другой диск
 6939 1808 D6 01        	sub 1
 6940 180A              ; 207         b = 0;
 6941 180A 06 00        	ld b, 0
 6942 180C              ; 208         carry_rotate_left(a, 4);
 6943 180C 17           	rla
 6944 180D 17           	rla
 6945 180E 17           	rla
 6946 180F 17           	rla
 6947 1810              ; 209         if (flag_c) { // Если переполняние младшего разряда, инкремент старшего
 6948 1810 D2 14 18     	jp nc, __l_485
 6949 1813              ; 210             b++;
 6950 1813 04           	inc b
 6951 1814              __l_485:
 6952 1814              ; 211         }
 6953 1814              ; 212         c = a;
 6954 1814 4F           	ld c, a
 6955 1815              ; 213         hl += bc;
 6956 1815 09           	add hl, bc
 6957 1816              ; 214         push_pop(hl) { // Проставляем 0 в конце строки
 6958 1816 E5           	push hl
 6959 1817              ; 215             bc = 7;
 6960 1817 01 07 00     	ld bc, 7
 6961 181A              ; 216             hl += bc;
 6962 181A 09           	add hl, bc
 6963 181B              ; 217             b = 7;
 6964 181B 06 07        	ld b, 7
 6965 181D              ; 218             do {
 6966 181D              __l_487:
 6967 181D              ; 219                 a = *hl;
 6968 181D 7E           	ld a, (hl)
 6969 181E              ; 220                 if (a == 0x20) {
 6970 181E FE 20        	cp 32
 6971 1820 C2 29 18     	jp nz, __l_490
 6972 1823              ; 221                     a = 0;
 6973 1823 3E 00        	ld a, 0
 6974 1825              ; 222                     *hl = a;
 6975 1825 77           	ld (hl), a
 6976 1826 C3 2B 18     	jp __l_491
 6977 1829              __l_490:
 6978 1829              ; 223                 } else {
 6979 1829              ; 224                     b = 1;
 6980 1829 06 01        	ld b, 1
 6981 182B              __l_491:
 6982 182B              ; 225                 }
 6983 182B              ; 226                 hl--;
 6984 182B 2B           	dec hl
 6985 182C              ; 227                 b--;
 6986 182C 05           	dec b
 6987 182D              __l_488:
 6988 182D              ; 228             } while ((a = b) > 0);
 6989 182D 78           	ld a, b
 6990 182E B7           	or a
 6991 182F C2 1D 18     	jp nz, __l_487
 6992 1832 E1           	pop hl
 6993 1833              ; 229         }
 6994 1833              ; 230         // NET
 6995 1833              ; 231         NetFtpUploadFileInitHL();
 6996 1833 CD C1 05     	call netftpuploadfileinithl
 6997 1836              ; 232         // Close progress
 6998 1836              ; 233         LoadViewClose();
 6999 1836 CD 1A 26     	call loadviewclose
 7000 1839 C1           	pop bc
 7001 183A E1           	pop hl
 7002 183B C9           	ret
 7003 183C              ; 234     }
 7004 183C              ; 235 }
 7005 183C              ; 236
 7006 183C              ; 237 void DiskViewKeyA() {
 7007 183C              diskviewkeya:
 7008 183C              ; 238     push_pop(hl) {
 7009 183C E5           	push hl
 7010 183D              ; 239         l = a;
 7011 183D 6F           	ld l, a
 7012 183E              ; 240         if ((a = CurrentViewId) == DiskViewId) {
 7013 183E 3A 8F 10     	ld a, (currentviewid)
 7014 1841 FE 01        	cp 1
 7015 1843 C2 D2 18     	jp nz, __l_492
 7016 1846              ; 241             if ((a = l) == 0x09) { //0x09 TAB
 7017 1846 7D           	ld a, l
 7018 1847 FE 09        	cp 9
 7019 1849 C2 54 18     	jp nz, __l_494
 7020 184C              ; 242                 CurrentViewChangeIdA(a = FtpViewId);
 7021 184C 3E 02        	ld a, 2
 7022 184E CD 63 0F     	call currentviewchangeida
 7023 1851 C3 D2 18     	jp __l_495
 7024 1854              __l_494:
 7025 1854              ; 243             } else {
 7026 1854              ; 244                 if ((a = l) == 0x1A) { //down
 7027 1854 7D           	ld a, l
 7028 1855 FE 1A        	cp 26
 7029 1857 C2 62 18     	jp nz, __l_496
 7030 185A              ; 245                     DiskViewFileCurrentPosUpdateA(a = 0x01);
 7031 185A 3E 01        	ld a, 1
 7032 185C CD E1 19     	call diskviewfilecurrentposupdatea
 7033 185F C3 D2 18     	jp __l_497
 7034 1862              __l_496:
 7035 1862              ; 246                 } else if ((a = l) == 0x19) { //up
 7036 1862 7D           	ld a, l
 7037 1863 FE 19        	cp 25
 7038 1865 C2 70 18     	jp nz, __l_498
 7039 1868              ; 247                     DiskViewFileCurrentPosUpdateA(a = 0xFF);
 7040 1868 3E FF        	ld a, 255
 7041 186A CD E1 19     	call diskviewfilecurrentposupdatea
 7042 186D C3 D2 18     	jp __l_499
 7043 1870              __l_498:
 7044 1870              ; 248                 } else if ((a = l) == 0x0D) { //Enter
 7045 1870 7D           	ld a, l
 7046 1871 FE 0D        	cp 13
 7047 1873 C2 89 18     	jp nz, __l_500
 7048 1876              ; 249                     if ((a = DiskViewFileCurrentPos) == 0) { // Смена диска
 7049 1876 3A 58 1A     	ld a, (diskviewfilecurrentpos)
 7050 1879 B7           	or a
 7051 187A C2 83 18     	jp nz, __l_502
 7052 187D              ; 250                         DiskViewNextDiskNum();
 7053 187D CD 8A 19     	call diskviewnextdisknum
 7054 1880 C3 86 18     	jp __l_503
 7055 1883              __l_502:
 7056 1883              ; 251                     } else { // Запуск приложения
 7057 1883              ; 252                         DiskViewSelectFileExec();
 7058 1883 CD F3 18     	call diskviewselectfileexec
 7059 1886              __l_503:
 7060 1886 C3 D2 18     	jp __l_501
 7061 1889              __l_500:
 7062 1889              ; 253                     }
 7063 1889              ; 254                 } else if ((a = l) == 'E') {
 7064 1889 7D           	ld a, l
 7065 188A FE 45        	cp 69
 7066 188C C2 A7 18     	jp nz, __l_504
 7067 188F              ; 255                     if ((a = DiskViewFileCurrentPos) > 0) {
 7068 188F 3A 58 1A     	ld a, (diskviewfilecurrentpos)
 7069 1892 B7           	or a
 7070 1893 CA A4 18     	jp z, __l_506
 7071 1896              ; 256                         AllertYesNoViewShowHL(hl = StringLocaleEraseFile);
 7072 1896 21 9C 10     	ld hl, stringlocaleerasefile
 7073 1899 CD F3 29     	call allertyesnoviewshowhl
 7074 189C              ; 257                         if (a == 1) {
 7075 189C FE 01        	cp 1
 7076 189E C2 A4 18     	jp nz, __l_508
 7077 18A1              ; 258                             DiskViewDeleteSelectedFile();
 7078 18A1 CD 98 17     	call diskviewdeleteselectedfile
 7079 18A4              __l_508:
 7080 18A4              __l_506:
 7081 18A4 C3 D2 18     	jp __l_505
 7082 18A7              __l_504:
 7083 18A7              ; 259                         }
 7084 18A7              ; 260                     }
 7085 18A7              ; 261                 } else if ((a = l) == 'D') { //  Показать выбор диска
 7086 18A7 7D           	ld a, l
 7087 18A8 FE 44        	cp 68
 7088 18AA C2 B3 18     	jp nz, __l_510
 7089 18AD              ; 262                     SelectDiskViewShow();
 7090 18AD CD 6F 1A     	call selectdiskviewshow
 7091 18B0 C3 D2 18     	jp __l_511
 7092 18B3              __l_510:
 7093 18B3              ; 263                 } else if ((a = l) == 'C') { // Загрузка файла на FTP
 7094 18B3 7D           	ld a, l
 7095 18B4 FE 43        	cp 67
 7096 18B6 C2 C9 18     	jp nz, __l_512
 7097 18B9              ; 264                     if ((a = DiskViewFileCurrentPos) != 0) {
 7098 18B9 3A 58 1A     	ld a, (diskviewfilecurrentpos)
 7099 18BC B7           	or a
 7100 18BD CA C6 18     	jp z, __l_514
 7101 18C0              ; 265                         DiskViewUploadSelectedFile();
 7102 18C0 CD F4 17     	call diskviewuploadselectedfile
 7103 18C3              ; 266                         FtpViewNetLoadAndUpdate(); // обновляем список файлов FTP
 7104 18C3 CD C8 23     	call ftpviewnetloadandupdate
 7105 18C6              __l_514:
 7106 18C6 C3 D2 18     	jp __l_513
 7107 18C9              __l_512:
 7108 18C9              ; 267                     }
 7109 18C9              ; 268                 } else if ((a = l) == 'F') { //  Отформатировать диск
 7110 18C9 7D           	ld a, l
 7111 18CA FE 46        	cp 70
 7112 18CC C2 D2 18     	jp nz, __l_516
 7113 18CF              ; 269                     DiskViewFormat();
 7114 18CF CD D4 18     	call diskviewformat
 7115 18D2              __l_516:
 7116 18D2              __l_513:
 7117 18D2              __l_511:
 7118 18D2              __l_505:
 7119 18D2              __l_501:
 7120 18D2              __l_499:
 7121 18D2              __l_497:
 7122 18D2              __l_495:
 7123 18D2              __l_492:
 7124 18D2 E1           	pop hl
 7125 18D3 C9           	ret
 7126 18D4              ; 270                 }
 7127 18D4              ; 271             }
 7128 18D4              ; 272         }
 7129 18D4              ; 273     }
 7130 18D4              ; 274 }
 7131 18D4              ; 275
 7132 18D4              ; 276 void DiskViewFormat() {
 7133 18D4              diskviewformat:
 7134 18D4              ; 277     push_pop(hl) {
 7135 18D4 E5           	push hl
 7136 18D5              ; 278         AllertYesNoViewShowHL(hl = StringLocaleDiskFormat);
 7137 18D5 21 14 11     	ld hl, stringlocalediskformat
 7138 18D8 CD F3 29     	call allertyesnoviewshowhl
 7139 18DB              ; 279         if (a == 1) {
 7140 18DB FE 01        	cp 1
 7141 18DD C2 F1 18     	jp nz, __l_518
 7142 18E0              ; 280             a = DiskViewDiskNum;
 7143 18E0 3A 54 1A     	ld a, (diskviewdisknum)
 7144 18E3              ; 281             ordos_wnd();
 7145 18E3 CD D6 BF     	call ordos_wnd
 7146 18E6              ; 282             hl = 0;
 7147 18E6 21 00 00     	ld hl, 0
 7148 18E9              ; 283             ordos_wdisk(a = 0xFF);
 7149 18E9 3E FF        	ld a, 255
 7150 18EB CD DF BF     	call ordos_wdisk
 7151 18EE              ; 284             DiskViewReload();
 7152 18EE CD AA 19     	call diskviewreload
 7153 18F1              __l_518:
 7154 18F1 E1           	pop hl
 7155 18F2 C9           	ret
 7156 18F3              ; 285         }
 7157 18F3              ; 286     }
 7158 18F3              ; 287 }
 7159 18F3              ; 288
 7160 18F3              ; 289 void DiskViewSelectFileExec() {
 7161 18F3              diskviewselectfileexec:
 7162 18F3              ; 290     push_pop(hl,de,bc) {
 7163 18F3 E5           	push hl
 7164 18F4 D5           	push de
 7165 18F5 C5           	push bc
 7166 18F6              ; 291         //
 7167 18F6              ; 292         unpackCharCode();
 7168 18F6 CD 2D F8     	call unpackcharcode
 7169 18F9              ; 293         //-- ResidentProgram Copy
 7170 18F9              ; 294         push_pop(de,bc) {
 7171 18F9 D5           	push de
 7172 18FA C5           	push bc
 7173 18FB              ; 295             de = DiskViewExecData;
 7174 18FB 11 67 1A     	ld de, diskviewexecdata
 7175 18FE              ; 296             hl = 0xA800; //0xF000;
 7176 18FE 21 00 A8     	ld hl, 43008
 7177 1901              ; 297             b = 8;
 7178 1901 06 08        	ld b, 8
 7179 1903              ; 298             do {
 7180 1903              __l_520:
 7181 1903              ; 299                 a = *de;
 7182 1903 1A           	ld a, (de)
 7183 1904              ; 300                 *hl = a;
 7184 1904 77           	ld (hl), a
 7185 1905              ; 301                 de++;
 7186 1905 13           	inc de
 7187 1906              ; 302                 hl++;
 7188 1906 23           	inc hl
 7189 1907              ; 303                 b--;
 7190 1907 05           	dec b
 7191 1908              __l_521:
 7192 1908              ; 304             } while ((a = b) > 0);
 7193 1908 78           	ld a, b
 7194 1909 B7           	or a
 7195 190A C2 03 19     	jp nz, __l_520
 7196 190D C1           	pop bc
 7197 190E D1           	pop de
 7198 190F              ; 305         }
 7199 190F              ; 306         //--
 7200 190F              ; 307         //unpackCharCode();
 7201 190F              ; 308         //--
 7202 190F              ; 309         a = DiskViewDiskNum;
 7203 190F 3A 54 1A     	ld a, (diskviewdisknum)
 7204 1912              ; 310         ordos_wnd();
 7205 1912 CD D6 BF     	call ordos_wnd
 7206 1915              ; 311         DiskViewCurrentFileNameHL();
 7207 1915 CD 63 17     	call diskviewcurrentfilenamehl
 7208 1918              ; 312         DiskViewResidentProgram();
 7209 1918 CD 00 A8     	call diskviewresidentprogram
 7210 191B C1           	pop bc
 7211 191C D1           	pop de
 7212 191D E1           	pop hl
 7213 191E C9           	ret
 7214 191F              ; 313         //-- Go to height
 7215 191F              ; 314 //        ordos_sdma();
 7216 191F              ; 315 //        ordos_rfile();
 7217 191F              ; 316 //
 7218 191F              ; 317 //        return hl();
 7219 191F              ; 318     }
 7220 191F              ; 319 }
 7221 191F              ; 320
 7222 191F              ; 321 /// Проверка, хватит ли места на текущем диске для файла
 7223 191F              ; 322 /// вх[DE] - размер предпологаемого файла. Еще надо прибавить 16 - для заголовка
 7224 191F              ; 323 /// вых[A] - 0 - места нет, 1 - место есть
 7225 191F              ; 324 void DiskViewIsDiskSpaceDE() {
 7226 191F              diskviewisdiskspacede:
 7227 191F              ; 325     push_pop(hl, de) {
 7228 191F E5           	push hl
 7229 1920 D5           	push de
 7230 1921              ; 326         //-- Add 16
 7231 1921              ; 327         hl = 16;
 7232 1921 21 10 00     	ld hl, 16
 7233 1924              ; 328         hl += de;
 7234 1924 19           	add hl, de
 7235 1925              ; 329         d = h;
 7236 1925 54           	ld d, h
 7237 1926              ; 330         e = l;
 7238 1926 5D           	ld e, l
 7239 1927              ; 331         //--
 7240 1927              ; 332         DiskViewDiskFreeSpaceHL();
 7241 1927 CD 46 19     	call diskviewdiskfreespacehl
 7242 192A              ; 333         DiskViewHLSubDE();
 7243 192A CD 30 19     	call diskviewhlsubde
 7244 192D D1           	pop de
 7245 192E E1           	pop hl
 7246 192F C9           	ret
 7247 1930              ; 334     }
 7248 1930              ; 335 }
 7249 1930              ; 336
 7250 1930              ; 337 /// HL = HL + (-DE)
 7251 1930              ; 338 /// вх[DE,HL]
 7252 1930              ; 339 /// вых[HL, A] - HL - результат вычитания , A = 1 HL > DE
 7253 1930              ; 340 void DiskViewHLSubDE() {
 7254 1930              diskviewhlsubde:
 7255 1930              ; 341     push_pop(de) {
 7256 1930 D5           	push de
 7257 1931              ; 342         a = d; // Инвертируем старший байт D
 7258 1931 7A           	ld a, d
 7259 1932              ; 343         invert(a);
 7260 1932 2F           	cpl
 7261 1933              ; 344         d = a;
 7262 1933 57           	ld d, a
 7263 1934              ; 345         a = e; // Инвертируем младший байт E
 7264 1934 7B           	ld a, e
 7265 1935              ; 346         invert(a);
 7266 1935 2F           	cpl
 7267 1936              ; 347         e = a;
 7268 1936 5F           	ld e, a
 7269 1937              ; 348         de++; // Получаем точный дополнительный код DE (-DE)
 7270 1937 13           	inc de
 7271 1938              ; 349         a ^= a;
 7272 1938 AF           	xor a
 7273 1939              ; 350         hl += de; // HL = HL + (-DE), что эквивалентно HL - DE
 7274 1939 19           	add hl, de
 7275 193A              ; 351         if (flag_c) { // Если HL > DE: перенос будет C = 1.
 7276 193A D2 42 19     	jp nc, __l_523
 7277 193D              ; 352             a = 1;
 7278 193D 3E 01        	ld a, 1
 7279 193F C3 44 19     	jp __l_524
 7280 1942              __l_523:
 7281 1942              ; 353         } else {
 7282 1942              ; 354             a = 0;
 7283 1942 3E 00        	ld a, 0
 7284 1944              __l_524:
 7285 1944 D1           	pop de
 7286 1945 C9           	ret
 7287 1946              ; 355         }
 7288 1946              ; 356     }
 7289 1946              ; 357 }
 7290 1946              ; 358
 7291 1946              ; 359 /// Возвращает свободное место на диске
 7292 1946              ; 360 /// вых[HL] - результат
 7293 1946              ; 361 void DiskViewDiskFreeSpaceHL() {
 7294 1946              diskviewdiskfreespacehl:
 7295 1946              ; 362     push_pop(de) {
 7296 1946 D5           	push de
 7297 1947              ; 363         a = DiskViewDiskNum;
 7298 1947 3A 54 1A     	ld a, (diskviewdisknum)
 7299 194A              ; 364         ordos_wnd();
 7300 194A CD D6 BF     	call ordos_wnd
 7301 194D              ; 365         ordos_mxdsk();
 7302 194D CD B8 BF     	call ordos_mxdsk
 7303 1950              ; 366         d = h;
 7304 1950 54           	ld d, h
 7305 1951              ; 367         e = l;
 7306 1951 5D           	ld e, l
 7307 1952              ; 368         //--
 7308 1952              ; 369         ordos_rmax();
 7309 1952 CD C1 BF     	call ordos_rmax
 7310 1955              ; 370         //--
 7311 1955              ; 371         DiskViewHLSubDE();
 7312 1955 CD 30 19     	call diskviewhlsubde
 7313 1958 D1           	pop de
 7314 1959 C9           	ret
 7315 195A              ; 372     }
 7316 195A              ; 373 }
 7317 195A              ; 374
 7318 195A              ; 375 void DiskViewShowFreeSpace() {
 7319 195A              diskviewshowfreespace:
 7320 195A              ; 376     push_pop(de, hl) {
 7321 195A D5           	push de
 7322 195B E5           	push hl
 7323 195C              ; 377         a = DiskViewX;
 7324 195C 3A 4E 1A     	ld a, (diskviewx)
 7325 195F              ; 378         e = a;
 7326 195F 5F           	ld e, a
 7327 1960              ; 379         a = DiskViewDX;
 7328 1960 3A 50 1A     	ld a, (diskviewdx)
 7329 1963              ; 380         a += e;
 7330 1963 83           	add e
 7331 1964              ; 381         a -= 7;
 7332 1964 D6 07        	sub 7
 7333 1966              ; 382         myCharPosX = a;
 7334 1966 32 E3 0E     	ld (mycharposx), a
 7335 1969              ; 383         a = DiskViewY;
 7336 1969 3A 4F 1A     	ld a, (diskviewy)
 7337 196C              ; 384         e = a;
 7338 196C 5F           	ld e, a
 7339 196D              ; 385         a = DiskViewDY;
 7340 196D 3A 51 1A     	ld a, (diskviewdy)
 7341 1970              ; 386         a += e;
 7342 1970 83           	add e
 7343 1971              ; 387         a--;
 7344 1971 3D           	dec a
 7345 1972              ; 388         myCharPosY = a;
 7346 1972 32 E4 0E     	ld (mycharposy), a
 7347 1975              ; 389         //-- 0xB5
 7348 1975              ; 390         printMyCharA(a = 0xB5);
 7349 1975 3E B5        	ld a, 181
 7350 1977 CD 4E 0D     	call printmychara
 7351 197A              ; 391         //--
 7352 197A              ; 392         DiskViewDiskFreeSpaceHL();
 7353 197A CD 46 19     	call diskviewdiskfreespacehl
 7354 197D              ; 393         d = h;
 7355 197D 54           	ld d, h
 7356 197E              ; 394         e = l;
 7357 197E 5D           	ld e, l
 7358 197F              ; 395         FtpViewShow4CharSizeDE();
 7359 197F CD 9A 21     	call ftpviewshow4charsizede
 7360 1982              ; 396         //-- 0xC6
 7361 1982              ; 397         printMyCharA(a = 0xC6);
 7362 1982 3E C6        	ld a, 198
 7363 1984 CD 4E 0D     	call printmychara
 7364 1987 E1           	pop hl
 7365 1988 D1           	pop de
 7366 1989 C9           	ret
 7367 198A              ; 398     }
 7368 198A              ; 399 }
 7369 198A              ; 400
 7370 198A              ; 401 void DiskViewNextDiskNum() {
 7371 198A              diskviewnextdisknum:
 7372 198A              ; 402     a = DiskViewDiskNum;
 7373 198A 3A 54 1A     	ld a, (diskviewdisknum)
 7374 198D              ; 403     a++;
 7375 198D 3C           	inc a
 7376 198E              ; 404     if (a == 'E') {
 7377 198E FE 45        	cp 69
 7378 1990 C2 95 19     	jp nz, __l_525
 7379 1993              ; 405         a = 'A';
 7380 1993 3E 41        	ld a, 65
 7381 1995              __l_525:
 7382 1995              ; 406     }
 7383 1995              ; 407     DiskViewSetDiskNumA();
 7384 1995              ; 408 }
 7385 1995              ; 409
 7386 1995              ; 410 void DiskViewSetDiskNumA() {
 7387 1995              diskviewsetdisknuma:
 7388 1995              ; 411     push_pop(bc) {
 7389 1995 C5           	push bc
 7390 1996              ; 412         c = a;
 7391 1996 4F           	ld c, a
 7392 1997              ; 413         a = DiskViewDiskNum;
 7393 1997 3A 54 1A     	ld a, (diskviewdisknum)
 7394 199A              ; 414         if (a != c) {
 7395 199A B9           	cp c
 7396 199B CA A8 19     	jp z, __l_527
 7397 199E              ; 415             a = c;
 7398 199E 79           	ld a, c
 7399 199F              ; 416             DiskViewDiskNum = a;
 7400 199F 32 54 1A     	ld (diskviewdisknum), a
 7401 19A2              ; 417             #ifdef _IS_SIMULATOR
 7402 19A2              ; 418             #else
 7403 19A2              ; 419                 NetDiskSetNum();
 7404 19A2 CD F8 05     	call netdisksetnum
 7405 19A5              ; 420             #endif
 7406 19A5              ; 421             DiskViewReload();
 7407 19A5 CD AA 19     	call diskviewreload
 7408 19A8              __l_527:
 7409 19A8 C1           	pop bc
 7410 19A9 C9           	ret
 7411 19AA              ; 422         }
 7412 19AA              ; 423     }
 7413 19AA              ; 424 }
 7414 19AA              ; 425
 7415 19AA              ; 426 void DiskViewReload() {
 7416 19AA              diskviewreload:
 7417 19AA              ; 427     DiskViewShowSelectLineA(a = 0);
 7418 19AA 3E 00        	ld a, 0
 7419 19AC CD 18 1A     	call diskviewshowselectlinea
 7420 19AF              ; 428     a = 0;
 7421 19AF 3E 00        	ld a, 0
 7422 19B1              ; 429     DiskViewFileCurrentPos = a;
 7423 19B1 32 58 1A     	ld (diskviewfilecurrentpos), a
 7424 19B4              ; 430     DiskViewUpdateDiskTitle();
 7425 19B4 CD CD 19     	call diskviewupdatedisktitle
 7426 19B7              ; 431     DiskViewUpdateDateAndUI();
 7427 19B7              ; 432 }
 7428 19B7              ; 433
 7429 19B7              ; 434 void DiskViewUpdateDateAndUI() {
 7430 19B7              diskviewupdatedateandui:
 7431 19B7              ; 435     DiskViewUpdateDir();
 7432 19B7 CD AE 16     	call diskviewupdatedir
 7433 19BA              ; 436     DiskViewShowDir();
 7434 19BA CD C0 16     	call diskviewshowdir
 7435 19BD              ; 437     if ((a = CurrentViewId) == DiskViewId) {
 7436 19BD 3A 8F 10     	ld a, (currentviewid)
 7437 19C0 FE 01        	cp 1
 7438 19C2 C2 CA 19     	jp nz, __l_529
 7439 19C5              ; 438         DiskViewShowSelectLineA(a = 1);
 7440 19C5 3E 01        	ld a, 1
 7441 19C7 CD 18 1A     	call diskviewshowselectlinea
 7442 19CA              __l_529:
 7443 19CA              ; 439     }
 7444 19CA              ; 440     DiskViewShowFreeSpace();
 7445 19CA C3 5A 19     	jp diskviewshowfreespace
 7446 19CD              ; 441 }
 7447 19CD              ; 442
 7448 19CD              ; 443 void DiskViewUpdateDiskTitle() {
 7449 19CD              diskviewupdatedisktitle:
 7450 19CD              ; 444     a = DiskViewX;
 7451 19CD 3A 4E 1A     	ld a, (diskviewx)
 7452 19D0              ; 445     a += 7;
 7453 19D0 C6 07        	add 7
 7454 19D2              ; 446     myCharPosX = a;
 7455 19D2 32 E3 0E     	ld (mycharposx), a
 7456 19D5              ; 447     a = DiskViewY;
 7457 19D5 3A 4F 1A     	ld a, (diskviewy)
 7458 19D8              ; 448     myCharPosY = a;
 7459 19D8 32 E4 0E     	ld (mycharposy), a
 7460 19DB              ; 449     printMyCharA(a = DiskViewDiskNum);
 7461 19DB 3A 54 1A     	ld a, (diskviewdisknum)
 7462 19DE C3 4E 0D     	jp printmychara
 7463 19E1              ; 450 }
 7464 19E1              ; 451
 7465 19E1              ; 452 /// Обновление позиции
 7466 19E1              ; 453 /// вх[A]
 7467 19E1              ; 454 /// 0 - без изменений
 7468 19E1              ; 455 /// 1 - вверх
 7469 19E1              ; 456 /// 0xFF - вниз
 7470 19E1              ; 457 void DiskViewFileCurrentPosUpdateA() {
 7471 19E1              diskviewfilecurrentposupdatea:
 7472 19E1              ; 458     push_pop(bc) {
 7473 19E1 C5           	push bc
 7474 19E2              ; 459         b = a;
 7475 19E2 47           	ld b, a
 7476 19E3              ; 460         if (a == 0) {
 7477 19E3 B7           	or a
 7478 19E4 C2 EF 19     	jp nz, __l_531
 7479 19E7              ; 461             DiskViewShowSelectLineA(a = 1);
 7480 19E7 3E 01        	ld a, 1
 7481 19E9 CD 18 1A     	call diskviewshowselectlinea
 7482 19EC C3 16 1A     	jp __l_532
 7483 19EF              __l_531:
 7484 19EF              ; 462         } else {
 7485 19EF              ; 463             a = DiskViewDirCount;
 7486 19EF 3A 55 1A     	ld a, (diskviewdircount)
 7487 19F2              ; 464             a += 1;
 7488 19F2 C6 01        	add 1
 7489 19F4              ; 465             c = a;
 7490 19F4 4F           	ld c, a
 7491 19F5              ; 466             DiskViewShowSelectLineA(a = 0);
 7492 19F5 3E 00        	ld a, 0
 7493 19F7 CD 18 1A     	call diskviewshowselectlinea
 7494 19FA              ; 467             a = DiskViewFileCurrentPos;
 7495 19FA 3A 58 1A     	ld a, (diskviewfilecurrentpos)
 7496 19FD              ; 468             a += b;
 7497 19FD 80           	add b
 7498 19FE              ; 469             //
 7499 19FE              ; 470             if (a == 0xFF) {
 7500 19FE FE FF        	cp 255
 7501 1A00 C2 08 1A     	jp nz, __l_533
 7502 1A03              ; 471                 a = c;
 7503 1A03 79           	ld a, c
 7504 1A04              ; 472                 a--;
 7505 1A04 3D           	dec a
 7506 1A05 C3 0E 1A     	jp __l_534
 7507 1A08              __l_533:
 7508 1A08              ; 473             } else if (a == c) {
 7509 1A08 B9           	cp c
 7510 1A09 C2 0E 1A     	jp nz, __l_535
 7511 1A0C              ; 474                 a = 0;
 7512 1A0C 3E 00        	ld a, 0
 7513 1A0E              __l_535:
 7514 1A0E              __l_534:
 7515 1A0E              ; 475             }
 7516 1A0E              ; 476             DiskViewFileCurrentPos = a;
 7517 1A0E 32 58 1A     	ld (diskviewfilecurrentpos), a
 7518 1A11              ; 477             DiskViewShowSelectLineA(a = 1);
 7519 1A11 3E 01        	ld a, 1
 7520 1A13 CD 18 1A     	call diskviewshowselectlinea
 7521 1A16              __l_532:
 7522 1A16 C1           	pop bc
 7523 1A17 C9           	ret
 7524 1A18              ; 478         }
 7525 1A18              ; 479     }
 7526 1A18              ; 480 }
 7527 1A18              ; 481
 7528 1A18              ; 482 /// Рисование линии прямым или инверсным цветом
 7529 1A18              ; 483 /// 0 - прямой
 7530 1A18              ; 484 /// 1 - инверсный
 7531 1A18              ; 485 void DiskViewShowSelectLineA() {
 7532 1A18              diskviewshowselectlinea:
 7533 1A18              ; 486     push_pop(bc, hl, de) {
 7534 1A18 C5           	push bc
 7535 1A19 E5           	push hl
 7536 1A1A D5           	push de
 7537 1A1B              ; 487         c = a;
 7538 1A1B 4F           	ld c, a
 7539 1A1C              ; 488         // HL
 7540 1A1C              ; 489         a = DiskViewFileCurrentPos;
 7541 1A1C 3A 58 1A     	ld a, (diskviewfilecurrentpos)
 7542 1A1F              ; 490         b = a;
 7543 1A1F 47           	ld b, a
 7544 1A20              ; 491         a = DiskViewY;
 7545 1A20 3A 4F 1A     	ld a, (diskviewy)
 7546 1A23              ; 492         a += 2;
 7547 1A23 C6 02        	add 2
 7548 1A25              ; 493         a += b;
 7549 1A25 80           	add b
 7550 1A26              ; 494         l = a;
 7551 1A26 6F           	ld l, a
 7552 1A27              ; 495         a = DiskViewX;
 7553 1A27 3A 4E 1A     	ld a, (diskviewx)
 7554 1A2A              ; 496         a += 1;
 7555 1A2A C6 01        	add 1
 7556 1A2C              ; 497         h = a;
 7557 1A2C 67           	ld h, a
 7558 1A2D              ; 498         // DE
 7559 1A2D              ; 499         a = DiskViewDX;
 7560 1A2D 3A 50 1A     	ld a, (diskviewdx)
 7561 1A30              ; 500         a -= 2;
 7562 1A30 D6 02        	sub 2
 7563 1A32              ; 501         d = a;
 7564 1A32 57           	ld d, a
 7565 1A33              ; 502         a = 1;
 7566 1A33 3E 01        	ld a, 1
 7567 1A35              ; 503         e = a;
 7568 1A35 5F           	ld e, a
 7569 1A36              ; 504         // C
 7570 1A36              ; 505         if ((a = c) == 0) {
 7571 1A36 79           	ld a, c
 7572 1A37 B7           	or a
 7573 1A38 C2 41 1A     	jp nz, __l_537
 7574 1A3B              ; 506             a = DiskViewColor;
 7575 1A3B 3A 52 1A     	ld a, (diskviewcolor)
 7576 1A3E C3 44 1A     	jp __l_538
 7577 1A41              __l_537:
 7578 1A41              ; 507         } else {
 7579 1A41              ; 508             a = DiskViewInvColor;
 7580 1A41 3A 53 1A     	ld a, (diskviewinvcolor)
 7581 1A44              __l_538:
 7582 1A44              ; 509         }
 7583 1A44              ; 510         c = a;
 7584 1A44 4F           	ld c, a
 7585 1A45              ; 511         // A
 7586 1A45              ; 512         a = vboxUMP;
 7587 1A45 3E 04        	ld a, 4
 7588 1A47              ; 513         vboxOpenHLDECA();
 7589 1A47 CD 6D 39     	call vboxopenhldeca
 7590 1A4A D1           	pop de
 7591 1A4B E1           	pop hl
 7592 1A4C C1           	pop bc
 7593 1A4D C9           	ret
 7594 1A4E              ; 514     }
 7595 1A4E              ; 515 }
 7596 1A4E              ; 516
 7597 1A4E              ; 517 uint8_t DiskViewX = 28;
 7598 1A4E              diskviewx:
 7599 1A4E 1C           	db 28
 7600 1A4F              ; 518 uint8_t DiskViewY = 4;
 7601 1A4F              diskviewy:
 7602 1A4F 04           	db 4
 7603 1A50              ; 519 uint8_t DiskViewDX = 20;
 7604 1A50              diskviewdx:
 7605 1A50 14           	db 20
 7606 1A51              ; 520 uint8_t DiskViewDY = 25;
 7607 1A51              diskviewdy:
 7608 1A51 19           	db 25
 7609 1A52              ; 521 uint8_t DiskViewColor = 0x1F;
 7610 1A52              diskviewcolor:
 7611 1A52 1F           	db 31
 7612 1A53              ; 522 uint8_t DiskViewInvColor = 0xF1;
 7613 1A53              diskviewinvcolor:
 7614 1A53 F1           	db 241
 7615 1A54              ; 524 uint8_t DiskViewDiskNum = 'B';
 7616 1A54              diskviewdisknum:
 7617 1A54 42           	db 66
 7618 1A55              ; 525 uint8_t DiskViewDirCount = 0;
 7619 1A55              diskviewdircount:
 7620 1A55 00           	db 0
 7621 1A56              ; 526 uint16_t DiskViewDirBufer = 0x0000;
 7622 1A56              diskviewdirbufer:
 7623 1A56 00 00        	dw 0
 7624 1A58              ; 527 uint8_t DiskViewFileCurrentPos = 0;
 7625 1A58              diskviewfilecurrentpos:
 7626 1A58 00           	db 0
 7627 1A59              ; 529 uint16_t DiskViewStartNewFile = 0x0000;
 7628 1A59              diskviewstartnewfile:
 7629 1A59 00 00        	dw 0
 7630 1A5B              ; 531 uint8_t DiskViewDirRootTitle[] = "..";
 7631 1A5B              diskviewdirroottitle:
 7632 1A5B 2E           	db 46
 7633 1A5C 2E           	db 46
 7634 1A5D 00           	ds 1
 7635 1A5E              ; 532 uint8_t DiskViewTitle[] = {0xB5, 'D', 'i', 's', 'k', ':', 'A', 0xC6, '\0'};
 7636 1A5E              diskviewtitle:
 7637 1A5E B5           	db 181
 7638 1A5F 44           	db 68
 7639 1A60 69           	db 105
 7640 1A61 73           	db 115
 7641 1A62 6B           	db 107
 7642 1A63 3A           	db 58
 7643 1A64 41           	db 65
 7644 1A65 C6           	db 198
 7645 1A66 00           	db 0
 7646 1A67              ; 535 uint8_t DiskViewExecData[] = {0xCD , 0xD0 , 0xBF , 0xCD , 0xFA , 0xBF , 0xE9 , 0x00};
 7647 1A67              diskviewexecdata:
 7648 1A67 CD           	db 205
 7649 1A68 D0           	db 208
 7650 1A69 BF           	db 191
 7651 1A6A CD           	db 205
 7652 1A6B FA           	db 250
 7653 1A6C BF           	db 191
 7654 1A6D E9           	db 233
 7655 1A6E 00           	db 0
 7656 1A6F              ; 11 void SelectDiskViewShow() {
 7657 1A6F              selectdiskviewshow:
 7658 1A6F              ; 12     CurrentViewChangeAndPushIdA(a = SelectDiskViewId);
 7659 1A6F 3E 03        	ld a, 3
 7660 1A71 CD 58 0F     	call currentviewchangeandpushida
 7661 1A74              ; 13     push_pop(bc, hl, de) {
 7662 1A74 C5           	push bc
 7663 1A75 E5           	push hl
 7664 1A76 D5           	push de
 7665 1A77              ; 14         a = SelectDiskViewX;
 7666 1A77 3A D2 1B     	ld a, (selectdiskviewx)
 7667 1A7A              ; 15         h = a;
 7668 1A7A 67           	ld h, a
 7669 1A7B              ; 16         a = SelectDiskViewY;
 7670 1A7B 3A D3 1B     	ld a, (selectdiskviewy)
 7671 1A7E              ; 17         l = a;
 7672 1A7E 6F           	ld l, a
 7673 1A7F              ; 18         a = SelectDiskViewDX;
 7674 1A7F 3A D4 1B     	ld a, (selectdiskviewdx)
 7675 1A82              ; 19         d = a;
 7676 1A82 57           	ld d, a
 7677 1A83              ; 20         a = SelectDiskViewDY;
 7678 1A83 3A D5 1B     	ld a, (selectdiskviewdy)
 7679 1A86              ; 21         e = a;
 7680 1A86 5F           	ld e, a
 7681 1A87              ; 22         a = SelectDiskViewColor;
 7682 1A87 3A D6 1B     	ld a, (selectdiskviewcolor)
 7683 1A8A              ; 23         c = a;
 7684 1A8A 4F           	ld c, a
 7685 1A8B              ; 24         a = vboxCLW;
 7686 1A8B 3E 40        	ld a, 64
 7687 1A8D              ; 25         a |= vboxFRM;
 7688 1A8D F6 20        	or 32
 7689 1A8F              ; 26         a |= vboxSDW;
 7690 1A8F F6 10        	or 16
 7691 1A91              ; 27         a |= vboxSAV;
 7692 1A91 F6 08        	or 8
 7693 1A93              ; 28         a |= vboxUMP;
 7694 1A93 F6 04        	or 4
 7695 1A95              ; 29         vboxOpenHLDECA();
 7696 1A95 CD 6D 39     	call vboxopenhldeca
 7697 1A98              ; 30
 7698 1A98              ; 31         a = DiskViewDiskNum;
 7699 1A98 3A 54 1A     	ld a, (diskviewdisknum)
 7700 1A9B              ; 32         a -= 'A';
 7701 1A9B D6 41        	sub 65
 7702 1A9D              ; 33         SelectDiskViewCurrentPos = a;
 7703 1A9D 32 D8 1B     	ld (selectdiskviewcurrentpos), a
 7704 1AA0              ; 34
 7705 1AA0              ; 35         SelectDiskViewShowDiskList();
 7706 1AA0 CD AC 1A     	call selectdiskviewshowdisklist
 7707 1AA3              ; 36         SelectDiskViewUpdateSelectA(a = 1);
 7708 1AA3 3E 01        	ld a, 1
 7709 1AA5 CD 20 1B     	call selectdiskviewupdateselecta
 7710 1AA8 D1           	pop de
 7711 1AA9 E1           	pop hl
 7712 1AAA C1           	pop bc
 7713 1AAB C9           	ret
 7714 1AAC              ; 37     }
 7715 1AAC              ; 38 }
 7716 1AAC              ; 39
 7717 1AAC              ; 40 void SelectDiskViewShowDiskList() {
 7718 1AAC              selectdiskviewshowdisklist:
 7719 1AAC              ; 41     push_pop(bc) {
 7720 1AAC C5           	push bc
 7721 1AAD              ; 42         // Title
 7722 1AAD              ; 43         a = SelectDiskViewY;
 7723 1AAD 3A D3 1B     	ld a, (selectdiskviewy)
 7724 1AB0              ; 44         a += 1;
 7725 1AB0 C6 01        	add 1
 7726 1AB2              ; 45         myCharPosY = a;
 7727 1AB2 32 E4 0E     	ld (mycharposy), a
 7728 1AB5              ; 46         a = SelectDiskViewX;
 7729 1AB5 3A D2 1B     	ld a, (selectdiskviewx)
 7730 1AB8              ; 47         a += 4;
 7731 1AB8 C6 04        	add 4
 7732 1ABA              ; 48         myCharPosX = a;
 7733 1ABA 32 E3 0E     	ld (mycharposx), a
 7734 1ABD              ; 49         printMyHLStr(hl = SelectDiskViewSelectTitle);
 7735 1ABD 21 D9 1B     	ld hl, selectdiskviewselecttitle
 7736 1AC0 CD ED 0C     	call printmyhlstr
 7737 1AC3              ; 50         // SubTitle
 7738 1AC3              ; 51         a = SelectDiskViewY;
 7739 1AC3 3A D3 1B     	ld a, (selectdiskviewy)
 7740 1AC6              ; 52         a += 2;
 7741 1AC6 C6 02        	add 2
 7742 1AC8              ; 53         myCharPosY = a;
 7743 1AC8 32 E4 0E     	ld (mycharposy), a
 7744 1ACB              ; 54         a = SelectDiskViewX;
 7745 1ACB 3A D2 1B     	ld a, (selectdiskviewx)
 7746 1ACE              ; 55         a += 4;
 7747 1ACE C6 04        	add 4
 7748 1AD0              ; 56         myCharPosX = a;
 7749 1AD0 32 E3 0E     	ld (mycharposx), a
 7750 1AD3              ; 57         printMyHLStr(hl = SelectDiskViewSelectSubTitle);
 7751 1AD3 21 E0 1B     	ld hl, selectdiskviewselectsubtitle
 7752 1AD6 CD ED 0C     	call printmyhlstr
 7753 1AD9              ; 58         // LINE!!!
 7754 1AD9              ; 59         a = SelectDiskViewX;
 7755 1AD9 3A D2 1B     	ld a, (selectdiskviewx)
 7756 1ADC              ; 60         a += 1;
 7757 1ADC C6 01        	add 1
 7758 1ADE              ; 61         myCharPosX = a;
 7759 1ADE 32 E3 0E     	ld (mycharposx), a
 7760 1AE1              ; 62         a = SelectDiskViewY;
 7761 1AE1 3A D3 1B     	ld a, (selectdiskviewy)
 7762 1AE4              ; 63         a += 3;
 7763 1AE4 C6 03        	add 3
 7764 1AE6              ; 64         myCharPosY = a;
 7765 1AE6 32 E4 0E     	ld (mycharposy), a
 7766 1AE9              ; 65         a = SelectDiskViewDX;
 7767 1AE9 3A D4 1B     	ld a, (selectdiskviewdx)
 7768 1AEC              ; 66         a -= 2;
 7769 1AEC D6 02        	sub 2
 7770 1AEE              ; 67         b = a;
 7771 1AEE 47           	ld b, a
 7772 1AEF              ; 68         do {
 7773 1AEF              __l_539:
 7774 1AEF              ; 69             printMyCharA(a = 0x5F);
 7775 1AEF 3E 5F        	ld a, 95
 7776 1AF1 CD 4E 0D     	call printmychara
 7777 1AF4              ; 70             b--;
 7778 1AF4 05           	dec b
 7779 1AF5              __l_540:
 7780 1AF5              ; 71         } while ((a = b) > 0);
 7781 1AF5 78           	ld a, b
 7782 1AF6 B7           	or a
 7783 1AF7 C2 EF 1A     	jp nz, __l_539
 7784 1AFA              ; 72         // Disk List
 7785 1AFA              ; 73         a = SelectDiskViewY;
 7786 1AFA 3A D3 1B     	ld a, (selectdiskviewy)
 7787 1AFD              ; 74         a += 6;
 7788 1AFD C6 06        	add 6
 7789 1AFF              ; 75         myCharPosY = a;
 7790 1AFF 32 E4 0E     	ld (mycharposy), a
 7791 1B02              ; 76         a = SelectDiskViewX;
 7792 1B02 3A D2 1B     	ld a, (selectdiskviewx)
 7793 1B05              ; 77         a += 2;
 7794 1B05 C6 02        	add 2
 7795 1B07              ; 78         myCharPosX = a;
 7796 1B07 32 E3 0E     	ld (mycharposx), a
 7797 1B0A              ; 79         b = 0;
 7798 1B0A 06 00        	ld b, 0
 7799 1B0C              ; 80         do {
 7800 1B0C              __l_542:
 7801 1B0C              ; 81             a = b;
 7802 1B0C 78           	ld a, b
 7803 1B0D              ; 82             a += 'A';
 7804 1B0D C6 41        	add 65
 7805 1B0F              ; 83             printMyCharA();
 7806 1B0F CD 4E 0D     	call printmychara
 7807 1B12              ; 84             myCharPosXSpaceA(a = 2);
 7808 1B12 3E 02        	ld a, 2
 7809 1B14 CD A3 0D     	call mycharposxspacea
 7810 1B17              ; 85             b++;
 7811 1B17 04           	inc b
 7812 1B18              __l_543:
 7813 1B18              ; 86         } while ((a = b) < 4);
 7814 1B18 78           	ld a, b
 7815 1B19 FE 04        	cp 4
 7816 1B1B DA 0C 1B     	jp c, __l_542
 7817 1B1E C1           	pop bc
 7818 1B1F C9           	ret
 7819 1B20              ; 87     }
 7820 1B20              ; 88 }
 7821 1B20              ; 89
 7822 1B20              ; 90 /// 0 - прямой
 7823 1B20              ; 91 /// 1 - инверсный
 7824 1B20              ; 92 void SelectDiskViewUpdateSelectA() {
 7825 1B20              selectdiskviewupdateselecta:
 7826 1B20              ; 93     push_pop(bc, hl, de) {
 7827 1B20 C5           	push bc
 7828 1B21 E5           	push hl
 7829 1B22 D5           	push de
 7830 1B23              ; 94         c = a;
 7831 1B23 4F           	ld c, a
 7832 1B24              ; 95         // HL
 7833 1B24              ; 96         a = SelectDiskViewCurrentPos;
 7834 1B24 3A D8 1B     	ld a, (selectdiskviewcurrentpos)
 7835 1B27              ; 97         b = a;
 7836 1B27 47           	ld b, a
 7837 1B28              ; 98         a = SelectDiskViewX;
 7838 1B28 3A D2 1B     	ld a, (selectdiskviewx)
 7839 1B2B              ; 99         a += 1;
 7840 1B2B C6 01        	add 1
 7841 1B2D              ; 100         h = a;
 7842 1B2D 67           	ld h, a
 7843 1B2E              ; 101         if ((a = b) > 0) {
 7844 1B2E 78           	ld a, b
 7845 1B2F B7           	or a
 7846 1B30 CA 3D 1B     	jp z, __l_545
 7847 1B33              ; 102             do {
 7848 1B33              __l_547:
 7849 1B33              ; 103                 a = h;
 7850 1B33 7C           	ld a, h
 7851 1B34              ; 104                 a += 3;
 7852 1B34 C6 03        	add 3
 7853 1B36              ; 105                 h = a;
 7854 1B36 67           	ld h, a
 7855 1B37              ; 106                 b--;
 7856 1B37 05           	dec b
 7857 1B38              __l_548:
 7858 1B38              ; 107             } while ((a = b) > 0);
 7859 1B38 78           	ld a, b
 7860 1B39 B7           	or a
 7861 1B3A C2 33 1B     	jp nz, __l_547
 7862 1B3D              __l_545:
 7863 1B3D              ; 108         }
 7864 1B3D              ; 109         a = SelectDiskViewY;
 7865 1B3D 3A D3 1B     	ld a, (selectdiskviewy)
 7866 1B40              ; 110         a += 5;
 7867 1B40 C6 05        	add 5
 7868 1B42              ; 111         l = a;
 7869 1B42 6F           	ld l, a
 7870 1B43              ; 112         // DE
 7871 1B43              ; 113         a = 3;
 7872 1B43 3E 03        	ld a, 3
 7873 1B45              ; 114         d = a;
 7874 1B45 57           	ld d, a
 7875 1B46              ; 115         a = 3;
 7876 1B46 3E 03        	ld a, 3
 7877 1B48              ; 116         e = a;
 7878 1B48 5F           	ld e, a
 7879 1B49              ; 117         // C
 7880 1B49              ; 118         if ((a = c) == 0) {
 7881 1B49 79           	ld a, c
 7882 1B4A B7           	or a
 7883 1B4B C2 54 1B     	jp nz, __l_550
 7884 1B4E              ; 119             a = SelectDiskViewColor;
 7885 1B4E 3A D6 1B     	ld a, (selectdiskviewcolor)
 7886 1B51 C3 57 1B     	jp __l_551
 7887 1B54              __l_550:
 7888 1B54              ; 120         } else {
 7889 1B54              ; 121             a = SelectDiskViewInvColor;
 7890 1B54 3A D7 1B     	ld a, (selectdiskviewinvcolor)
 7891 1B57              __l_551:
 7892 1B57              ; 122         }
 7893 1B57              ; 123         c = a;
 7894 1B57 4F           	ld c, a
 7895 1B58              ; 124         // A
 7896 1B58              ; 125         a = vboxUMP;
 7897 1B58 3E 04        	ld a, 4
 7898 1B5A              ; 126         vboxOpenHLDECA();
 7899 1B5A CD 6D 39     	call vboxopenhldeca
 7900 1B5D D1           	pop de
 7901 1B5E E1           	pop hl
 7902 1B5F C1           	pop bc
 7903 1B60 C9           	ret
 7904 1B61              ; 127     }
 7905 1B61              ; 128 }
 7906 1B61              ; 129
 7907 1B61              ; 130 void SelectDiskViewSetCurrentPosA() {
 7908 1B61              selectdiskviewsetcurrentposa:
 7909 1B61              ; 131     push_pop(bc) {
 7910 1B61 C5           	push bc
 7911 1B62              ; 132         b = a;
 7912 1B62 47           	ld b, a
 7913 1B63              ; 133         SelectDiskViewUpdateSelectA(a = 0);
 7914 1B63 3E 00        	ld a, 0
 7915 1B65 CD 20 1B     	call selectdiskviewupdateselecta
 7916 1B68              ; 134         a = b;
 7917 1B68 78           	ld a, b
 7918 1B69              ; 135         SelectDiskViewCurrentPos = a;
 7919 1B69 32 D8 1B     	ld (selectdiskviewcurrentpos), a
 7920 1B6C              ; 136         SelectDiskViewUpdateSelectA(a = 1);
 7921 1B6C 3E 01        	ld a, 1
 7922 1B6E CD 20 1B     	call selectdiskviewupdateselecta
 7923 1B71 C1           	pop bc
 7924 1B72 C9           	ret
 7925 1B73              ; 137     }
 7926 1B73              ; 138 }
 7927 1B73              ; 139
 7928 1B73              ; 140 void SelectDiskViewKeyA() {
 7929 1B73              selectdiskviewkeya:
 7930 1B73              ; 141     push_pop(hl) {
 7931 1B73 E5           	push hl
 7932 1B74              ; 142         l = a;
 7933 1B74 6F           	ld l, a
 7934 1B75              ; 143         if ((a = CurrentViewId) == SelectDiskViewId) {
 7935 1B75 3A 8F 10     	ld a, (currentviewid)
 7936 1B78 FE 03        	cp 3
 7937 1B7A C2 D0 1B     	jp nz, __l_552
 7938 1B7D              ; 144             if ((a = l) == 0x1B) { //ESC выход
 7939 1B7D 7D           	ld a, l
 7940 1B7E FE 1B        	cp 27
 7941 1B80 C2 8C 1B     	jp nz, __l_554
 7942 1B83              ; 145                 vboxClose();
 7943 1B83 CD 86 3A     	call vboxclose
 7944 1B86              ; 146                 CurrentViewReturn();
 7945 1B86 CD 4F 10     	call currentviewreturn
 7946 1B89 C3 D0 1B     	jp __l_555
 7947 1B8C              __l_554:
 7948 1B8C              ; 147             } else if ((a = l) == 0x0D) { // Выбор диска
 7949 1B8C 7D           	ld a, l
 7950 1B8D FE 0D        	cp 13
 7951 1B8F C2 A3 1B     	jp nz, __l_556
 7952 1B92              ; 148                 vboxClose();
 7953 1B92 CD 86 3A     	call vboxclose
 7954 1B95              ; 149                 CurrentViewReturn();
 7955 1B95 CD 4F 10     	call currentviewreturn
 7956 1B98              ; 150                 a = SelectDiskViewCurrentPos;
 7957 1B98 3A D8 1B     	ld a, (selectdiskviewcurrentpos)
 7958 1B9B              ; 151                 a += 'A';
 7959 1B9B C6 41        	add 65
 7960 1B9D              ; 152                 DiskViewSetDiskNumA();
 7961 1B9D CD 95 19     	call diskviewsetdisknuma
 7962 1BA0 C3 D0 1B     	jp __l_557
 7963 1BA3              __l_556:
 7964 1BA3              ; 153             } else if ((a = l) == 0x18) { // Вправл
 7965 1BA3 7D           	ld a, l
 7966 1BA4 FE 18        	cp 24
 7967 1BA6 C2 BA 1B     	jp nz, __l_558
 7968 1BA9              ; 154                 a = SelectDiskViewCurrentPos;
 7969 1BA9 3A D8 1B     	ld a, (selectdiskviewcurrentpos)
 7970 1BAC              ; 155                 a++;
 7971 1BAC 3C           	inc a
 7972 1BAD              ; 156                 if (a == 4) {
 7973 1BAD FE 04        	cp 4
 7974 1BAF C2 B4 1B     	jp nz, __l_560
 7975 1BB2              ; 157                     a = 0;
 7976 1BB2 3E 00        	ld a, 0
 7977 1BB4              __l_560:
 7978 1BB4              ; 158                 }
 7979 1BB4              ; 159                 SelectDiskViewSetCurrentPosA();
 7980 1BB4 CD 61 1B     	call selectdiskviewsetcurrentposa
 7981 1BB7 C3 D0 1B     	jp __l_559
 7982 1BBA              __l_558:
 7983 1BBA              ; 160             } else if ((a = l) == 0x08) { // Влево
 7984 1BBA 7D           	ld a, l
 7985 1BBB FE 08        	cp 8
 7986 1BBD C2 D0 1B     	jp nz, __l_562
 7987 1BC0              ; 161                 a = SelectDiskViewCurrentPos;
 7988 1BC0 3A D8 1B     	ld a, (selectdiskviewcurrentpos)
 7989 1BC3              ; 162                 if (a == 0) {
 7990 1BC3 B7           	or a
 7991 1BC4 C2 CC 1B     	jp nz, __l_564
 7992 1BC7              ; 163                     a = 3;
 7993 1BC7 3E 03        	ld a, 3
 7994 1BC9 C3 CD 1B     	jp __l_565
 7995 1BCC              __l_564:
 7996 1BCC              ; 164                 } else {
 7997 1BCC              ; 165                     a--;
 7998 1BCC 3D           	dec a
 7999 1BCD              __l_565:
 8000 1BCD              ; 166                 }
 8001 1BCD              ; 167                 SelectDiskViewSetCurrentPosA();
 8002 1BCD CD 61 1B     	call selectdiskviewsetcurrentposa
 8003 1BD0              __l_562:
 8004 1BD0              __l_559:
 8005 1BD0              __l_557:
 8006 1BD0              __l_555:
 8007 1BD0              __l_552:
 8008 1BD0 E1           	pop hl
 8009 1BD1 C9           	ret
 8010 1BD2              ; 168             }
 8011 1BD2              ; 169         }
 8012 1BD2              ; 170     }
 8013 1BD2              ; 171 }
 8014 1BD2              ; 172
 8015 1BD2              ; 173 uint8_t SelectDiskViewX = 17;
 8016 1BD2              selectdiskviewx:
 8017 1BD2 11           	db 17
 8018 1BD3              ; 174 uint8_t SelectDiskViewY = 12;
 8019 1BD3              selectdiskviewy:
 8020 1BD3 0C           	db 12
 8021 1BD4              ; 175 uint8_t SelectDiskViewDX = 14;
 8022 1BD4              selectdiskviewdx:
 8023 1BD4 0E           	db 14
 8024 1BD5              ; 176 uint8_t SelectDiskViewDY = 9;
 8025 1BD5              selectdiskviewdy:
 8026 1BD5 09           	db 9
 8027 1BD6              ; 177 uint8_t SelectDiskViewColor = 0x70; //0x1F;
 8028 1BD6              selectdiskviewcolor:
 8029 1BD6 70           	db 112
 8030 1BD7              ; 178 uint8_t SelectDiskViewInvColor = 0x20; //0x2E;
 8031 1BD7              selectdiskviewinvcolor:
 8032 1BD7 20           	db 32
 8033 1BD8              ; 180 uint8_t SelectDiskViewCurrentPos = 0;
 8034 1BD8              selectdiskviewcurrentpos:
 8035 1BD8 00           	db 0
 8036 1BD9              ; 182 uint8_t SelectDiskViewSelectTitle[7] = "Choose";
 8037 1BD9              selectdiskviewselecttitle:
 8038 1BD9 43           	db 67
 8039 1BDA 68           	db 104
 8040 1BDB 6F           	db 111
 8041 1BDC 6F           	db 111
 8042 1BDD 73           	db 115
 8043 1BDE 65           	db 101
 8044 1BDF 00           	ds 1
 8045 1BE0              ; 183 uint8_t SelectDiskViewSelectSubTitle[7] = "drive:";
 8046 1BE0              selectdiskviewselectsubtitle:
 8047 1BE0 64           	db 100
 8048 1BE1 72           	db 114
 8049 1BE2 69           	db 105
 8050 1BE3 76           	db 118
 8051 1BE4 65           	db 101
 8052 1BE5 3A           	db 58
 8053 1BE6 00           	ds 1
 8054 1BE7              ; 11 void FtpStateViewShow() {
 8055 1BE7              ftpstateviewshow:
 8056 1BE7              ; 12     push_pop(hl, de) {
 8057 1BE7 E5           	push hl
 8058 1BE8 D5           	push de
 8059 1BE9              ; 13         a = FtpStateViewX;
 8060 1BE9 3A B4 1C     	ld a, (ftpstateviewx)
 8061 1BEC              ; 14         h = a;
 8062 1BEC 67           	ld h, a
 8063 1BED              ; 15         a = FtpStateViewY;
 8064 1BED 3A B5 1C     	ld a, (ftpstateviewy)
 8065 1BF0              ; 16         l = a;
 8066 1BF0 6F           	ld l, a
 8067 1BF1              ; 17         a = FtpStateViewDX;
 8068 1BF1 3A B6 1C     	ld a, (ftpstateviewdx)
 8069 1BF4              ; 18         d = a;
 8070 1BF4 57           	ld d, a
 8071 1BF5              ; 19         a = FtpStateViewDY;
 8072 1BF5 3A B7 1C     	ld a, (ftpstateviewdy)
 8073 1BF8              ; 20         e = a;
 8074 1BF8 5F           	ld e, a
 8075 1BF9              ; 21         a = FtpStateViewColor;
 8076 1BF9 3A B8 1C     	ld a, (ftpstateviewcolor)
 8077 1BFC              ; 22         vboxOpenHLDE();
 8078 1BFC CD 3C 3A     	call vboxopenhlde
 8079 1BFF              ; 23         vboxBorderHLDE();
 8080 1BFF CD A8 39     	call vboxborderhlde
 8081 1C02              ; 24         FtpStateViewShowTitle();
 8082 1C02 CD 0B 1C     	call ftpstateviewshowtitle
 8083 1C05              ; 25         FtpStateViewShowValue();
 8084 1C05 CD 55 1C     	call ftpstateviewshowvalue
 8085 1C08 D1           	pop de
 8086 1C09 E1           	pop hl
 8087 1C0A C9           	ret
 8088 1C0B              ; 26     }
 8089 1C0B              ; 27 }
 8090 1C0B              ; 28
 8091 1C0B              ; 29 void FtpStateViewShowTitle() {
 8092 1C0B              ftpstateviewshowtitle:
 8093 1C0B              ; 30     push_pop(hl, bc) {
 8094 1C0B E5           	push hl
 8095 1C0C C5           	push bc
 8096 1C0D              ; 31         // TITLE
 8097 1C0D              ; 32         a = FtpStateViewX;
 8098 1C0D 3A B4 1C     	ld a, (ftpstateviewx)
 8099 1C10              ; 33         b = a;
 8100 1C10 47           	ld b, a
 8101 1C11              ; 34         a = FtpStateViewDX;
 8102 1C11 3A B6 1C     	ld a, (ftpstateviewdx)
 8103 1C14              ; 35         a += b;
 8104 1C14 80           	add b
 8105 1C15              ; 36         a -= 6; //len Title
 8106 1C15 D6 06        	sub 6
 8107 1C17              ; 37         myCharPosX = a;
 8108 1C17 32 E3 0E     	ld (mycharposx), a
 8109 1C1A              ; 38         a = FtpStateViewY;
 8110 1C1A 3A B5 1C     	ld a, (ftpstateviewy)
 8111 1C1D              ; 39         myCharPosY = a;
 8112 1C1D 32 E4 0E     	ld (mycharposy), a
 8113 1C20              ; 40         printMyHLStr(hl = FtpViewTitle);
 8114 1C20 21 63 24     	ld hl, ftpviewtitle
 8115 1C23 CD ED 0C     	call printmyhlstr
 8116 1C26              ; 41         // IP
 8117 1C26              ; 42         a = FtpStateViewX;
 8118 1C26 3A B4 1C     	ld a, (ftpstateviewx)
 8119 1C29              ; 43         a += 1;
 8120 1C29 C6 01        	add 1
 8121 1C2B              ; 44         myCharPosX = a;
 8122 1C2B 32 E3 0E     	ld (mycharposx), a
 8123 1C2E              ; 45         a = FtpStateViewY;
 8124 1C2E 3A B5 1C     	ld a, (ftpstateviewy)
 8125 1C31              ; 46         a += 1;
 8126 1C31 C6 01        	add 1
 8127 1C33              ; 47         myCharPosY = a;
 8128 1C33 32 E4 0E     	ld (mycharposy), a
 8129 1C36              ; 48         printMyHLStr(hl = FtpStateViewIpTitle);
 8130 1C36 21 BA 1C     	ld hl, ftpstateviewiptitle
 8131 1C39 CD ED 0C     	call printmyhlstr
 8132 1C3C              ; 49         // STATUS
 8133 1C3C              ; 50         a = FtpStateViewX;
 8134 1C3C 3A B4 1C     	ld a, (ftpstateviewx)
 8135 1C3F              ; 51         a += 1;
 8136 1C3F C6 01        	add 1
 8137 1C41              ; 52         myCharPosX = a;
 8138 1C41 32 E3 0E     	ld (mycharposx), a
 8139 1C44              ; 53         a = FtpStateViewY;
 8140 1C44 3A B5 1C     	ld a, (ftpstateviewy)
 8141 1C47              ; 54         a += 2;
 8142 1C47 C6 02        	add 2
 8143 1C49              ; 55         myCharPosY = a;
 8144 1C49 32 E4 0E     	ld (mycharposy), a
 8145 1C4C              ; 56         printMyHLStr(hl = FtpStateViewStateTitle);
 8146 1C4C 21 BE 1C     	ld hl, ftpstateviewstatetitle
 8147 1C4F CD ED 0C     	call printmyhlstr
 8148 1C52 C1           	pop bc
 8149 1C53 E1           	pop hl
 8150 1C54 C9           	ret
 8151 1C55              ; 57     }
 8152 1C55              ; 58 }
 8153 1C55              ; 59
 8154 1C55              ; 60 void FtpStateViewShowValue() {
 8155 1C55              ftpstateviewshowvalue:
 8156 1C55              ; 61     push_pop(hl) {
 8157 1C55 E5           	push hl
 8158 1C56              ; 62         //IP
 8159 1C56              ; 63         a = FtpStateViewX;
 8160 1C56 3A B4 1C     	ld a, (ftpstateviewx)
 8161 1C59              ; 64         a += 5;
 8162 1C59 C6 05        	add 5
 8163 1C5B              ; 65         myCharPosX = a;
 8164 1C5B 32 E3 0E     	ld (mycharposx), a
 8165 1C5E              ; 66         a = FtpStateViewY;
 8166 1C5E 3A B5 1C     	ld a, (ftpstateviewy)
 8167 1C61              ; 67         a += 1;
 8168 1C61 C6 01        	add 1
 8169 1C63              ; 68         myCharPosY = a;
 8170 1C63 32 E4 0E     	ld (mycharposy), a
 8171 1C66              ; 69         a = 16;
 8172 1C66 3E 10        	ld a, 16
 8173 1C68              ; 70         printMyHLStrLenA(hl = FtpStateViewIpValue);
 8174 1C68 21 C6 1C     	ld hl, ftpstateviewipvalue
 8175 1C6B CD FC 0C     	call printmyhlstrlena
 8176 1C6E              ; 71         // STATUS
 8177 1C6E              ; 72         FtpStateViewShowStatus();
 8178 1C6E CD 73 1C     	call ftpstateviewshowstatus
 8179 1C71 E1           	pop hl
 8180 1C72 C9           	ret
 8181 1C73              ; 73     }
 8182 1C73              ; 74 }
 8183 1C73              ; 75
 8184 1C73              ; 76 void FtpStateViewShowStatus() {
 8185 1C73              ftpstateviewshowstatus:
 8186 1C73              ; 77     push_pop(hl, bc, de) {
 8187 1C73 E5           	push hl
 8188 1C74 C5           	push bc
 8189 1C75 D5           	push de
 8190 1C76              ; 78         if ((a = FtpStateViewStatus) == 0) {
 8191 1C76 3A D6 1C     	ld a, (ftpstateviewstatus)
 8192 1C79 B7           	or a
 8193 1C7A C2 87 1C     	jp nz, __l_566
 8194 1C7D              ; 79             hl = FtpStateViewStatus0;
 8195 1C7D 21 D7 1C     	ld hl, ftpstateviewstatus0
 8196 1C80              ; 80             a = FtpStateViewColor;
 8197 1C80 3A B8 1C     	ld a, (ftpstateviewcolor)
 8198 1C83              ; 81             c = a;
 8199 1C83 4F           	ld c, a
 8200 1C84 C3 8E 1C     	jp __l_567
 8201 1C87              __l_566:
 8202 1C87              ; 82         } else {
 8203 1C87              ; 83             hl = FtpStateViewStatus1;
 8204 1C87 21 E2 1C     	ld hl, ftpstateviewstatus1
 8205 1C8A              ; 84             a = FtpStateViewConnectColor;
 8206 1C8A 3A B9 1C     	ld a, (ftpstateviewconnectcolor)
 8207 1C8D              ; 85             c = a;
 8208 1C8D 4F           	ld c, a
 8209 1C8E              __l_567:
 8210 1C8E              ; 86         }
 8211 1C8E              ; 87         a = FtpStateViewX;
 8212 1C8E 3A B4 1C     	ld a, (ftpstateviewx)
 8213 1C91              ; 88         a += 9;
 8214 1C91 C6 09        	add 9
 8215 1C93              ; 89         d = a; // X
 8216 1C93 57           	ld d, a
 8217 1C94              ; 90         myCharPosX = a;
 8218 1C94 32 E3 0E     	ld (mycharposx), a
 8219 1C97              ; 91         a = FtpStateViewY;
 8220 1C97 3A B5 1C     	ld a, (ftpstateviewy)
 8221 1C9A              ; 92         a += 2;
 8222 1C9A C6 02        	add 2
 8223 1C9C              ; 93         e = a; // Y
 8224 1C9C 5F           	ld e, a
 8225 1C9D              ; 94         myCharPosY = a;
 8226 1C9D 32 E4 0E     	ld (mycharposy), a
 8227 1CA0              ; 95         printMyHLStrLenA(a = 14);
 8228 1CA0 3E 0E        	ld a, 14
 8229 1CA2 CD FC 0C     	call printmyhlstrlena
 8230 1CA5              ; 96         //COLOR BOX
 8231 1CA5              ; 97         h = d;
 8232 1CA5 62           	ld h, d
 8233 1CA6              ; 98         l = e;
 8234 1CA6 6B           	ld l, e
 8235 1CA7              ; 99         d = 14;
 8236 1CA7 16 0E        	ld d, 14
 8237 1CA9              ; 100         e = 1;
 8238 1CA9 1E 01        	ld e, 1
 8239 1CAB              ; 101         a = 0;
 8240 1CAB 3E 00        	ld a, 0
 8241 1CAD              ; 102         vboxOpenHLDECA();
 8242 1CAD CD 6D 39     	call vboxopenhldeca
 8243 1CB0 D1           	pop de
 8244 1CB1 C1           	pop bc
 8245 1CB2 E1           	pop hl
 8246 1CB3 C9           	ret
 8247 1CB4              ; 103     }
 8248 1CB4              ; 104 }
 8249 1CB4              ; 105
 8250 1CB4              ; 106 uint8_t FtpStateViewX = 0;
 8251 1CB4              ftpstateviewx:
 8252 1CB4 00           	db 0
 8253 1CB5              ; 107 uint8_t FtpStateViewY = 0;
 8254 1CB5              ftpstateviewy:
 8255 1CB5 00           	db 0
 8256 1CB6              ; 108 uint8_t FtpStateViewDX = 24;
 8257 1CB6              ftpstateviewdx:
 8258 1CB6 18           	db 24
 8259 1CB7              ; 109 uint8_t FtpStateViewDY = 4;
 8260 1CB7              ftpstateviewdy:
 8261 1CB7 04           	db 4
 8262 1CB8              ; 111 uint8_t FtpStateViewColor = 0x07; //0x5f; //0x67; 07
 8263 1CB8              ftpstateviewcolor:
 8264 1CB8 07           	db 7
 8265 1CB9              ; 112 uint8_t FtpStateViewConnectColor = 0x02; //0x52;
 8266 1CB9              ftpstateviewconnectcolor:
 8267 1CB9 02           	db 2
 8268 1CBA              ; 118 uint8_t FtpStateViewIpTitle[] =    "IP:";
 8269 1CBA              ftpstateviewiptitle:
 8270 1CBA 49           	db 73
 8271 1CBB 50           	db 80
 8272 1CBC 3A           	db 58
 8273 1CBD 00           	ds 1
 8274 1CBE              ; 119 uint8_t FtpStateViewStateTitle[] = "Status:";
 8275 1CBE              ftpstateviewstatetitle:
 8276 1CBE 53           	db 83
 8277 1CBF 74           	db 116
 8278 1CC0 61           	db 97
 8279 1CC1 74           	db 116
 8280 1CC2 75           	db 117
 8281 1CC3 73           	db 115
 8282 1CC4 3A           	db 58
 8283 1CC5 00           	ds 1
 8284 1CC6              ; 120 uint8_t FtpStateViewIpValue[16] = "0.0.0.0";
 8285 1CC6              ftpstateviewipvalue:
 8286 1CC6 30           	db 48
 8287 1CC7 2E           	db 46
 8288 1CC8 30           	db 48
 8289 1CC9 2E           	db 46
 8290 1CCA 30           	db 48
 8291 1CCB 2E           	db 46
 8292 1CCC 30           	db 48
 8293 1CCD 00 00 00...  	ds 9
 8294 1CD6              ; 122 uint8_t FtpStateViewStatus = 0;
 8295 1CD6              ftpstateviewstatus:
 8296 1CD6 00           	db 0
 8297 1CD7              ; 123 uint8_t FtpStateViewStatus0[] = "DISCONNECT"; //a = 14
 8298 1CD7              ftpstateviewstatus0:
 8299 1CD7 44           	db 68
 8300 1CD8 49           	db 73
 8301 1CD9 53           	db 83
 8302 1CDA 43           	db 67
 8303 1CDB 4F           	db 79
 8304 1CDC 4E           	db 78
 8305 1CDD 4E           	db 78
 8306 1CDE 45           	db 69
 8307 1CDF 43           	db 67
 8308 1CE0 54           	db 84
 8309 1CE1 00           	ds 1
 8310 1CE2              ; 124 uint8_t FtpStateViewStatus1[] = "CONNECT"; //a = 14
 8311 1CE2              ftpstateviewstatus1:
 8312 1CE2 43           	db 67
 8313 1CE3 4F           	db 79
 8314 1CE4 4E           	db 78
 8315 1CE5 4E           	db 78
 8316 1CE6 45           	db 69
 8317 1CE7 43           	db 67
 8318 1CE8 54           	db 84
 8319 1CE9 00           	ds 1
 8320 1CEA              ; 11 void FtpSettingsViewShow() {
 8321 1CEA              ftpsettingsviewshow:
 8322 1CEA              ; 12     push_pop(bc, hl, de) {
 8323 1CEA C5           	push bc
 8324 1CEB E5           	push hl
 8325 1CEC D5           	push de
 8326 1CED              ; 13         CurrentViewChangeAndPushIdA(a = FtpSettingsViewId);
 8327 1CED 3E 08        	ld a, 8
 8328 1CEF CD 58 0F     	call currentviewchangeandpushida
 8329 1CF2              ; 14         //--
 8330 1CF2              ; 15         a = FtpSettingsViewX;
 8331 1CF2 3A C5 1F     	ld a, (ftpsettingsviewx)
 8332 1CF5              ; 16         h = a;
 8333 1CF5 67           	ld h, a
 8334 1CF6              ; 17         a = FtpSettingsViewY;
 8335 1CF6 3A C6 1F     	ld a, (ftpsettingsviewy)
 8336 1CF9              ; 18         l = a;
 8337 1CF9 6F           	ld l, a
 8338 1CFA              ; 19         a = FtpSettingsViewDX;
 8339 1CFA 3A C7 1F     	ld a, (ftpsettingsviewdx)
 8340 1CFD              ; 20         d = a;
 8341 1CFD 57           	ld d, a
 8342 1CFE              ; 21         a = FtpSettingsViewDY;
 8343 1CFE 3A C8 1F     	ld a, (ftpsettingsviewdy)
 8344 1D01              ; 22         e = a;
 8345 1D01 5F           	ld e, a
 8346 1D02              ; 23         a = FtpSettingsViewColor;
 8347 1D02 3A C9 1F     	ld a, (ftpsettingsviewcolor)
 8348 1D05              ; 24         c = a;
 8349 1D05 4F           	ld c, a
 8350 1D06              ; 25         a = vboxCLW;
 8351 1D06 3E 40        	ld a, 64
 8352 1D08              ; 26         a |= vboxFRM;
 8353 1D08 F6 20        	or 32
 8354 1D0A              ; 27         a |= vboxSDW;
 8355 1D0A F6 10        	or 16
 8356 1D0C              ; 28         a |= vboxSAV;
 8357 1D0C F6 08        	or 8
 8358 1D0E              ; 29         a |= vboxUMP;
 8359 1D0E F6 04        	or 4
 8360 1D10              ; 30         vboxOpenHLDECA();
 8361 1D10 CD 6D 39     	call vboxopenhldeca
 8362 1D13 D1           	pop de
 8363 1D14 E1           	pop hl
 8364 1D15 C1           	pop bc
 8365 1D16              ; 31     }
 8366 1D16              ; 32     a = 0;
 8367 1D16 3E 00        	ld a, 0
 8368 1D18              ; 33     FtpSettingsViewSelectPos = a;
 8369 1D18 32 CB 1F     	ld (ftpsettingsviewselectpos), a
 8370 1D1B              ; 34     FtpSettingsViewShowTitle();
 8371 1D1B CD 2C 1D     	call ftpsettingsviewshowtitle
 8372 1D1E              ; 35     FtpSettingsViewShowValue();
 8373 1D1E CD E5 1D     	call ftpsettingsviewshowvalue
 8374 1D21              ; 36     FtpSettingsViewSelectLineA(a = 1);
 8375 1D21 3E 01        	ld a, 1
 8376 1D23 C3 EA 1E     	jp ftpsettingsviewselectlinea
 8377 1D26              ; 37 }
 8378 1D26              ; 38
 8379 1D26              ; 39 void FtpSettingsViewClose() {
 8380 1D26              ftpsettingsviewclose:
 8381 1D26              ; 40     vboxClose();
 8382 1D26 CD 86 3A     	call vboxclose
 8383 1D29              ; 41     CurrentViewReturn();
 8384 1D29 C3 4F 10     	jp currentviewreturn
 8385 1D2C              ; 42 }
 8386 1D2C              ; 43
 8387 1D2C              ; 44 void FtpSettingsViewShowTitle() {
 8388 1D2C              ftpsettingsviewshowtitle:
 8389 1D2C              ; 45     push_pop(hl, bc, de) {
 8390 1D2C E5           	push hl
 8391 1D2D C5           	push bc
 8392 1D2E D5           	push de
 8393 1D2F              ; 46         // Title
 8394 1D2F              ; 47         a = FtpSettingsViewX;
 8395 1D2F 3A C5 1F     	ld a, (ftpsettingsviewx)
 8396 1D32              ; 48         a += 7;
 8397 1D32 C6 07        	add 7
 8398 1D34              ; 49         myCharPosX = a;
 8399 1D34 32 E3 0E     	ld (mycharposx), a
 8400 1D37              ; 50         a = FtpSettingsViewY;
 8401 1D37 3A C6 1F     	ld a, (ftpsettingsviewy)
 8402 1D3A              ; 51         a += 1; //2;
 8403 1D3A C6 01        	add 1
 8404 1D3C              ; 52         myCharPosY = a;
 8405 1D3C 32 E4 0E     	ld (mycharposy), a
 8406 1D3F              ; 53         printMyHLStr(hl = FtpSettingsViewTitle);
 8407 1D3F 21 CC 1F     	ld hl, ftpsettingsviewtitle
 8408 1D42 CD ED 0C     	call printmyhlstr
 8409 1D45              ; 54         // LINE!!!
 8410 1D45              ; 55         a = FtpSettingsViewX;
 8411 1D45 3A C5 1F     	ld a, (ftpsettingsviewx)
 8412 1D48              ; 56         a += 1;
 8413 1D48 C6 01        	add 1
 8414 1D4A              ; 57         myCharPosX = a;
 8415 1D4A 32 E3 0E     	ld (mycharposx), a
 8416 1D4D              ; 58         a = FtpSettingsViewY;
 8417 1D4D 3A C6 1F     	ld a, (ftpsettingsviewy)
 8418 1D50              ; 59         a += 2;
 8419 1D50 C6 02        	add 2
 8420 1D52              ; 60         myCharPosY = a;
 8421 1D52 32 E4 0E     	ld (mycharposy), a
 8422 1D55              ; 61         a = FtpSettingsViewDX;
 8423 1D55 3A C7 1F     	ld a, (ftpsettingsviewdx)
 8424 1D58              ; 62         a -= 2;
 8425 1D58 D6 02        	sub 2
 8426 1D5A              ; 63         b = a;
 8427 1D5A 47           	ld b, a
 8428 1D5B              ; 64         do {
 8429 1D5B              __l_568:
 8430 1D5B              ; 65             printMyCharA(a = 0x5F);
 8431 1D5B 3E 5F        	ld a, 95
 8432 1D5D CD 4E 0D     	call printmychara
 8433 1D60              ; 66             b--;
 8434 1D60 05           	dec b
 8435 1D61              __l_569:
 8436 1D61              ; 67         } while ((a = b) > 0);
 8437 1D61 78           	ld a, b
 8438 1D62 B7           	or a
 8439 1D63 C2 5B 1D     	jp nz, __l_568
 8440 1D66              ; 68         // IP
 8441 1D66              ; 69         a = FtpSettingsViewX;
 8442 1D66 3A C5 1F     	ld a, (ftpsettingsviewx)
 8443 1D69              ; 70         a += 2;
 8444 1D69 C6 02        	add 2
 8445 1D6B              ; 71         b = a; // X
 8446 1D6B 47           	ld b, a
 8447 1D6C              ; 72         myCharPosX = a;
 8448 1D6C 32 E3 0E     	ld (mycharposx), a
 8449 1D6F              ; 73         a = FtpSettingsViewY;
 8450 1D6F 3A C6 1F     	ld a, (ftpsettingsviewy)
 8451 1D72              ; 74         a += 4;
 8452 1D72 C6 04        	add 4
 8453 1D74              ; 75         c = a; // Y
 8454 1D74 4F           	ld c, a
 8455 1D75              ; 76         myCharPosY = a;
 8456 1D75 32 E4 0E     	ld (mycharposy), a
 8457 1D78              ; 77         printMyHLStr(hl = FtpSettingsViewTitleIP);
 8458 1D78 21 D9 1F     	ld hl, ftpsettingsviewtitleip
 8459 1D7B CD ED 0C     	call printmyhlstr
 8460 1D7E              ; 78         // PORT
 8461 1D7E              ; 79         a = b;
 8462 1D7E 78           	ld a, b
 8463 1D7F              ; 80         myCharPosX = a;
 8464 1D7F 32 E3 0E     	ld (mycharposx), a
 8465 1D82              ; 81         a = c;
 8466 1D82 79           	ld a, c
 8467 1D83              ; 82         a += 1;
 8468 1D83 C6 01        	add 1
 8469 1D85              ; 83         myCharPosY = a;
 8470 1D85 32 E4 0E     	ld (mycharposy), a
 8471 1D88              ; 84         printMyHLStr(hl = FtpSettingsViewTitlePort);
 8472 1D88 21 DF 1F     	ld hl, ftpsettingsviewtitleport
 8473 1D8B CD ED 0C     	call printmyhlstr
 8474 1D8E              ; 85         // USER
 8475 1D8E              ; 86         a = b;
 8476 1D8E 78           	ld a, b
 8477 1D8F              ; 87         myCharPosX = a;
 8478 1D8F 32 E3 0E     	ld (mycharposx), a
 8479 1D92              ; 88         a = c;
 8480 1D92 79           	ld a, c
 8481 1D93              ; 89         a += 2;
 8482 1D93 C6 02        	add 2
 8483 1D95              ; 90         myCharPosY = a;
 8484 1D95 32 E4 0E     	ld (mycharposy), a
 8485 1D98              ; 91         printMyHLStr(hl = FtpSettingsViewTitleUser);
 8486 1D98 21 EB 1F     	ld hl, ftpsettingsviewtitleuser
 8487 1D9B CD ED 0C     	call printmyhlstr
 8488 1D9E              ; 92         // PASS
 8489 1D9E              ; 93         a = b;
 8490 1D9E 78           	ld a, b
 8491 1D9F              ; 94         myCharPosX = a;
 8492 1D9F 32 E3 0E     	ld (mycharposx), a
 8493 1DA2              ; 95         a = c;
 8494 1DA2 79           	ld a, c
 8495 1DA3              ; 96         a += 3;
 8496 1DA3 C6 03        	add 3
 8497 1DA5              ; 97         myCharPosY = a;
 8498 1DA5 32 E4 0E     	ld (mycharposy), a
 8499 1DA8              ; 98         printMyHLStr(hl = WiFiSettingsViewTitlePass);
 8500 1DA8 21 47 0C     	ld hl, wifisettingsviewtitlepass
 8501 1DAB CD ED 0C     	call printmyhlstr
 8502 1DAE              ; 99         // HOME dir
 8503 1DAE              ; 100         a = b;
 8504 1DAE 78           	ld a, b
 8505 1DAF              ; 101         myCharPosX = a;
 8506 1DAF 32 E3 0E     	ld (mycharposx), a
 8507 1DB2              ; 102         a = c;
 8508 1DB2 79           	ld a, c
 8509 1DB3              ; 103         a += 4;
 8510 1DB3 C6 04        	add 4
 8511 1DB5              ; 104         myCharPosY = a;
 8512 1DB5 32 E4 0E     	ld (mycharposy), a
 8513 1DB8              ; 105         printMyHLStr(hl = FtpSettingsViewTitleHomeDir);
 8514 1DB8 21 E5 1F     	ld hl, ftpsettingsviewtitlehomedir
 8515 1DBB CD ED 0C     	call printmyhlstr
 8516 1DBE              ; 106         // Button
 8517 1DBE              ; 107         if ((a = FtpStateViewStatus) == 0) {
 8518 1DBE 3A D6 1C     	ld a, (ftpstateviewstatus)
 8519 1DC1 B7           	or a
 8520 1DC2 C2 CB 1D     	jp nz, __l_571
 8521 1DC5              ; 108             bc = WiFiSettingsViewButtonTitle;
 8522 1DC5 01 53 0C     	ld bc, wifisettingsviewbuttontitle
 8523 1DC8 C3 CE 1D     	jp __l_572
 8524 1DCB              __l_571:
 8525 1DCB              ; 109         } else {
 8526 1DCB              ; 110             bc = StringLocaleOK;
 8527 1DCB 01 92 10     	ld bc, stringlocaleok
 8528 1DCE              __l_572:
 8529 1DCE              ; 111         }
 8530 1DCE              ; 112
 8531 1DCE              ; 113         d = 13;
 8532 1DCE 16 0D        	ld d, 13
 8533 1DD0              ; 114         e = 3;
 8534 1DD0 1E 03        	ld e, 3
 8535 1DD2              ; 115         a = FtpSettingsViewX;
 8536 1DD2 3A C5 1F     	ld a, (ftpsettingsviewx)
 8537 1DD5              ; 116         a += 7;
 8538 1DD5 C6 07        	add 7
 8539 1DD7              ; 117         h = a;
 8540 1DD7 67           	ld h, a
 8541 1DD8              ; 118         a = FtpSettingsViewY;
 8542 1DD8 3A C6 1F     	ld a, (ftpsettingsviewy)
 8543 1DDB              ; 119         a += 10;
 8544 1DDB C6 0A        	add 10
 8545 1DDD              ; 120         l = a;
 8546 1DDD 6F           	ld l, a
 8547 1DDE              ; 121         ButtonShadowViewShow();
 8548 1DDE CD 25 11     	call buttonshadowviewshow
 8549 1DE1 D1           	pop de
 8550 1DE2 C1           	pop bc
 8551 1DE3 E1           	pop hl
 8552 1DE4 C9           	ret
 8553 1DE5              ; 122     }
 8554 1DE5              ; 123 }
 8555 1DE5              ; 124
 8556 1DE5              ; 125 void FtpSettingsViewShowValue() {
 8557 1DE5              ftpsettingsviewshowvalue:
 8558 1DE5              ; 126     push_pop(hl, bc) {
 8559 1DE5 E5           	push hl
 8560 1DE6 C5           	push bc
 8561 1DE7              ; 127         // IP
 8562 1DE7              ; 128         a = FtpSettingsViewX;
 8563 1DE7 3A C5 1F     	ld a, (ftpsettingsviewx)
 8564 1DEA              ; 129         a += 8;
 8565 1DEA C6 08        	add 8
 8566 1DEC              ; 130         b = a; // X
 8567 1DEC 47           	ld b, a
 8568 1DED              ; 131         myCharPosX = a;
 8569 1DED 32 E3 0E     	ld (mycharposx), a
 8570 1DF0              ; 132         a = FtpSettingsViewY;
 8571 1DF0 3A C6 1F     	ld a, (ftpsettingsviewy)
 8572 1DF3              ; 133         a += 4;
 8573 1DF3 C6 04        	add 4
 8574 1DF5              ; 134         c = a; // Y
 8575 1DF5 4F           	ld c, a
 8576 1DF6              ; 135         myCharPosY = a;
 8577 1DF6 32 E4 0E     	ld (mycharposy), a
 8578 1DF9              ; 136         a = 18;
 8579 1DF9 3E 12        	ld a, 18
 8580 1DFB              ; 137         printMyHLStrLenA(hl = FtpStateViewIpValue);
 8581 1DFB 21 C6 1C     	ld hl, ftpstateviewipvalue
 8582 1DFE CD FC 0C     	call printmyhlstrlena
 8583 1E01              ; 138         // PORT
 8584 1E01              ; 139         a = b;
 8585 1E01 78           	ld a, b
 8586 1E02              ; 140         myCharPosX = a;
 8587 1E02 32 E3 0E     	ld (mycharposx), a
 8588 1E05              ; 141         a = c;
 8589 1E05 79           	ld a, c
 8590 1E06              ; 142         a += 1;
 8591 1E06 C6 01        	add 1
 8592 1E08              ; 143         myCharPosY = a;
 8593 1E08 32 E4 0E     	ld (mycharposy), a
 8594 1E0B              ; 144         a = 18;
 8595 1E0B 3E 12        	ld a, 18
 8596 1E0D              ; 145         printMyHLStrLenA(hl = FtpSettingsViewValuePort);
 8597 1E0D 21 F1 1F     	ld hl, ftpsettingsviewvalueport
 8598 1E10 CD FC 0C     	call printmyhlstrlena
 8599 1E13              ; 146         // USER
 8600 1E13              ; 147         a = b;
 8601 1E13 78           	ld a, b
 8602 1E14              ; 148         myCharPosX = a;
 8603 1E14 32 E3 0E     	ld (mycharposx), a
 8604 1E17              ; 149         a = c;
 8605 1E17 79           	ld a, c
 8606 1E18              ; 150         a += 2;
 8607 1E18 C6 02        	add 2
 8608 1E1A              ; 151         myCharPosY = a;
 8609 1E1A 32 E4 0E     	ld (mycharposy), a
 8610 1E1D              ; 152         a = 18;
 8611 1E1D 3E 12        	ld a, 18
 8612 1E1F              ; 153         printMyHLStrLenA(hl = FtpSettingsViewValueUser);
 8613 1E1F 21 01 20     	ld hl, ftpsettingsviewvalueuser
 8614 1E22 CD FC 0C     	call printmyhlstrlena
 8615 1E25              ; 154         // PASS
 8616 1E25              ; 155         a = b;
 8617 1E25 78           	ld a, b
 8618 1E26              ; 156         myCharPosX = a;
 8619 1E26 32 E3 0E     	ld (mycharposx), a
 8620 1E29              ; 157         a = c;
 8621 1E29 79           	ld a, c
 8622 1E2A              ; 158         a += 3;
 8623 1E2A C6 03        	add 3
 8624 1E2C              ; 159         myCharPosY = a;
 8625 1E2C 32 E4 0E     	ld (mycharposy), a
 8626 1E2F              ; 160         a = 18;
 8627 1E2F 3E 12        	ld a, 18
 8628 1E31              ; 161         printMyHLPassLenA(hl = FtpSettingsViewValuePass);
 8629 1E31 21 11 20     	ld hl, ftpsettingsviewvaluepass
 8630 1E34 CD 24 0D     	call printmyhlpasslena
 8631 1E37              ; 162         // HOME DIR
 8632 1E37              ; 163         a = b;
 8633 1E37 78           	ld a, b
 8634 1E38              ; 164         myCharPosX = a;
 8635 1E38 32 E3 0E     	ld (mycharposx), a
 8636 1E3B              ; 165         a = c;
 8637 1E3B 79           	ld a, c
 8638 1E3C              ; 166         a += 4;
 8639 1E3C C6 04        	add 4
 8640 1E3E              ; 167         myCharPosY = a;
 8641 1E3E 32 E4 0E     	ld (mycharposy), a
 8642 1E41              ; 168         a = 18;
 8643 1E41 3E 12        	ld a, 18
 8644 1E43              ; 169         printMyHLStrLenA(hl = FtpSettingsViewValueHomeDir);
 8645 1E43 21 21 20     	ld hl, ftpsettingsviewvaluehomedir
 8646 1E46 CD FC 0C     	call printmyhlstrlena
 8647 1E49 C1           	pop bc
 8648 1E4A E1           	pop hl
 8649 1E4B C9           	ret
 8650 1E4C              ; 170     }
 8651 1E4C              ; 171 }
 8652 1E4C              ; 172
 8653 1E4C              ; 173 /// вых [BC] -
 8654 1E4C              ; 174 void FtpSettingsViewByPosValue() {
 8655 1E4C              ftpsettingsviewbyposvalue:
 8656 1E4C              ; 175     if ((a = FtpSettingsViewSelectPos) == 1) {
 8657 1E4C 3A CB 1F     	ld a, (ftpsettingsviewselectpos)
 8658 1E4F FE 01        	cp 1
 8659 1E51 C2 5A 1E     	jp nz, __l_573
 8660 1E54              ; 176         bc = FtpStateViewIpValue;
 8661 1E54 01 C6 1C     	ld bc, ftpstateviewipvalue
 8662 1E57 C3 95 1E     	jp __l_574
 8663 1E5A              __l_573:
 8664 1E5A              ; 177     } else if ((a = FtpSettingsViewSelectPos) == 2) {
 8665 1E5A 3A CB 1F     	ld a, (ftpsettingsviewselectpos)
 8666 1E5D FE 02        	cp 2
 8667 1E5F C2 68 1E     	jp nz, __l_575
 8668 1E62              ; 178         bc = FtpSettingsViewValuePort;
 8669 1E62 01 F1 1F     	ld bc, ftpsettingsviewvalueport
 8670 1E65 C3 95 1E     	jp __l_576
 8671 1E68              __l_575:
 8672 1E68              ; 179     } else if ((a = FtpSettingsViewSelectPos) == 3) {
 8673 1E68 3A CB 1F     	ld a, (ftpsettingsviewselectpos)
 8674 1E6B FE 03        	cp 3
 8675 1E6D C2 76 1E     	jp nz, __l_577
 8676 1E70              ; 180         bc = FtpSettingsViewValueUser;
 8677 1E70 01 01 20     	ld bc, ftpsettingsviewvalueuser
 8678 1E73 C3 95 1E     	jp __l_578
 8679 1E76              __l_577:
 8680 1E76              ; 181     } else if ((a = FtpSettingsViewSelectPos) == 4) {
 8681 1E76 3A CB 1F     	ld a, (ftpsettingsviewselectpos)
 8682 1E79 FE 04        	cp 4
 8683 1E7B C2 84 1E     	jp nz, __l_579
 8684 1E7E              ; 182         bc = FtpSettingsViewValuePass;
 8685 1E7E 01 11 20     	ld bc, ftpsettingsviewvaluepass
 8686 1E81 C3 95 1E     	jp __l_580
 8687 1E84              __l_579:
 8688 1E84              ; 183     } else if ((a = FtpSettingsViewSelectPos) == 5) {
 8689 1E84 3A CB 1F     	ld a, (ftpsettingsviewselectpos)
 8690 1E87 FE 05        	cp 5
 8691 1E89 C2 92 1E     	jp nz, __l_581
 8692 1E8C              ; 184         bc = FtpSettingsViewValueHomeDir;
 8693 1E8C 01 21 20     	ld bc, ftpsettingsviewvaluehomedir
 8694 1E8F C3 95 1E     	jp __l_582
 8695 1E92              __l_581:
 8696 1E92              ; 185     } else {
 8697 1E92              ; 186         bc = 0;
 8698 1E92 01 00 00     	ld bc, 0
 8699 1E95              __l_582:
 8700 1E95              __l_580:
 8701 1E95              __l_578:
 8702 1E95              __l_576:
 8703 1E95              __l_574:
 8704 1E95 C9           	ret
 8705 1E96              ; 187     }
 8706 1E96              ; 188 }
 8707 1E96              ; 189
 8708 1E96              ; 190 /// вых [HL] -
 8709 1E96              ; 191 /// вых [DE]-
 8710 1E96              ; 192 void FtpSettingsViewByPosBoxValue() {
 8711 1E96              ftpsettingsviewbyposboxvalue:
 8712 1E96              ; 193     push_pop(bc) {
 8713 1E96 C5           	push bc
 8714 1E97              ; 194         // HL
 8715 1E97              ; 195         a = FtpSettingsViewSelectPos;
 8716 1E97 3A CB 1F     	ld a, (ftpsettingsviewselectpos)
 8717 1E9A              ; 196         b = a;
 8718 1E9A 47           	ld b, a
 8719 1E9B              ; 197         a = FtpSettingsViewY;
 8720 1E9B 3A C6 1F     	ld a, (ftpsettingsviewy)
 8721 1E9E              ; 198         a += 3;
 8722 1E9E C6 03        	add 3
 8723 1EA0              ; 199         a += b;
 8724 1EA0 80           	add b
 8725 1EA1              ; 200         l = a;
 8726 1EA1 6F           	ld l, a
 8727 1EA2              ; 201         a = FtpSettingsViewX;
 8728 1EA2 3A C5 1F     	ld a, (ftpsettingsviewx)
 8729 1EA5              ; 202         a += 7;
 8730 1EA5 C6 07        	add 7
 8731 1EA7              ; 203         h = a;
 8732 1EA7 67           	ld h, a
 8733 1EA8              ; 204         // DE
 8734 1EA8              ; 205         a = FtpSettingsViewDX;
 8735 1EA8 3A C7 1F     	ld a, (ftpsettingsviewdx)
 8736 1EAB              ; 206         a -= 8;
 8737 1EAB D6 08        	sub 8
 8738 1EAD              ; 207         d = a;
 8739 1EAD 57           	ld d, a
 8740 1EAE              ; 208         a = 1;
 8741 1EAE 3E 01        	ld a, 1
 8742 1EB0              ; 209         e = a;
 8743 1EB0 5F           	ld e, a
 8744 1EB1 C1           	pop bc
 8745 1EB2 C9           	ret
 8746 1EB3              ; 210     }
 8747 1EB3              ; 211 }
 8748 1EB3              ; 212
 8749 1EB3              ; 213 /// Обновление позиции
 8750 1EB3              ; 214 /// вх[A]
 8751 1EB3              ; 215 /// 0 - без изменений
 8752 1EB3              ; 216 /// 1 - вверх
 8753 1EB3              ; 217 /// 0xFF - вниз
 8754 1EB3              ; 218 void FtpSettingsViewPosUpdateA() {
 8755 1EB3              ftpsettingsviewposupdatea:
 8756 1EB3              ; 219     push_pop(bc) {
 8757 1EB3 C5           	push bc
 8758 1EB4              ; 220         b = a;
 8759 1EB4 47           	ld b, a
 8760 1EB5              ; 221         if (a == 0) {
 8761 1EB5 B7           	or a
 8762 1EB6 C2 C1 1E     	jp nz, __l_583
 8763 1EB9              ; 222             FtpSettingsViewSelectLineA(a = 1);
 8764 1EB9 3E 01        	ld a, 1
 8765 1EBB CD EA 1E     	call ftpsettingsviewselectlinea
 8766 1EBE C3 E8 1E     	jp __l_584
 8767 1EC1              __l_583:
 8768 1EC1              ; 223         } else {
 8769 1EC1              ; 224             a = 6;
 8770 1EC1 3E 06        	ld a, 6
 8771 1EC3              ; 225             c = a;
 8772 1EC3 4F           	ld c, a
 8773 1EC4              ; 226             FtpSettingsViewSelectLineA(a = 0);
 8774 1EC4 3E 00        	ld a, 0
 8775 1EC6 CD EA 1E     	call ftpsettingsviewselectlinea
 8776 1EC9              ; 227             a = FtpSettingsViewSelectPos;
 8777 1EC9 3A CB 1F     	ld a, (ftpsettingsviewselectpos)
 8778 1ECC              ; 228             a += b;
 8779 1ECC 80           	add b
 8780 1ECD              ; 229             b = a;
 8781 1ECD 47           	ld b, a
 8782 1ECE              ; 230             //-- FIX
 8783 1ECE              ; 231             if ((a = b) == 0xFF) {
 8784 1ECE 78           	ld a, b
 8785 1ECF FE FF        	cp 255
 8786 1ED1 C2 D9 1E     	jp nz, __l_585
 8787 1ED4              ; 232                 a = c;
 8788 1ED4 79           	ld a, c
 8789 1ED5              ; 233                 a--;
 8790 1ED5 3D           	dec a
 8791 1ED6 C3 E0 1E     	jp __l_586
 8792 1ED9              __l_585:
 8793 1ED9              ; 234             } else if ((a = b) == c) {
 8794 1ED9 78           	ld a, b
 8795 1EDA B9           	cp c
 8796 1EDB C2 E0 1E     	jp nz, __l_587
 8797 1EDE              ; 235                 a = 0;
 8798 1EDE 3E 00        	ld a, 0
 8799 1EE0              __l_587:
 8800 1EE0              __l_586:
 8801 1EE0              ; 236             }
 8802 1EE0              ; 237             //--
 8803 1EE0              ; 238             FtpSettingsViewSelectPos = a;
 8804 1EE0 32 CB 1F     	ld (ftpsettingsviewselectpos), a
 8805 1EE3              ; 239             FtpSettingsViewSelectLineA(a = 1);
 8806 1EE3 3E 01        	ld a, 1
 8807 1EE5 CD EA 1E     	call ftpsettingsviewselectlinea
 8808 1EE8              __l_584:
 8809 1EE8 C1           	pop bc
 8810 1EE9 C9           	ret
 8811 1EEA              ; 240         }
 8812 1EEA              ; 241     }
 8813 1EEA              ; 242 }
 8814 1EEA              ; 243
 8815 1EEA              ; 244 /// Рисование линии прямым или инверсным цветом
 8816 1EEA              ; 245 /// 0 - прямой
 8817 1EEA              ; 246 /// 1 - инверсный
 8818 1EEA              ; 247 void FtpSettingsViewSelectLineA() {
 8819 1EEA              ftpsettingsviewselectlinea:
 8820 1EEA              ; 248     push_pop(bc, hl) {
 8821 1EEA C5           	push bc
 8822 1EEB E5           	push hl
 8823 1EEC              ; 249         c = a;
 8824 1EEC 4F           	ld c, a
 8825 1EED              ; 250         // 0 - Button
 8826 1EED              ; 251         if ((a = FtpSettingsViewSelectPos) == 0) {
 8827 1EED 3A CB 1F     	ld a, (ftpsettingsviewselectpos)
 8828 1EF0 B7           	or a
 8829 1EF1 C2 FB 1E     	jp nz, __l_589
 8830 1EF4              ; 252             ButtonShadowViewSelectA(a = c);
 8831 1EF4 79           	ld a, c
 8832 1EF5 CD 4E 11     	call buttonshadowviewselecta
 8833 1EF8 C3 12 1F     	jp __l_590
 8834 1EFB              __l_589:
 8835 1EFB              ; 253         } else {
 8836 1EFB              ; 254             FtpSettingsViewByPosBoxValue();
 8837 1EFB CD 96 1E     	call ftpsettingsviewbyposboxvalue
 8838 1EFE              ; 255             // C
 8839 1EFE              ; 256             if ((a = c) == 0) {
 8840 1EFE 79           	ld a, c
 8841 1EFF B7           	or a
 8842 1F00 C2 09 1F     	jp nz, __l_591
 8843 1F03              ; 257                 a = FtpSettingsViewColor;
 8844 1F03 3A C9 1F     	ld a, (ftpsettingsviewcolor)
 8845 1F06 C3 0C 1F     	jp __l_592
 8846 1F09              __l_591:
 8847 1F09              ; 258             } else {
 8848 1F09              ; 259                 a = FtpSettingsViewInvColor;
 8849 1F09 3A CA 1F     	ld a, (ftpsettingsviewinvcolor)
 8850 1F0C              __l_592:
 8851 1F0C              ; 260             }
 8852 1F0C              ; 261             c = a;
 8853 1F0C 4F           	ld c, a
 8854 1F0D              ; 262             // A
 8855 1F0D              ; 263             a = vboxUMP;
 8856 1F0D 3E 04        	ld a, 4
 8857 1F0F              ; 264             vboxOpenHLDECA();
 8858 1F0F CD 6D 39     	call vboxopenhldeca
 8859 1F12              __l_590:
 8860 1F12 E1           	pop hl
 8861 1F13 C1           	pop bc
 8862 1F14 C9           	ret
 8863 1F15              ; 265         }
 8864 1F15              ; 266     }
 8865 1F15              ; 267 }
 8866 1F15              ; 268
 8867 1F15              ; 269 void FtpSettingsViewKeyA() {
 8868 1F15              ftpsettingsviewkeya:
 8869 1F15              ; 270     push_pop(hl) {
 8870 1F15 E5           	push hl
 8871 1F16              ; 271         l = a;
 8872 1F16 6F           	ld l, a
 8873 1F17              ; 272         if ((a = c) == 0) {
 8874 1F17 79           	ld a, c
 8875 1F18 B7           	or a
 8876 1F19 C2 C3 1F     	jp nz, __l_593
 8877 1F1C              ; 273             if ((a = CurrentViewId) == FtpSettingsViewId) {
 8878 1F1C 3A 8F 10     	ld a, (currentviewid)
 8879 1F1F FE 08        	cp 8
 8880 1F21 C2 C3 1F     	jp nz, __l_595
 8881 1F24              ; 274                 if ((a = l) == 0x1B) { //ESC выход
 8882 1F24 7D           	ld a, l
 8883 1F25 FE 1B        	cp 27
 8884 1F27 C2 30 1F     	jp nz, __l_597
 8885 1F2A              ; 275                     FtpSettingsViewClose();
 8886 1F2A CD 26 1D     	call ftpsettingsviewclose
 8887 1F2D C3 C3 1F     	jp __l_598
 8888 1F30              __l_597:
 8889 1F30              ; 276                 } else if ((a = l) == 0x0D) { // Выбор
 8890 1F30 7D           	ld a, l
 8891 1F31 FE 0D        	cp 13
 8892 1F33 C2 AA 1F     	jp nz, __l_599
 8893 1F36              ; 277                     if ((a = FtpSettingsViewSelectPos) == 0) { // OK
 8894 1F36 3A CB 1F     	ld a, (ftpsettingsviewselectpos)
 8895 1F39 B7           	or a
 8896 1F3A C2 50 1F     	jp nz, __l_601
 8897 1F3D              ; 278                         WiFiSettingsViewClose();
 8898 1F3D CD 13 0B     	call wifisettingsviewclose
 8899 1F40              ; 279                         if ((a = FtpStateViewStatus) == 0) {
 8900 1F40 3A D6 1C     	ld a, (ftpstateviewstatus)
 8901 1F43 B7           	or a
 8902 1F44 C2 4D 1F     	jp nz, __l_603
 8903 1F47              ; 280                             NetFtpConnect();
 8904 1F47 CD 11 05     	call netftpconnect
 8905 1F4A              ; 281                             ThreadsTickNow();
 8906 1F4A CD 41 14     	call threadsticknow
 8907 1F4D              __l_603:
 8908 1F4D C3 A7 1F     	jp __l_602
 8909 1F50              __l_601:
 8910 1F50              ; 282                         }
 8911 1F50              ; 283                     } else { // Переход в редактирование
 8912 1F50              ; 284                         FtpSettingsViewByPosBoxValue();
 8913 1F50 CD 96 1E     	call ftpsettingsviewbyposboxvalue
 8914 1F53              ; 285                         FtpSettingsViewByPosValue();
 8915 1F53 CD 4C 1E     	call ftpsettingsviewbyposvalue
 8916 1F56              ; 286                         EditFieldViewShow();
 8917 1F56 CD C5 11     	call editfieldviewshow
 8918 1F59              ; 287                         if (a == 1) { // что то изменилось
 8919 1F59 FE 01        	cp 1
 8920 1F5B C2 A7 1F     	jp nz, __l_605
 8921 1F5E              ; 288                             if ((a = FtpSettingsViewSelectPos) == 5) {
 8922 1F5E 3A CB 1F     	ld a, (ftpsettingsviewselectpos)
 8923 1F61 FE 05        	cp 5
 8924 1F63 C2 6C 1F     	jp nz, __l_607
 8925 1F66              ; 289                                 ThreadsNetFtpHomeDirUpdate();
 8926 1F66 CD 47 15     	call threadsnetftphomedirupdate
 8927 1F69 C3 A4 1F     	jp __l_608
 8928 1F6C              __l_607:
 8929 1F6C              ; 290                             } else if ((a = FtpSettingsViewSelectPos) == 3) {
 8930 1F6C 3A CB 1F     	ld a, (ftpsettingsviewselectpos)
 8931 1F6F FE 03        	cp 3
 8932 1F71 C2 7A 1F     	jp nz, __l_609
 8933 1F74              ; 291                                 ThreadsNetFtpUserUpdate();
 8934 1F74 CD 4D 15     	call threadsnetftpuserupdate
 8935 1F77 C3 A4 1F     	jp __l_610
 8936 1F7A              __l_609:
 8937 1F7A              ; 292                             } else if ((a = FtpSettingsViewSelectPos) == 4) {
 8938 1F7A 3A CB 1F     	ld a, (ftpsettingsviewselectpos)
 8939 1F7D FE 04        	cp 4
 8940 1F7F C2 88 1F     	jp nz, __l_611
 8941 1F82              ; 293                                 ThreadsNetFtpPasswordUpdate();
 8942 1F82 CD 53 15     	call threadsnetftppasswordupdate
 8943 1F85 C3 A4 1F     	jp __l_612
 8944 1F88              __l_611:
 8945 1F88              ; 294                             } else if ((a = FtpSettingsViewSelectPos) == 1) { // IP
 8946 1F88 3A CB 1F     	ld a, (ftpsettingsviewselectpos)
 8947 1F8B FE 01        	cp 1
 8948 1F8D C2 99 1F     	jp nz, __l_613
 8949 1F90              ; 295                                 ThreadsNetFtpServerUrlUpdate();
 8950 1F90 CD 59 15     	call threadsnetftpserverurlupdate
 8951 1F93              ; 296                                 FtpStateViewShowValue();
 8952 1F93 CD 55 1C     	call ftpstateviewshowvalue
 8953 1F96 C3 A4 1F     	jp __l_614
 8954 1F99              __l_613:
 8955 1F99              ; 297                             } else if ((a = FtpSettingsViewSelectPos) == 2) { // PORT
 8956 1F99 3A CB 1F     	ld a, (ftpsettingsviewselectpos)
 8957 1F9C FE 02        	cp 2
 8958 1F9E C2 A4 1F     	jp nz, __l_615
 8959 1FA1              ; 298                                 ThreadsNetFtpPortUpdate();
 8960 1FA1 CD 5F 15     	call threadsnetftpportupdate
 8961 1FA4              __l_615:
 8962 1FA4              __l_614:
 8963 1FA4              __l_612:
 8964 1FA4              __l_610:
 8965 1FA4              __l_608:
 8966 1FA4              ; 299                             }
 8967 1FA4              ; 300                             FtpSettingsViewShowValue();
 8968 1FA4 CD E5 1D     	call ftpsettingsviewshowvalue
 8969 1FA7              __l_605:
 8970 1FA7              __l_602:
 8971 1FA7 C3 C3 1F     	jp __l_600
 8972 1FAA              __l_599:
 8973 1FAA              ; 301                         }
 8974 1FAA              ; 302                     }
 8975 1FAA              ; 303                 } else if ((a = l) == 0x1A) { //down
 8976 1FAA 7D           	ld a, l
 8977 1FAB FE 1A        	cp 26
 8978 1FAD C2 B8 1F     	jp nz, __l_617
 8979 1FB0              ; 304                     FtpSettingsViewPosUpdateA(a = 0x01);
 8980 1FB0 3E 01        	ld a, 1
 8981 1FB2 CD B3 1E     	call ftpsettingsviewposupdatea
 8982 1FB5 C3 C3 1F     	jp __l_618
 8983 1FB8              __l_617:
 8984 1FB8              ; 305                 } else if ((a = l) == 0x19) { //up
 8985 1FB8 7D           	ld a, l
 8986 1FB9 FE 19        	cp 25
 8987 1FBB C2 C3 1F     	jp nz, __l_619
 8988 1FBE              ; 306                     FtpSettingsViewPosUpdateA(a = 0xFF);
 8989 1FBE 3E FF        	ld a, 255
 8990 1FC0 CD B3 1E     	call ftpsettingsviewposupdatea
 8991 1FC3              __l_619:
 8992 1FC3              __l_618:
 8993 1FC3              __l_600:
 8994 1FC3              __l_598:
 8995 1FC3              __l_595:
 8996 1FC3              __l_593:
 8997 1FC3 E1           	pop hl
 8998 1FC4 C9           	ret
 8999 1FC5              ; 307                 }
 9000 1FC5              ; 308             }
 9001 1FC5              ; 309         }
 9002 1FC5              ; 310     }
 9003 1FC5              ; 311 }
 9004 1FC5              ; 312
 9005 1FC5              ; 313 uint8_t FtpSettingsViewX = 11;
 9006 1FC5              ftpsettingsviewx:
 9007 1FC5 0B           	db 11
 9008 1FC6              ; 314 uint8_t FtpSettingsViewY = 9;
 9009 1FC6              ftpsettingsviewy:
 9010 1FC6 09           	db 9
 9011 1FC7              ; 315 uint8_t FtpSettingsViewDX = 27;
 9012 1FC7              ftpsettingsviewdx:
 9013 1FC7 1B           	db 27
 9014 1FC8              ; 316 uint8_t FtpSettingsViewDY = 15;
 9015 1FC8              ftpsettingsviewdy:
 9016 1FC8 0F           	db 15
 9017 1FC9              ; 317 uint8_t FtpSettingsViewColor = 0x70;
 9018 1FC9              ftpsettingsviewcolor:
 9019 1FC9 70           	db 112
 9020 1FCA              ; 318 uint8_t FtpSettingsViewInvColor = 0x07;
 9021 1FCA              ftpsettingsviewinvcolor:
 9022 1FCA 07           	db 7
 9023 1FCB              ; 320 uint8_t FtpSettingsViewSelectPos = 1; //0
 9024 1FCB              ftpsettingsviewselectpos:
 9025 1FCB 01           	db 1
 9026 1FCC              ; 322 uint8_t FtpSettingsViewTitle[] = "FTP settings";
 9027 1FCC              ftpsettingsviewtitle:
 9028 1FCC 46           	db 70
 9029 1FCD 54           	db 84
 9030 1FCE 50           	db 80
 9031 1FCF 20           	db 32
 9032 1FD0 73           	db 115
 9033 1FD1 65           	db 101
 9034 1FD2 74           	db 116
 9035 1FD3 74           	db 116
 9036 1FD4 69           	db 105
 9037 1FD5 6E           	db 110
 9038 1FD6 67           	db 103
 9039 1FD7 73           	db 115
 9040 1FD8 00           	ds 1
 9041 1FD9              ; 323 uint8_t FtpSettingsViewTitleIP[] =      "  IP:";
 9042 1FD9              ftpsettingsviewtitleip:
 9043 1FD9 20           	db 32
 9044 1FDA 20           	db 32
 9045 1FDB 49           	db 73
 9046 1FDC 50           	db 80
 9047 1FDD 3A           	db 58
 9048 1FDE 00           	ds 1
 9049 1FDF              ; 324 uint8_t FtpSettingsViewTitlePort[] =    "Port:";
 9050 1FDF              ftpsettingsviewtitleport:
 9051 1FDF 50           	db 80
 9052 1FE0 6F           	db 111
 9053 1FE1 72           	db 114
 9054 1FE2 74           	db 116
 9055 1FE3 3A           	db 58
 9056 1FE4 00           	ds 1
 9057 1FE5              ; 325 uint8_t FtpSettingsViewTitleHomeDir[] = "Home:";
 9058 1FE5              ftpsettingsviewtitlehomedir:
 9059 1FE5 48           	db 72
 9060 1FE6 6F           	db 111
 9061 1FE7 6D           	db 109
 9062 1FE8 65           	db 101
 9063 1FE9 3A           	db 58
 9064 1FEA 00           	ds 1
 9065 1FEB              ; 326 uint8_t FtpSettingsViewTitleUser[] = "User:";
 9066 1FEB              ftpsettingsviewtitleuser:
 9067 1FEB 55           	db 85
 9068 1FEC 73           	db 115
 9069 1FED 65           	db 101
 9070 1FEE 72           	db 114
 9071 1FEF 3A           	db 58
 9072 1FF0 00           	ds 1
 9073 1FF1              ; 328 uint8_t FtpSettingsViewValuePort[16] = "21";
 9074 1FF1              ftpsettingsviewvalueport:
 9075 1FF1 32           	db 50
 9076 1FF2 31           	db 49
 9077 1FF3 00 00 00...  	ds 14
 9078 2001              ; 329 uint8_t FtpSettingsViewValueUser[16] = "-";
 9079 2001              ftpsettingsviewvalueuser:
 9080 2001 2D           	db 45
 9081 2002 00 00 00...  	ds 15
 9082 2011              ; 330 uint8_t FtpSettingsViewValuePass[16] = "-";
 9083 2011              ftpsettingsviewvaluepass:
 9084 2011 2D           	db 45
 9085 2012 00 00 00...  	ds 15
 9086 2021              ; 331 uint8_t FtpSettingsViewValueHomeDir[16] = "/";
 9087 2021              ftpsettingsviewvaluehomedir:
 9088 2021 2F           	db 47
 9089 2022 00 00 00...  	ds 15
 9090 2031              ; 11 void FtpViewShow() {
 9091 2031              ftpviewshow:
 9092 2031              ; 12     push_pop(bc, hl, de) {
 9093 2031 C5           	push bc
 9094 2032 E5           	push hl
 9095 2033 D5           	push de
 9096 2034              ; 13         a = FtpViewX;
 9097 2034 3A 5D 24     	ld a, (ftpviewx)
 9098 2037              ; 14         h = a;
 9099 2037 67           	ld h, a
 9100 2038              ; 15         a = FtpViewY;
 9101 2038 3A 5E 24     	ld a, (ftpviewy)
 9102 203B              ; 16         l = a;
 9103 203B 6F           	ld l, a
 9104 203C              ; 17         a = FtpViewDX;
 9105 203C 3A 5F 24     	ld a, (ftpviewdx)
 9106 203F              ; 18         d = a;
 9107 203F 57           	ld d, a
 9108 2040              ; 19         a = FtpViewDY;
 9109 2040 3A 60 24     	ld a, (ftpviewdy)
 9110 2043              ; 20         e = a;
 9111 2043 5F           	ld e, a
 9112 2044              ; 21         a = FtpViewColor;
 9113 2044 3A 61 24     	ld a, (ftpviewcolor)
 9114 2047              ; 22         vboxOpenHLDE();
 9115 2047 CD 3C 3A     	call vboxopenhlde
 9116 204A              ; 23         vboxBorderHLDE();
 9117 204A CD A8 39     	call vboxborderhlde
 9118 204D              ; 24         FtpViewShowTitle();
 9119 204D CD 57 20     	call ftpviewshowtitle
 9120 2050              ; 25
 9121 2050              ; 26         #ifdef _IS_SIMULATOR
 9122 2050              ; 27             FtpViewShowFileList();
 9123 2050              ; 28             FtpViewShowPath();
 9124 2050              ; 29             a = 0;
 9125 2050              ; 30             FtpViewFileCurrentPos = a;
 9126 2050              ; 31             FtpViewShowSelectLineA(a = 1);
 9127 2050              ; 32         #else
 9128 2050              ; 33             FtpViewNetLoadAndUpdate();
 9129 2050 CD C8 23     	call ftpviewnetloadandupdate
 9130 2053 D1           	pop de
 9131 2054 E1           	pop hl
 9132 2055 C1           	pop bc
 9133 2056 C9           	ret
 9134 2057              ; 34         #endif
 9135 2057              ; 35     }
 9136 2057              ; 36 }
 9137 2057              ; 37
 9138 2057              ; 38 void FtpViewShowTitle() {
 9139 2057              ftpviewshowtitle:
 9140 2057              ; 39     a = FtpViewX;
 9141 2057 3A 5D 24     	ld a, (ftpviewx)
 9142 205A              ; 40     a++;
 9143 205A 3C           	inc a
 9144 205B              ; 41     myCharPosX = a;
 9145 205B 32 E3 0E     	ld (mycharposx), a
 9146 205E              ; 42     a = FtpViewY;
 9147 205E 3A 5E 24     	ld a, (ftpviewy)
 9148 2061              ; 43     myCharPosY = a;
 9149 2061 32 E4 0E     	ld (mycharposy), a
 9150 2064              ; 44     printMyHLStr(hl = FtpViewTitle);
 9151 2064 21 63 24     	ld hl, ftpviewtitle
 9152 2067 C3 ED 0C     	jp printmyhlstr
 9153 206A              ; 45 }
 9154 206A              ; 46
 9155 206A              ; 47 void FtpViewShowFileList() {
 9156 206A              ftpviewshowfilelist:
 9157 206A              ; 48     //-- нельзя обновлять, если есть хоть какое то открытое окно
 9158 206A              ; 49     CurrentViewDiskOrFtpViewByIdA(a = CurrentViewId);
 9159 206A 3A 8F 10     	ld a, (currentviewid)
 9160 206D CD 55 10     	call currentviewdiskorftpviewbyida
 9161 2070              ; 50     if (a == 0) {
 9162 2070 B7           	or a
 9163 2071 C2 75 20     	jp nz, __l_621
 9164 2074              ; 51         return;
 9165 2074 C9           	ret
 9166 2075              __l_621:
 9167 2075              ; 52     }
 9168 2075              ; 53     //--
 9169 2075              ; 54     push_pop(bc, de, hl) {
 9170 2075 C5           	push bc
 9171 2076 D5           	push de
 9172 2077 E5           	push hl
 9173 2078              ; 55         b = 0;
 9174 2078 06 00        	ld b, 0
 9175 207A              ; 56         a = FtpViewFilesListCount;
 9176 207A 3A 7A 24     	ld a, (ftpviewfileslistcount)
 9177 207D              ; 57         hl = FtpViewFilesList;
 9178 207D 21 7B 24     	ld hl, ftpviewfileslist
 9179 2080              ; 58         c = a;
 9180 2080 4F           	ld c, a
 9181 2081              ; 59         do {
 9182 2081              __l_623:
 9183 2081              ; 60             a = FtpViewY;
 9184 2081 3A 5E 24     	ld a, (ftpviewy)
 9185 2084              ; 61             a += 2;
 9186 2084 C6 02        	add 2
 9187 2086              ; 62             a += b;
 9188 2086 80           	add b
 9189 2087              ; 63             myCharPosY = a;
 9190 2087 32 E4 0E     	ld (mycharposy), a
 9191 208A              ; 64             FtpViewShowFileHL();
 9192 208A CD DD 20     	call ftpviewshowfilehl
 9193 208D              ; 65             // HL + 16 next file
 9194 208D              ; 66             a ^= a;
 9195 208D AF           	xor a
 9196 208E              ; 67             a = 16;
 9197 208E 3E 10        	ld a, 16
 9198 2090              ; 68             a += l;
 9199 2090 85           	add l
 9200 2091              ; 69             l = a;
 9201 2091 6F           	ld l, a
 9202 2092              ; 70             if (flag_c) {
 9203 2092 D2 96 20     	jp nc, __l_626
 9204 2095              ; 71                 h++;
 9205 2095 24           	inc h
 9206 2096              __l_626:
 9207 2096              ; 72             }
 9208 2096              ; 73             b++;
 9209 2096 04           	inc b
 9210 2097              __l_624:
 9211 2097              ; 74         } while ((a = b) < c);
 9212 2097 78           	ld a, b
 9213 2098 B9           	cp c
 9214 2099 DA 81 20     	jp c, __l_623
 9215 209C              ; 75         // Заполнить пустыми строками
 9216 209C              ; 76         a = FtpViewX;
 9217 209C 3A 5D 24     	ld a, (ftpviewx)
 9218 209F              ; 77         a += 1;
 9219 209F C6 01        	add 1
 9220 20A1              ; 78         d = a; // X
 9221 20A1 57           	ld d, a
 9222 20A2              ; 79         a = FtpViewY;
 9223 20A2 3A 5E 24     	ld a, (ftpviewy)
 9224 20A5              ; 80         a += 2;
 9225 20A5 C6 02        	add 2
 9226 20A7              ; 81         e = a; // Y
 9227 20A7 5F           	ld e, a
 9228 20A8              ; 82         //--
 9229 20A8              ; 83         a = FtpViewFilesListCount;
 9230 20A8 3A 7A 24     	ld a, (ftpviewfileslistcount)
 9231 20AB              ; 84         b = a;
 9232 20AB 47           	ld b, a
 9233 20AC              ; 85         // PosY
 9234 20AC              ; 86         a = e;
 9235 20AC 7B           	ld a, e
 9236 20AD              ; 87         a += b;
 9237 20AD 80           	add b
 9238 20AE              ; 88         e = a;
 9239 20AE 5F           	ld e, a
 9240 20AF              ; 89         //
 9241 20AF              ; 90         a = FtpViewDY;
 9242 20AF 3A 60 24     	ld a, (ftpviewdy)
 9243 20B2              ; 91         a -= 4;
 9244 20B2 D6 04        	sub 4
 9245 20B4              ; 92         a -= b;
 9246 20B4 90           	sub b
 9247 20B5              ; 93         b = a;
 9248 20B5 47           	ld b, a
 9249 20B6              ; 94         c = 0;
 9250 20B6 0E 00        	ld c, 0
 9251 20B8              ; 95         do {
 9252 20B8              __l_628:
 9253 20B8              ; 96             a = d;
 9254 20B8 7A           	ld a, d
 9255 20B9              ; 97             myCharPosX = a;
 9256 20B9 32 E3 0E     	ld (mycharposx), a
 9257 20BC              ; 98             a = e;
 9258 20BC 7B           	ld a, e
 9259 20BD              ; 99             a += c;
 9260 20BD 81           	add c
 9261 20BE              ; 100             myCharPosY = a;
 9262 20BE 32 E4 0E     	ld (mycharposy), a
 9263 20C1              ; 101             //
 9264 20C1              ; 102             a = FtpViewDX;
 9265 20C1 3A 5F 24     	ld a, (ftpviewdx)
 9266 20C4              ; 103             a -= 3;
 9267 20C4 D6 03        	sub 3
 9268 20C6              ; 104             h = a;
 9269 20C6 67           	ld h, a
 9270 20C7              ; 105             do {
 9271 20C7              __l_631:
 9272 20C7              ; 106                 printMyCharA(a = ' ');
 9273 20C7 3E 20        	ld a, 32
 9274 20C9 CD 4E 0D     	call printmychara
 9275 20CC              ; 107                 h--;
 9276 20CC 25           	dec h
 9277 20CD              __l_632:
 9278 20CD              ; 108             } while ((a = h) > 0);
 9279 20CD 7C           	ld a, h
 9280 20CE B7           	or a
 9281 20CF C2 C7 20     	jp nz, __l_631
 9282 20D2              ; 109             b--;
 9283 20D2 05           	dec b
 9284 20D3              ; 110             c++;
 9285 20D3 0C           	inc c
 9286 20D4              __l_629:
 9287 20D4              ; 111         } while ((a = b) > 0);
 9288 20D4 78           	ld a, b
 9289 20D5 B7           	or a
 9290 20D6 C2 B8 20     	jp nz, __l_628
 9291 20D9 E1           	pop hl
 9292 20DA D1           	pop de
 9293 20DB C1           	pop bc
 9294 20DC C9           	ret
 9295 20DD              ; 112     }
 9296 20DD              ; 113 }
 9297 20DD              ; 114
 9298 20DD              ; 115 void FtpViewShowFileHL() {
 9299 20DD              ftpviewshowfilehl:
 9300 20DD              ; 116     push_pop(bc, hl) {
 9301 20DD C5           	push bc
 9302 20DE E5           	push hl
 9303 20DF              ; 117         if ((a = b) == 0) {
 9304 20DF 78           	ld a, b
 9305 20E0 B7           	or a
 9306 20E1 C2 EA 20     	jp nz, __l_634
 9307 20E4              ; 118             FtpViewShowFileName();
 9308 20E4 CD 17 21     	call ftpviewshowfilename
 9309 20E7 C3 F3 20     	jp __l_635
 9310 20EA              __l_634:
 9311 20EA              ; 119         } else {
 9312 20EA              ; 120             FtpViewShowFileName();
 9313 20EA CD 17 21     	call ftpviewshowfilename
 9314 20ED              ; 121             FtpViewShowFileSize();
 9315 20ED CD 2D 21     	call ftpviewshowfilesize
 9316 20F0              ; 122             FtpViewShowFileDate();
 9317 20F0 CD BD 21     	call ftpviewshowfiledate
 9318 20F3              __l_635:
 9319 20F3 E1           	pop hl
 9320 20F4 C1           	pop bc
 9321 20F5 C9           	ret
 9322 20F6              ; 123         }
 9323 20F6              ; 124     }
 9324 20F6              ; 125 }
 9325 20F6              ; 126
 9326 20F6              ; 127 // A = 1 - Dir
 9327 20F6              ; 128 void FtpViewShowIsDirA() {
 9328 20F6              ftpviewshowisdira:
 9329 20F6              ; 129     push_pop(bc) {
 9330 20F6 C5           	push bc
 9331 20F7              ; 130         a &= 0x01;
 9332 20F7 E6 01        	and 1
 9333 20F9              ; 131         b = a;
 9334 20F9 47           	ld b, a
 9335 20FA              ; 132         a = FtpViewX;
 9336 20FA 3A 5D 24     	ld a, (ftpviewx)
 9337 20FD              ; 133         a += 1;
 9338 20FD C6 01        	add 1
 9339 20FF              ; 134         myCharPosX = a;
 9340 20FF 32 E3 0E     	ld (mycharposx), a
 9341 2102              ; 135         if ((a = b) == 1) {
 9342 2102 78           	ld a, b
 9343 2103 FE 01        	cp 1
 9344 2105 C2 10 21     	jp nz, __l_636
 9345 2108              ; 136             printMyCharA(a = 0x1F); //0x10
 9346 2108 3E 1F        	ld a, 31
 9347 210A CD 4E 0D     	call printmychara
 9348 210D C3 15 21     	jp __l_637
 9349 2110              __l_636:
 9350 2110              ; 137         } else {
 9351 2110              ; 138             printMyCharA(a = ' ');
 9352 2110 3E 20        	ld a, 32
 9353 2112 CD 4E 0D     	call printmychara
 9354 2115              __l_637:
 9355 2115 C1           	pop bc
 9356 2116 C9           	ret
 9357 2117              ; 139         }
 9358 2117              ; 140     }
 9359 2117              ; 141 }
 9360 2117              ; 142
 9361 2117              ; 143 void FtpViewShowFileName() {
 9362 2117              ftpviewshowfilename:
 9363 2117              ; 144     // X pos
 9364 2117              ; 145     a = FtpViewX;
 9365 2117 3A 5D 24     	ld a, (ftpviewx)
 9366 211A              ; 146     a += 2;
 9367 211A C6 02        	add 2
 9368 211C              ; 147     myCharPosX = a;
 9369 211C 32 E3 0E     	ld (mycharposx), a
 9370 211F              ; 148     //
 9371 211F              ; 149     b = 8;
 9372 211F 06 08        	ld b, 8
 9373 2121              ; 150     do {
 9374 2121              __l_638:
 9375 2121              ; 151         printMyCharA(a = *hl);
 9376 2121 7E           	ld a, (hl)
 9377 2122 CD 4E 0D     	call printmychara
 9378 2125              ; 152         hl++;
 9379 2125 23           	inc hl
 9380 2126              ; 153         b--;
 9381 2126 05           	dec b
 9382 2127              __l_639:
 9383 2127              ; 154     } while ((a = b) > 0);
 9384 2127 78           	ld a, b
 9385 2128 B7           	or a
 9386 2129 C2 21 21     	jp nz, __l_638
 9387 212C C9           	ret
 9388 212D              ; 155 }
 9389 212D              ; 156
 9390 212D              ; 157 void FtpViewShowFileSize() {
 9391 212D              ftpviewshowfilesize:
 9392 212D              ; 158     push_pop(bc, de) {
 9393 212D C5           	push bc
 9394 212E D5           	push de
 9395 212F              ; 159         // X pos
 9396 212F              ; 160         a = FtpViewX;
 9397 212F 3A 5D 24     	ld a, (ftpviewx)
 9398 2132              ; 161         a += 11;
 9399 2132 C6 0B        	add 11
 9400 2134              ; 162         myCharPosX = a;
 9401 2134 32 E3 0E     	ld (mycharposx), a
 9402 2137              ; 163         //
 9403 2137              ; 164         a = *hl;
 9404 2137 7E           	ld a, (hl)
 9405 2138              ; 165         d = a;
 9406 2138 57           	ld d, a
 9407 2139              ; 166         hl++;
 9408 2139 23           	inc hl
 9409 213A              ; 167         a = *hl;
 9410 213A 7E           	ld a, (hl)
 9411 213B              ; 168         e = a;
 9412 213B 5F           	ld e, a
 9413 213C              ; 169         hl++;
 9414 213C 23           	inc hl
 9415 213D              ; 170         a = *hl;
 9416 213D 7E           	ld a, (hl)
 9417 213E              ; 171         hl++;
 9418 213E 23           	inc hl
 9419 213F              ; 172         a &= 0x01;
 9420 213F E6 01        	and 1
 9421 2141              ; 173         if (a == 0x00) {
 9422 2141 B7           	or a
 9423 2142 C2 7E 21     	jp nz, __l_641
 9424 2145              ; 174             push_pop(hl) {
 9425 2145 E5           	push hl
 9426 2146              ; 175                 h = 0; // файл для Орион
 9427 2146 26 00        	ld h, 0
 9428 2148              ; 176                 if ((a = d) == 0xFF) {
 9429 2148 7A           	ld a, d
 9430 2149 FE FF        	cp 255
 9431 214B C2 56 21     	jp nz, __l_643
 9432 214E              ; 177                     if ((a = e) == 0xFF) {
 9433 214E 7B           	ld a, e
 9434 214F FE FF        	cp 255
 9435 2151 C2 56 21     	jp nz, __l_645
 9436 2154              ; 178                         h = 1; // Файл слишком большой для Орион
 9437 2154 26 01        	ld h, 1
 9438 2156              __l_645:
 9439 2156              __l_643:
 9440 2156              ; 179                     }
 9441 2156              ; 180                 }
 9442 2156              ; 181                 if ((a = h) == 0) { // Показываем размер
 9443 2156 7C           	ld a, h
 9444 2157 B7           	or a
 9445 2158 C2 61 21     	jp nz, __l_647
 9446 215B              ; 182                     FtpViewShow4CharSizeDE();
 9447 215B CD 9A 21     	call ftpviewshow4charsizede
 9448 215E C3 75 21     	jp __l_648
 9449 2161              __l_647:
 9450 2161              ; 183                 } else { // Файл слишком большой
 9451 2161              ; 184                     printMyCharA(a = ' ');
 9452 2161 3E 20        	ld a, 32
 9453 2163 CD 4E 0D     	call printmychara
 9454 2166              ; 185                     printMyCharA(a = 'B');
 9455 2166 3E 42        	ld a, 66
 9456 2168 CD 4E 0D     	call printmychara
 9457 216B              ; 186                     printMyCharA(a = 'I');
 9458 216B 3E 49        	ld a, 73
 9459 216D CD 4E 0D     	call printmychara
 9460 2170              ; 187                     printMyCharA(a = 'G');
 9461 2170 3E 47        	ld a, 71
 9462 2172 CD 4E 0D     	call printmychara
 9463 2175              __l_648:
 9464 2175 E1           	pop hl
 9465 2176              ; 188                 }
 9466 2176              ; 189             }
 9467 2176              ; 190             FtpViewShowIsDirA(a = 0);
 9468 2176 3E 00        	ld a, 0
 9469 2178 CD F6 20     	call ftpviewshowisdira
 9470 217B C3 97 21     	jp __l_642
 9471 217E              __l_641:
 9472 217E              ; 191         } else {
 9473 217E              ; 192             printMyCharA(a = ' ');
 9474 217E 3E 20        	ld a, 32
 9475 2180 CD 4E 0D     	call printmychara
 9476 2183              ; 193             printMyCharA(a = ' ');
 9477 2183 3E 20        	ld a, 32
 9478 2185 CD 4E 0D     	call printmychara
 9479 2188              ; 194             printMyCharA(a = ' ');
 9480 2188 3E 20        	ld a, 32
 9481 218A CD 4E 0D     	call printmychara
 9482 218D              ; 195             printMyCharA(a = ' ');
 9483 218D 3E 20        	ld a, 32
 9484 218F CD 4E 0D     	call printmychara
 9485 2192              ; 196             FtpViewShowIsDirA(a = 1);
 9486 2192 3E 01        	ld a, 1
 9487 2194 CD F6 20     	call ftpviewshowisdira
 9488 2197              __l_642:
 9489 2197 D1           	pop de
 9490 2198 C1           	pop bc
 9491 2199 C9           	ret
 9492 219A              ; 197         }
 9493 219A              ; 198     }
 9494 219A              ; 199 }
 9495 219A              ; 200
 9496 219A              ; 201 void FtpViewShow4CharSizeDE() {
 9497 219A              ftpviewshow4charsizede:
 9498 219A              ; 202     if ((a = d) < 4) { // < 1024 в байтах //flag_c
 9499 219A 7A           	ld a, d
 9500 219B FE 04        	cp 4
 9501 219D D2 AA 21     	jp nc, __l_649
 9502 21A0              ; 203         push_pop(hl) {
 9503 21A0 E5           	push hl
 9504 21A1              ; 204             h = d;
 9505 21A1 62           	ld h, d
 9506 21A2              ; 205             l = e;
 9507 21A2 6B           	ld l, e
 9508 21A3              ; 206             printMyAsDec4095HL();
 9509 21A3 CD 29 0E     	call printmyasdec4095hl
 9510 21A6 E1           	pop hl
 9511 21A7 C3 BC 21     	jp __l_650
 9512 21AA              __l_649:
 9513 21AA              ; 207         }
 9514 21AA              ; 208     } else { // В Кб
 9515 21AA              ; 209         a = d;
 9516 21AA 7A           	ld a, d
 9517 21AB              ; 210         a &= 0xFC;
 9518 21AB E6 FC        	and 252
 9519 21AD              ; 211         cyclic_rotate_right(a, 2);
 9520 21AD 0F           	rrca
 9521 21AE 0F           	rrca
 9522 21AF              ; 212         printMyAsDec99A();
 9523 21AF CD B9 0D     	call printmyasdec99a
 9524 21B2              ; 213         printMyCharA(a = 'K');
 9525 21B2 3E 4B        	ld a, 75
 9526 21B4 CD 4E 0D     	call printmychara
 9527 21B7              ; 214         printMyCharA(a = 'b');
 9528 21B7 3E 62        	ld a, 98
 9529 21B9 CD 4E 0D     	call printmychara
 9530 21BC              __l_650:
 9531 21BC C9           	ret
 9532 21BD              ; 215     }
 9533 21BD              ; 216 }
 9534 21BD              ; 217
 9535 21BD              ; 218 void FtpViewShowFileDate() {
 9536 21BD              ftpviewshowfiledate:
 9537 21BD              ; 219     push_pop(bc, de) {
 9538 21BD C5           	push bc
 9539 21BE D5           	push de
 9540 21BF              ; 220         // X pos
 9541 21BF              ; 221         a = FtpViewX;
 9542 21BF 3A 5D 24     	ld a, (ftpviewx)
 9543 21C2              ; 222         a += 16;
 9544 21C2 C6 10        	add 16
 9545 21C4              ; 223         myCharPosX = a;
 9546 21C4 32 E3 0E     	ld (mycharposx), a
 9547 21C7              ; 224         //-- GGGG
 9548 21C7              ; 225         d = *hl;
 9549 21C7 56           	ld d, (hl)
 9550 21C8              ; 226         hl++;
 9551 21C8 23           	inc hl
 9552 21C9              ; 227         e = *hl;
 9553 21C9 5E           	ld e, (hl)
 9554 21CA              ; 228         hl++;
 9555 21CA 23           	inc hl
 9556 21CB              ; 229         push_pop(hl) {
 9557 21CB E5           	push hl
 9558 21CC              ; 230             h = d;
 9559 21CC 62           	ld h, d
 9560 21CD              ; 231             l = e;
 9561 21CD 6B           	ld l, e
 9562 21CE              ; 232             printMyAsDec4095HL();
 9563 21CE CD 29 0E     	call printmyasdec4095hl
 9564 21D1 E1           	pop hl
 9565 21D2              ; 233         }
 9566 21D2              ; 234         //--
 9567 21D2              ; 235         printMyCharA(a = '-');
 9568 21D2 3E 2D        	ld a, 45
 9569 21D4 CD 4E 0D     	call printmychara
 9570 21D7              ; 236         //--
 9571 21D7              ; 237         printMyAs00Dec99A(a = *hl);
 9572 21D7 7E           	ld a, (hl)
 9573 21D8 CD F1 0D     	call printmyas00dec99a
 9574 21DB              ; 238         hl++;
 9575 21DB 23           	inc hl
 9576 21DC              ; 239         //--
 9577 21DC              ; 240         printMyCharA(a = '-');
 9578 21DC 3E 2D        	ld a, 45
 9579 21DE CD 4E 0D     	call printmychara
 9580 21E1              ; 241         //--
 9581 21E1              ; 242         printMyAs00Dec99A(a = *hl);
 9582 21E1 7E           	ld a, (hl)
 9583 21E2 CD F1 0D     	call printmyas00dec99a
 9584 21E5              ; 243         hl++;
 9585 21E5 23           	inc hl
 9586 21E6 D1           	pop de
 9587 21E7 C1           	pop bc
 9588 21E8 C9           	ret
 9589 21E9              ; 244     }
 9590 21E9              ; 245 }
 9591 21E9              ; 246
 9592 21E9              ; 247 void FtpViewShowPath() {
 9593 21E9              ftpviewshowpath:
 9594 21E9              ; 248     push_pop(bc, de, hl) {
 9595 21E9 C5           	push bc
 9596 21EA D5           	push de
 9597 21EB E5           	push hl
 9598 21EC              ; 249         a = FtpViewX;
 9599 21EC 3A 5D 24     	ld a, (ftpviewx)
 9600 21EF              ; 250         b = a;
 9601 21EF 47           	ld b, a
 9602 21F0              ; 251         a = FtpViewDX;
 9603 21F0 3A 5F 24     	ld a, (ftpviewdx)
 9604 21F3              ; 252         a += b;
 9605 21F3 80           	add b
 9606 21F4              ; 253         a -= 19;
 9607 21F4 D6 13        	sub 19
 9608 21F6              ; 254         myCharPosX = a;
 9609 21F6 32 E3 0E     	ld (mycharposx), a
 9610 21F9              ; 255         a = FtpViewY;
 9611 21F9 3A 5E 24     	ld a, (ftpviewy)
 9612 21FC              ; 256         myCharPosY = a;
 9613 21FC 32 E4 0E     	ld (mycharposy), a
 9614 21FF              ; 257         de = FtpViewPath;
 9615 21FF 11 69 24     	ld de, ftpviewpath
 9616 2202              ; 258         printMyCharA(a = 0xB5);
 9617 2202 3E B5        	ld a, 181
 9618 2204 CD 4E 0D     	call printmychara
 9619 2207              ; 259         b = 16;
 9620 2207 06 10        	ld b, 16
 9621 2209              ; 260         c = 0;
 9622 2209 0E 00        	ld c, 0
 9623 220B              ; 261         do {
 9624 220B              __l_651:
 9625 220B              ; 262             a = *de;
 9626 220B 1A           	ld a, (de)
 9627 220C              ; 263             de++;
 9628 220C 13           	inc de
 9629 220D              ; 264             if (a == 0) {
 9630 220D B7           	or a
 9631 220E C2 13 22     	jp nz, __l_654
 9632 2211              ; 265                 c = 1;
 9633 2211 0E 01        	ld c, 1
 9634 2213              __l_654:
 9635 2213              ; 266             }
 9636 2213              ; 267             h = a;
 9637 2213 67           	ld h, a
 9638 2214              ; 268             if ((a = c) == 0) {
 9639 2214 79           	ld a, c
 9640 2215 B7           	or a
 9641 2216 C2 20 22     	jp nz, __l_656
 9642 2219              ; 269                 printMyCharA(a = h);
 9643 2219 7C           	ld a, h
 9644 221A CD 4E 0D     	call printmychara
 9645 221D C3 25 22     	jp __l_657
 9646 2220              __l_656:
 9647 2220              ; 270             } else {
 9648 2220              ; 271                 printMyCharA(a = ' ');
 9649 2220 3E 20        	ld a, 32
 9650 2222 CD 4E 0D     	call printmychara
 9651 2225              __l_657:
 9652 2225              ; 272             }
 9653 2225              ; 273             b--;
 9654 2225 05           	dec b
 9655 2226              __l_652:
 9656 2226              ; 274         } while ((a = b) > 0);
 9657 2226 78           	ld a, b
 9658 2227 B7           	or a
 9659 2228 C2 0B 22     	jp nz, __l_651
 9660 222B              ; 275         printMyCharA(a = 0xC6);
 9661 222B 3E C6        	ld a, 198
 9662 222D CD 4E 0D     	call printmychara
 9663 2230 E1           	pop hl
 9664 2231 D1           	pop de
 9665 2232 C1           	pop bc
 9666 2233 C9           	ret
 9667 2234              ; 276     }
 9668 2234              ; 277 }
 9669 2234              ; 278
 9670 2234              ; 279 /// Обновление позиции
 9671 2234              ; 280 /// вх[A]
 9672 2234              ; 281 /// 0 - без изменений
 9673 2234              ; 282 /// 1 - вверх
 9674 2234              ; 283 /// 0xFF - вниз
 9675 2234              ; 284 void FtpViewFileCurrentPosUpdateA() {
 9676 2234              ftpviewfilecurrentposupdatea:
 9677 2234              ; 285     push_pop(bc) {
 9678 2234 C5           	push bc
 9679 2235              ; 286         b = a;
 9680 2235 47           	ld b, a
 9681 2236              ; 287         if (a == 0) {
 9682 2236 B7           	or a
 9683 2237 C2 42 22     	jp nz, __l_658
 9684 223A              ; 288             FtpViewShowSelectLineA(a = 1);
 9685 223A 3E 01        	ld a, 1
 9686 223C CD 69 22     	call ftpviewshowselectlinea
 9687 223F C3 67 22     	jp __l_659
 9688 2242              __l_658:
 9689 2242              ; 289         } else {
 9690 2242              ; 290             a = FtpViewFilesListCount;
 9691 2242 3A 7A 24     	ld a, (ftpviewfileslistcount)
 9692 2245              ; 291             c = a;
 9693 2245 4F           	ld c, a
 9694 2246              ; 292             FtpViewShowSelectLineA(a = 0);
 9695 2246 3E 00        	ld a, 0
 9696 2248 CD 69 22     	call ftpviewshowselectlinea
 9697 224B              ; 293             a = FtpViewFileCurrentPos;
 9698 224B 3A 79 24     	ld a, (ftpviewfilecurrentpos)
 9699 224E              ; 294             a += b;
 9700 224E 80           	add b
 9701 224F              ; 295             //
 9702 224F              ; 296             if (a == 0xFF) {
 9703 224F FE FF        	cp 255
 9704 2251 C2 59 22     	jp nz, __l_660
 9705 2254              ; 297                 a = c;
 9706 2254 79           	ld a, c
 9707 2255              ; 298                 a--;
 9708 2255 3D           	dec a
 9709 2256 C3 5F 22     	jp __l_661
 9710 2259              __l_660:
 9711 2259              ; 299             } else if (a == c) {
 9712 2259 B9           	cp c
 9713 225A C2 5F 22     	jp nz, __l_662
 9714 225D              ; 300                 a = 0;
 9715 225D 3E 00        	ld a, 0
 9716 225F              __l_662:
 9717 225F              __l_661:
 9718 225F              ; 301             }
 9719 225F              ; 302             FtpViewFileCurrentPos = a;
 9720 225F 32 79 24     	ld (ftpviewfilecurrentpos), a
 9721 2262              ; 303             FtpViewShowSelectLineA(a = 1);
 9722 2262 3E 01        	ld a, 1
 9723 2264 CD 69 22     	call ftpviewshowselectlinea
 9724 2267              __l_659:
 9725 2267 C1           	pop bc
 9726 2268 C9           	ret
 9727 2269              ; 304         }
 9728 2269              ; 305     }
 9729 2269              ; 306 }
 9730 2269              ; 307
 9731 2269              ; 308 /// Рисование линии прямым или инверсным цветом
 9732 2269              ; 309 /// 0 - прямой
 9733 2269              ; 310 /// 1 - инверсный
 9734 2269              ; 311 void FtpViewShowSelectLineA() {
 9735 2269              ftpviewshowselectlinea:
 9736 2269              ; 312     push_pop(bc) {
 9737 2269 C5           	push bc
 9738 226A              ; 313         c = a;
 9739 226A 4F           	ld c, a
 9740 226B              ; 314         // HL
 9741 226B              ; 315         a = FtpViewFileCurrentPos;
 9742 226B 3A 79 24     	ld a, (ftpviewfilecurrentpos)
 9743 226E              ; 316         b = a;
 9744 226E 47           	ld b, a
 9745 226F              ; 317         a = FtpViewY;
 9746 226F 3A 5E 24     	ld a, (ftpviewy)
 9747 2272              ; 318         a += 2;
 9748 2272 C6 02        	add 2
 9749 2274              ; 319         a += b;
 9750 2274 80           	add b
 9751 2275              ; 320         l = a;
 9752 2275 6F           	ld l, a
 9753 2276              ; 321         a = FtpViewX;
 9754 2276 3A 5D 24     	ld a, (ftpviewx)
 9755 2279              ; 322         a += 1;
 9756 2279 C6 01        	add 1
 9757 227B              ; 323         h = a;
 9758 227B 67           	ld h, a
 9759 227C              ; 324         // DE
 9760 227C              ; 325         a = FtpViewDX;
 9761 227C 3A 5F 24     	ld a, (ftpviewdx)
 9762 227F              ; 326         a -= 2;
 9763 227F D6 02        	sub 2
 9764 2281              ; 327         d = a;
 9765 2281 57           	ld d, a
 9766 2282              ; 328         a = 1;
 9767 2282 3E 01        	ld a, 1
 9768 2284              ; 329         e = a;
 9769 2284 5F           	ld e, a
 9770 2285              ; 330         // C
 9771 2285              ; 331         if ((a = c) == 0) {
 9772 2285 79           	ld a, c
 9773 2286 B7           	or a
 9774 2287 C2 90 22     	jp nz, __l_664
 9775 228A              ; 332             a = FtpViewColor;
 9776 228A 3A 61 24     	ld a, (ftpviewcolor)
 9777 228D C3 93 22     	jp __l_665
 9778 2290              __l_664:
 9779 2290              ; 333         } else {
 9780 2290              ; 334             a = FtpViewInvColor;
 9781 2290 3A 62 24     	ld a, (ftpviewinvcolor)
 9782 2293              __l_665:
 9783 2293              ; 335         }
 9784 2293              ; 336         c = a;
 9785 2293 4F           	ld c, a
 9786 2294              ; 337         // A
 9787 2294              ; 338         a = vboxUMP;
 9788 2294 3E 04        	ld a, 4
 9789 2296              ; 339         vboxOpenHLDECA();
 9790 2296 CD 6D 39     	call vboxopenhldeca
 9791 2299 C1           	pop bc
 9792 229A C9           	ret
 9793 229B              ; 340     }
 9794 229B              ; 341 }
 9795 229B              ; 342
 9796 229B              ; 343 void FtpViewKeyA() {
 9797 229B              ftpviewkeya:
 9798 229B              ; 344     push_pop(hl) {
 9799 229B E5           	push hl
 9800 229C              ; 345         l = a;
 9801 229C 6F           	ld l, a
 9802 229D              ; 346         if ((a = CurrentViewId) == FtpViewId) {
 9803 229D 3A 8F 10     	ld a, (currentviewid)
 9804 22A0 FE 02        	cp 2
 9805 22A2 C2 59 23     	jp nz, __l_666
 9806 22A5              ; 347             if ((a = l) == 0x09) { //0x09 TAB
 9807 22A5 7D           	ld a, l
 9808 22A6 FE 09        	cp 9
 9809 22A8 C2 B3 22     	jp nz, __l_668
 9810 22AB              ; 348                 CurrentViewChangeIdA(a = DiskViewId);
 9811 22AB 3E 01        	ld a, 1
 9812 22AD CD 63 0F     	call currentviewchangeida
 9813 22B0 C3 59 23     	jp __l_669
 9814 22B3              __l_668:
 9815 22B3              ; 349             } else {
 9816 22B3              ; 350                 if ((a = l) == 0x1A) { //down
 9817 22B3 7D           	ld a, l
 9818 22B4 FE 1A        	cp 26
 9819 22B6 C2 C1 22     	jp nz, __l_670
 9820 22B9              ; 351                     FtpViewFileCurrentPosUpdateA(a = 0x01);
 9821 22B9 3E 01        	ld a, 1
 9822 22BB CD 34 22     	call ftpviewfilecurrentposupdatea
 9823 22BE C3 59 23     	jp __l_671
 9824 22C1              __l_670:
 9825 22C1              ; 352                 } else if ((a = l) == 0x19) { //up
 9826 22C1 7D           	ld a, l
 9827 22C2 FE 19        	cp 25
 9828 22C4 C2 CF 22     	jp nz, __l_672
 9829 22C7              ; 353                     FtpViewFileCurrentPosUpdateA(a = 0xFF);
 9830 22C7 3E FF        	ld a, 255
 9831 22C9 CD 34 22     	call ftpviewfilecurrentposupdatea
 9832 22CC C3 59 23     	jp __l_673
 9833 22CF              __l_672:
 9834 22CF              ; 354                 } else if ((a = l) == 0x0D) { //Enter
 9835 22CF 7D           	ld a, l
 9836 22D0 FE 0D        	cp 13
 9837 22D2 C2 04 23     	jp nz, __l_674
 9838 22D5              ; 355                     if ((a = FtpViewFileCurrentPos) == 0) { // Dir UP
 9839 22D5 3A 79 24     	ld a, (ftpviewfilecurrentpos)
 9840 22D8 B7           	or a
 9841 22D9 C2 E5 22     	jp nz, __l_676
 9842 22DC              ; 356                         NetFtpChangeDirUp();
 9843 22DC CD 1B 05     	call netftpchangedirup
 9844 22DF              ; 357                         FtpViewNetLoadAndUpdate();
 9845 22DF CD C8 23     	call ftpviewnetloadandupdate
 9846 22E2 C3 01 23     	jp __l_677
 9847 22E5              __l_676:
 9848 22E5              ; 358                     } else {
 9849 22E5              ; 359                         FtpViewCurrentPosIsDir();
 9850 22E5 CD F7 23     	call ftpviewcurrentposisdir
 9851 22E8              ; 360                         if (a == 1) { // Enter Dir
 9852 22E8 FE 01        	cp 1
 9853 22EA C2 FE 22     	jp nz, __l_678
 9854 22ED              ; 361                             FtpViewShowSelectLineA(a = 0); // TODO надо убрать...
 9855 22ED 3E 00        	ld a, 0
 9856 22EF CD 69 22     	call ftpviewshowselectlinea
 9857 22F2              ; 362                             NetFtpChangeDirIndexA(a = FtpViewFileCurrentPos);
 9858 22F2 3A 79 24     	ld a, (ftpviewfilecurrentpos)
 9859 22F5 CD 25 05     	call netftpchangedirindexa
 9860 22F8              ; 363                             FtpViewNetLoadAndUpdate();
 9861 22F8 CD C8 23     	call ftpviewnetloadandupdate
 9862 22FB C3 01 23     	jp __l_679
 9863 22FE              __l_678:
 9864 22FE              ; 364                         } else { // Load file
 9865 22FE              ; 365                             FtpViewAccessDiskSpace();
 9866 22FE CD 5B 23     	call ftpviewaccessdiskspace
 9867 2301              __l_679:
 9868 2301              __l_677:
 9869 2301 C3 59 23     	jp __l_675
 9870 2304              __l_674:
 9871 2304              ; 366                         }
 9872 2304              ; 367                     }
 9873 2304              ; 368                 } else if ((a = l) == 'R') { // Обновление папки
 9874 2304 7D           	ld a, l
 9875 2305 FE 52        	cp 82
 9876 2307 C2 10 23     	jp nz, __l_680
 9877 230A              ; 369                     FtpViewNetLoadAndUpdate();
 9878 230A CD C8 23     	call ftpviewnetloadandupdate
 9879 230D C3 59 23     	jp __l_681
 9880 2310              __l_680:
 9881 2310              ; 370                 } else if ((a = l) == 'C') { // загрузка файла
 9882 2310 7D           	ld a, l
 9883 2311 FE 43        	cp 67
 9884 2313 C2 23 23     	jp nz, __l_682
 9885 2316              ; 371                     FtpViewCurrentPosIsDir();
 9886 2316 CD F7 23     	call ftpviewcurrentposisdir
 9887 2319              ; 372                     if (a == 0) { // Проверим что это файл
 9888 2319 B7           	or a
 9889 231A C2 20 23     	jp nz, __l_684
 9890 231D              ; 373                         FtpViewAccessDiskSpace();
 9891 231D CD 5B 23     	call ftpviewaccessdiskspace
 9892 2320              __l_684:
 9893 2320 C3 59 23     	jp __l_683
 9894 2323              __l_682:
 9895 2323              ; 374                     }
 9896 2323              ; 375                 } else if ((a = l) == 'H') { // Перейти в домашную папку
 9897 2323 7D           	ld a, l
 9898 2324 FE 48        	cp 72
 9899 2326 C2 2F 23     	jp nz, __l_686
 9900 2329              ; 376                     ThreadsNetFtpGoToHomeDir();
 9901 2329 CD 65 15     	call threadsnetftpgotohomedir
 9902 232C C3 59 23     	jp __l_687
 9903 232F              __l_686:
 9904 232F              ; 377                 } else if ((a = l) == 'E') { // Удалить файл
 9905 232F 7D           	ld a, l
 9906 2330 FE 45        	cp 69
 9907 2332 C2 50 23     	jp nz, __l_688
 9908 2335              ; 378                     if ((a = FtpViewFileCurrentPos) > 0) {
 9909 2335 3A 79 24     	ld a, (ftpviewfilecurrentpos)
 9910 2338 B7           	or a
 9911 2339 CA 4D 23     	jp z, __l_690
 9912 233C              ; 379                         AllertYesNoViewShowHL(hl = StringLocaleEraseFile);
 9913 233C 21 9C 10     	ld hl, stringlocaleerasefile
 9914 233F CD F3 29     	call allertyesnoviewshowhl
 9915 2342              ; 380                         if (a == 1) {
 9916 2342 FE 01        	cp 1
 9917 2344 C2 4D 23     	jp nz, __l_692
 9918 2347              ; 381                             ThreadsNetFtpDeleteFileA(a = FtpViewFileCurrentPos);
 9919 2347 3A 79 24     	ld a, (ftpviewfilecurrentpos)
 9920 234A CD 85 15     	call threadsnetftpdeletefilea
 9921 234D              __l_692:
 9922 234D              __l_690:
 9923 234D C3 59 23     	jp __l_689
 9924 2350              __l_688:
 9925 2350              ; 382                         }
 9926 2350              ; 383                     }
 9927 2350              ; 384                 } else if ((a = l) == 'D') { // Создание новой папки
 9928 2350 7D           	ld a, l
 9929 2351 FE 44        	cp 68
 9930 2353 C2 59 23     	jp nz, __l_694
 9931 2356              ; 385                     FtpMakeDirectoryShow();
 9932 2356 CD AC 2C     	call ftpmakedirectoryshow
 9933 2359              __l_694:
 9934 2359              __l_689:
 9935 2359              __l_687:
 9936 2359              __l_683:
 9937 2359              __l_681:
 9938 2359              __l_675:
 9939 2359              __l_673:
 9940 2359              __l_671:
 9941 2359              __l_669:
 9942 2359              __l_666:
 9943 2359 E1           	pop hl
 9944 235A C9           	ret
 9945 235B              ; 386                 }
 9946 235B              ; 387             }
 9947 235B              ; 388         }
 9948 235B              ; 389     }
 9949 235B              ; 390 }
 9950 235B              ; 391
 9951 235B              ; 392 void FtpViewAccessDiskSpace() {
 9952 235B              ftpviewaccessdiskspace:
 9953 235B              ; 393     push_pop(de, hl) {
 9954 235B D5           	push de
 9955 235C E5           	push hl
 9956 235D              ; 394 //        a = 0;
 9957 235D              ; 395 //        myCharPosX = a;
 9958 235D              ; 396 //        a = 0;
 9959 235D              ; 397 //        myCharPosY = a;
 9960 235D              ; 398         // Находим указатель на файл
 9961 235D              ; 399         d = 0;
 9962 235D 16 00        	ld d, 0
 9963 235F              ; 400         a ^= a;
 9964 235F AF           	xor a
 9965 2360              ; 401         a = FtpViewFileCurrentPos;
 9966 2360 3A 79 24     	ld a, (ftpviewfilecurrentpos)
 9967 2363              ; 402         carry_rotate_left(a, 4);
 9968 2363 17           	rla
 9969 2364 17           	rla
 9970 2365 17           	rla
 9971 2366 17           	rla
 9972 2367              ; 403         e = a;
 9973 2367 5F           	ld e, a
 9974 2368              ; 404         if (flag_c) {
 9975 2368 D2 6D 23     	jp nc, __l_696
 9976 236B              ; 405             d = 1;
 9977 236B 16 01        	ld d, 1
 9978 236D              __l_696:
 9979 236D              ; 406         }
 9980 236D              ; 407         hl = FtpViewFilesList;
 9981 236D 21 7B 24     	ld hl, ftpviewfileslist
 9982 2370              ; 408         hl += de;
 9983 2370 19           	add hl, de
 9984 2371              ; 409         // Сдвигаем к размеру файла и читаем размер
 9985 2371              ; 410         de = 8;
 9986 2371 11 08 00     	ld de, 8
 9987 2374              ; 411         hl += de;
 9988 2374 19           	add hl, de
 9989 2375              ; 412         //
 9990 2375              ; 413         a = *hl;
 9991 2375 7E           	ld a, (hl)
 9992 2376              ; 414         d = a;
 9993 2376 57           	ld d, a
 9994 2377              ; 415         hl++;
 9995 2377 23           	inc hl
 9996 2378              ; 416         a = *hl;
 9997 2378 7E           	ld a, (hl)
 9998 2379              ; 417         e = a;
 9999 2379 5F           	ld e, a
10000 237A              ; 418         //
10001 237A              ; 419 //        printMyHexA(a = d);
10002 237A              ; 420 //        printMyHexA(a = e);
10003 237A              ; 421         //
10004 237A              ; 422         DiskViewIsDiskSpaceDE();
10005 237A CD 1F 19     	call diskviewisdiskspacede
10006 237D              ; 423         if (a == 1) {
10007 237D FE 01        	cp 1
10008 237F C2 88 23     	jp nz, __l_698
10009 2382              ; 424             FtpViewLoadFile();
10010 2382 CD 91 23     	call ftpviewloadfile
10011 2385 C3 8E 23     	jp __l_699
10012 2388              __l_698:
10013 2388              ; 425         } else {
10014 2388              ; 426             AllertOkViewShowHL(hl = StringLocaleDiskFull);
10015 2388 21 0A 11     	ld hl, stringlocalediskfull
10016 238B CD ED 2B     	call allertokviewshowhl
10017 238E              __l_699:
10018 238E E1           	pop hl
10019 238F D1           	pop de
10020 2390 C9           	ret
10021 2391              ; 427         }
10022 2391              ; 428     }
10023 2391              ; 429 }
10024 2391              ; 430
10025 2391              ; 431 void FtpViewLoadFile() {
10026 2391              ftpviewloadfile:
10027 2391              ; 432     //--
10028 2391              ; 433     a ^= a;
10029 2391 AF           	xor a
10030 2392              ; 434     d = 0;
10031 2392 16 00        	ld d, 0
10032 2394              ; 435     a = FtpViewFileCurrentPos;
10033 2394 3A 79 24     	ld a, (ftpviewfilecurrentpos)
10034 2397              ; 436     carry_rotate_left(a, 4);
10035 2397 17           	rla
10036 2398 17           	rla
10037 2399 17           	rla
10038 239A 17           	rla
10039 239B              ; 437     e = a;
10040 239B 5F           	ld e, a
10041 239C              ; 438     if (flag_c) {
10042 239C D2 A0 23     	jp nc, __l_700
10043 239F              ; 439         d++;
10044 239F 14           	inc d
10045 23A0              __l_700:
10046 23A0              ; 440     }
10047 23A0              ; 441     hl = FtpViewFilesList;
10048 23A0 21 7B 24     	ld hl, ftpviewfileslist
10049 23A3              ; 442     hl += de;
10050 23A3 19           	add hl, de
10051 23A4              ; 443     //--
10052 23A4              ; 444     LoadViewShowHL(hl = LoadViewLoadTitle);
10053 23A4 21 95 26     	ld hl, loadviewloadtitle
10054 23A7 CD EB 25     	call loadviewshowhl
10055 23AA              ; 445     #ifdef _IS_SIMULATOR
10056 23AA              ; 446         push_pop(bc) {
10057 23AA              ; 447             b = 0;
10058 23AA              ; 448             do {
10059 23AA              ; 449                 LoadViewShowProgressA(a = b);
10060 23AA              ; 450                 c = 1;
10061 23AA              ; 451                 do {
10062 23AA              ; 452                     delay50ms();
10063 23AA              ; 453                     c--;
10064 23AA              ; 454                 } while ((a = c) > 0);
10065 23AA              ; 455                 b++;
10066 23AA              ; 456             } while ((a = b) < 40);
10067 23AA              ; 457             LoadViewClose();
10068 23AA              ; 458             DiskViewUpdateDateAndUI();
10069 23AA              ; 459         }
10070 23AA              ; 460     #else
10071 23AA              ; 461         FtpViewNeedLoad();
10072 23AA CD B3 23     	call ftpviewneedload
10073 23AD              ; 462         LoadViewClose();
10074 23AD CD 1A 26     	call loadviewclose
10075 23B0              ; 463         DiskViewUpdateDateAndUI();
10076 23B0 C3 B7 19     	jp diskviewupdatedateandui
10077 23B3              ; 464     #endif
10078 23B3              ; 465 }
10079 23B3              ; 466
10080 23B3              ; 467 void FtpViewNeedLoad() {
10081 23B3              ftpviewneedload:
10082 23B3              ; 468     NetFtpLoadFileA(a = FtpViewFileCurrentPos);
10083 23B3 3A 79 24     	ld a, (ftpviewfilecurrentpos)
10084 23B6 CD 6B 05     	call netftploadfilea
10085 23B9              ; 469
10086 23B9              ; 470     // Считываем текущий диск и устанавливаем его
10087 23B9              ; 471     a = DiskViewDiskNum;
10088 23B9 3A 54 1A     	ld a, (diskviewdisknum)
10089 23BC              ; 472     ordos_wnd();
10090 23BC CD D6 BF     	call ordos_wnd
10091 23BF              ; 473
10092 23BF              ; 474     // Получаем адрес куда надо начинать писать данные
10093 23BF              ; 475     ordos_mxdsk();
10094 23BF CD B8 BF     	call ordos_mxdsk
10095 23C2              ; 476     DiskViewStartNewFile = hl;
10096 23C2 22 59 1A     	ld (diskviewstartnewfile), hl
10097 23C5              ; 477
10098 23C5              ; 478     // Вызываем закачку
10099 23C5              ; 479     NetFtpLoadFileNext();
10100 23C5 C3 79 05     	jp netftploadfilenext
10101 23C8              ; 480 }
10102 23C8              ; 481
10103 23C8              ; 482 void FtpViewNetLoadAndUpdate() {
10104 23C8              ftpviewnetloadandupdate:
10105 23C8              ; 483     FtpViewShowSelectLineA(a = 0);
10106 23C8 3E 00        	ld a, 0
10107 23CA CD 69 22     	call ftpviewshowselectlinea
10108 23CD              ; 484     NetFtpGetCurrentPath();
10109 23CD CD FE 04     	call netftpgetcurrentpath
10110 23D0              ; 485     if ((a = FtpStateViewStatus) == 1) {
10111 23D0 3A D6 1C     	ld a, (ftpstateviewstatus)
10112 23D3 FE 01        	cp 1
10113 23D5 C2 DE 23     	jp nz, __l_702
10114 23D8              ; 486         NetFtpUpdateList();
10115 23D8 CD 33 05     	call netftpupdatelist
10116 23DB              ; 487         NetFtpListFiles();
10117 23DB CD 43 05     	call netftplistfiles
10118 23DE              __l_702:
10119 23DE              ; 488     }
10120 23DE              ; 489     a = 0;
10121 23DE 3E 00        	ld a, 0
10122 23E0              ; 490     FtpViewFileCurrentPos = a;
10123 23E0 32 79 24     	ld (ftpviewfilecurrentpos), a
10124 23E3              ; 491     FtpViewShowFileList();
10125 23E3 CD 6A 20     	call ftpviewshowfilelist
10126 23E6              ; 492     FtpViewShowPath();
10127 23E6 CD E9 21     	call ftpviewshowpath
10128 23E9              ; 493     // Показываем курсор, если выбран FTP
10129 23E9              ; 494     if ((a = CurrentViewId) == FtpViewId) {
10130 23E9 3A 8F 10     	ld a, (currentviewid)
10131 23EC FE 02        	cp 2
10132 23EE C2 F6 23     	jp nz, __l_704
10133 23F1              ; 495         FtpViewShowSelectLineA(a = 1);
10134 23F1 3E 01        	ld a, 1
10135 23F3 CD 69 22     	call ftpviewshowselectlinea
10136 23F6              __l_704:
10137 23F6 C9           	ret
10138 23F7              ; 496     }
10139 23F7              ; 497 }
10140 23F7              ; 498
10141 23F7              ; 499 void FtpViewCurrentPosIsDir() {
10142 23F7              ftpviewcurrentposisdir:
10143 23F7              ; 500     push_pop(hl, bc) {
10144 23F7 E5           	push hl
10145 23F8 C5           	push bc
10146 23F9              ; 501         hl = FtpViewFilesList;
10147 23F9 21 7B 24     	ld hl, ftpviewfileslist
10148 23FC              ; 502         //--
10149 23FC              ; 503         a ^= a;
10150 23FC AF           	xor a
10151 23FD              ; 504         a = FtpViewFileCurrentPos;
10152 23FD 3A 79 24     	ld a, (ftpviewfilecurrentpos)
10153 2400              ; 505         a &= 0x3F;
10154 2400 E6 3F        	and 63
10155 2402              ; 506         b = 0;
10156 2402 06 00        	ld b, 0
10157 2404              ; 507         carry_rotate_left(a, 4);
10158 2404 17           	rla
10159 2405 17           	rla
10160 2406 17           	rla
10161 2407 17           	rla
10162 2408              ; 508         if (flag_c) { // Если переполняние младшего разряда, инкремент старшего
10163 2408 D2 0C 24     	jp nc, __l_706
10164 240B              ; 509             b++;
10165 240B 04           	inc b
10166 240C              __l_706:
10167 240C              ; 510         }
10168 240C              ; 511         c = a;
10169 240C 4F           	ld c, a
10170 240D              ; 512         //-- Смещаем на позицию файла
10171 240D              ; 513         hl += bc;
10172 240D 09           	add hl, bc
10173 240E              ; 514         //-- Смещаем на признак директории
10174 240E              ; 515         bc = 10;
10175 240E 01 0A 00     	ld bc, 10
10176 2411              ; 516         hl += bc;
10177 2411 09           	add hl, bc
10178 2412              ; 517         //--
10179 2412              ; 518         a = *hl;
10180 2412 7E           	ld a, (hl)
10181 2413              ; 519         a &= 0x01;
10182 2413 E6 01        	and 1
10183 2415 C1           	pop bc
10184 2416 E1           	pop hl
10185 2417 C9           	ret
10186 2418              ; 520     }
10187 2418              ; 521 }
10188 2418              ; 522
10189 2418              ; 523 void FtpViewEmptyList() {
10190 2418              ftpviewemptylist:
10191 2418              ; 524     push_pop(hl) {
10192 2418 E5           	push hl
10193 2419              ; 525         a = 1;
10194 2419 3E 01        	ld a, 1
10195 241B              ; 526         FtpViewFilesListCount = a;
10196 241B 32 7A 24     	ld (ftpviewfileslistcount), a
10197 241E              ; 527         a = 0;
10198 241E 3E 00        	ld a, 0
10199 2420              ; 528         FtpViewFileCurrentPos = a;
10200 2420 32 79 24     	ld (ftpviewfilecurrentpos), a
10201 2423              ; 529         hl = FtpViewFilesList;
10202 2423 21 7B 24     	ld hl, ftpviewfileslist
10203 2426              ; 530         //--
10204 2426              ; 531         *hl = '.';
10205 2426 36 2E        	ld (hl), 46
10206 2428              ; 532         hl++;
10207 2428 23           	inc hl
10208 2429              ; 533         *hl = '.';
10209 2429 36 2E        	ld (hl), 46
10210 242B              ; 534         hl++;
10211 242B 23           	inc hl
10212 242C              ; 535         //--
10213 242C              ; 536         *hl = ' ';
10214 242C 36 20        	ld (hl), 32
10215 242E              ; 537         hl++;
10216 242E 23           	inc hl
10217 242F              ; 538         *hl = ' ';
10218 242F 36 20        	ld (hl), 32
10219 2431              ; 539         hl++;
10220 2431 23           	inc hl
10221 2432              ; 540         *hl = ' ';
10222 2432 36 20        	ld (hl), 32
10223 2434              ; 541         hl++;
10224 2434 23           	inc hl
10225 2435              ; 542         *hl = ' ';
10226 2435 36 20        	ld (hl), 32
10227 2437              ; 543         hl++;
10228 2437 23           	inc hl
10229 2438              ; 544         *hl = ' ';
10230 2438 36 20        	ld (hl), 32
10231 243A              ; 545         hl++;
10232 243A 23           	inc hl
10233 243B              ; 546         *hl = ' ';
10234 243B 36 20        	ld (hl), 32
10235 243D              ; 547         hl++;
10236 243D 23           	inc hl
10237 243E E1           	pop hl
10238 243F              ; 548     }
10239 243F              ; 549     //--
10240 243F              ; 550     FtpViewListUpdateUI();
10241 243F              ; 551 }
10242 243F              ; 552
10243 243F              ; 553 void FtpViewListUpdateUI() {
10244 243F              ftpviewlistupdateui:
10245 243F              ; 554     FtpViewShowSelectLineA(a = 0);
10246 243F 3E 00        	ld a, 0
10247 2441 CD 69 22     	call ftpviewshowselectlinea
10248 2444              ; 555     a = 0;
10249 2444 3E 00        	ld a, 0
10250 2446              ; 556     FtpViewFileCurrentPos = a;
10251 2446 32 79 24     	ld (ftpviewfilecurrentpos), a
10252 2449              ; 557     FtpViewShowPath();
10253 2449 CD E9 21     	call ftpviewshowpath
10254 244C              ; 558     FtpViewShowFileList();
10255 244C CD 6A 20     	call ftpviewshowfilelist
10256 244F              ; 559     if ((a = CurrentViewId) == FtpViewId) {
10257 244F 3A 8F 10     	ld a, (currentviewid)
10258 2452 FE 02        	cp 2
10259 2454 C2 5C 24     	jp nz, __l_708
10260 2457              ; 560         FtpViewShowSelectLineA(a = 1);
10261 2457 3E 01        	ld a, 1
10262 2459 CD 69 22     	call ftpviewshowselectlinea
10263 245C              __l_708:
10264 245C C9           	ret
10265 245D              ; 561     }
10266 245D              ; 562 }
10267 245D              ; 563
10268 245D              ; 564 uint8_t FtpViewX = 0;
10269 245D              ftpviewx:
10270 245D 00           	db 0
10271 245E              ; 565 uint8_t FtpViewY = 4;
10272 245E              ftpviewy:
10273 245E 04           	db 4
10274 245F              ; 566 uint8_t FtpViewDX = 28;
10275 245F              ftpviewdx:
10276 245F 1C           	db 28
10277 2460              ; 567 uint8_t FtpViewDY = 25;
10278 2460              ftpviewdy:
10279 2460 19           	db 25
10280 2461              ; 568 uint8_t FtpViewColor = 0x1F;
10281 2461              ftpviewcolor:
10282 2461 1F           	db 31
10283 2462              ; 569 uint8_t FtpViewInvColor = 0xF1;
10284 2462              ftpviewinvcolor:
10285 2462 F1           	db 241
10286 2463              ; 571 uint8_t FtpViewTitle[] = {0xB5, 'F', 'T', 'P', 0xC6, '\0'}; //"\x12" + "FTP";
10287 2463              ftpviewtitle:
10288 2463 B5           	db 181
10289 2464 46           	db 70
10290 2465 54           	db 84
10291 2466 50           	db 80
10292 2467 C6           	db 198
10293 2468 00           	db 0
10294 2469              ; 572 uint8_t FtpViewPath[16] = "/";
10295 2469              ftpviewpath:
10296 2469 2F           	db 47
10297 246A 00 00 00...  	ds 15
10298 2479              ; 574 uint8_t FtpViewFileCurrentPos = 0;
10299 2479              ftpviewfilecurrentpos:
10300 2479 00           	db 0
10301 247A              ; 588 uint8_t FtpViewFilesListCount = 1;
10302 247A              ftpviewfileslistcount:
10303 247A 01           	db 1
10304 247B              ; 589 uint8_t FtpViewFilesList[16 * 23] = {
10305 247B              ftpviewfileslist:
10306 247B 2E           	db 46
10307 247C 2E           	db 46
10308 247D 20           	db 32
10309 247E 20           	db 32
10310 247F 20           	db 32
10311 2480 20           	db 32
10312 2481 20           	db 32
10313 2482 20           	db 32
10314 2483 20           	db 32
10315 2484 20           	db 32
10316 2485 20           	db 32
10317 2486 20           	db 32
10318 2487 20           	db 32
10319 2488 20           	db 32
10320 2489 20           	db 32
10321 248A 20           	db 32
10322 248B 00 00 00...  	ds 352
10323 25EB              ; 11 void LoadViewShowHL() {
10324 25EB              loadviewshowhl:
10325 25EB              ; 12     CurrentViewChangeAndPushIdA(a = LoadViewId);
10326 25EB 3E 04        	ld a, 4
10327 25ED CD 58 0F     	call currentviewchangeandpushida
10328 25F0              ; 13     push_pop(bc, hl, de) {
10329 25F0 C5           	push bc
10330 25F1 E5           	push hl
10331 25F2 D5           	push de
10332 25F3              ; 14         a = LoadViewX;
10333 25F3 3A 8F 26     	ld a, (loadviewx)
10334 25F6              ; 15         h = a;
10335 25F6 67           	ld h, a
10336 25F7              ; 16         a = LoadViewY;
10337 25F7 3A 90 26     	ld a, (loadviewy)
10338 25FA              ; 17         l = a;
10339 25FA 6F           	ld l, a
10340 25FB              ; 18         a = LoadViewDX;
10341 25FB 3A 91 26     	ld a, (loadviewdx)
10342 25FE              ; 19         d = a;
10343 25FE 57           	ld d, a
10344 25FF              ; 20         a = LoadViewDY;
10345 25FF 3A 92 26     	ld a, (loadviewdy)
10346 2602              ; 21         e = a;
10347 2602 5F           	ld e, a
10348 2603              ; 22         a = LoadViewColor;
10349 2603 3A 93 26     	ld a, (loadviewcolor)
10350 2606              ; 23         c = a;
10351 2606 4F           	ld c, a
10352 2607              ; 24         a = vboxCLW;
10353 2607 3E 40        	ld a, 64
10354 2609              ; 25         a |= vboxFRM;
10355 2609 F6 20        	or 32
10356 260B              ; 26         a |= vboxSDW;
10357 260B F6 10        	or 16
10358 260D              ; 27         a |= vboxSAV;
10359 260D F6 08        	or 8
10360 260F              ; 28         a |= vboxUMP;
10361 260F F6 04        	or 4
10362 2611              ; 29         vboxOpenHLDECA();
10363 2611 CD 6D 39     	call vboxopenhldeca
10364 2614 D1           	pop de
10365 2615 E1           	pop hl
10366 2616 C1           	pop bc
10367 2617              ; 30     }
10368 2617              ; 31     LoadViewShowTitleHL();
10369 2617 C3 20 26     	jp loadviewshowtitlehl
10370 261A              ; 32 }
10371 261A              ; 33
10372 261A              ; 34 void LoadViewClose() {
10373 261A              loadviewclose:
10374 261A              ; 35     vboxClose();
10375 261A CD 86 3A     	call vboxclose
10376 261D              ; 36     CurrentViewReturn();
10377 261D C3 4F 10     	jp currentviewreturn
10378 2620              ; 37 }
10379 2620              ; 38
10380 2620              ; 39 void LoadViewShowTitleHL() {
10381 2620              loadviewshowtitlehl:
10382 2620              ; 40     push_pop(bc) {
10383 2620 C5           	push bc
10384 2621              ; 41         push_pop(hl) {
10385 2621 E5           	push hl
10386 2622              ; 42             b = 0;
10387 2622 06 00        	ld b, 0
10388 2624              ; 43             do {
10389 2624              __l_710:
10390 2624              ; 44                 a = *hl;
10391 2624 7E           	ld a, (hl)
10392 2625              ; 45                 c = a;
10393 2625 4F           	ld c, a
10394 2626              ; 46                 hl++;
10395 2626 23           	inc hl
10396 2627              ; 47                 b++;
10397 2627 04           	inc b
10398 2628              ; 48                 if ((a = LoadViewDX) < b) {
10399 2628 3A 91 26     	ld a, (loadviewdx)
10400 262B B8           	cp b
10401 262C D2 32 26     	jp nc, __l_713
10402 262F              ; 49                     a = 0;
10403 262F 3E 00        	ld a, 0
10404 2631              ; 50                     c = a;
10405 2631 4F           	ld c, a
10406 2632              __l_713:
10407 2632              __l_711:
10408 2632              ; 51                 }
10409 2632              ; 52             } while ((a = c) > 0);
10410 2632 79           	ld a, c
10411 2633 B7           	or a
10412 2634 C2 24 26     	jp nz, __l_710
10413 2637 E1           	pop hl
10414 2638              ; 53         }
10415 2638              ; 54         a = LoadViewDX;
10416 2638 3A 91 26     	ld a, (loadviewdx)
10417 263B              ; 55         a -= b;
10418 263B 90           	sub b
10419 263C              ; 56         a &= 0xFE;
10420 263C E6 FE        	and 254
10421 263E              ; 57         cyclic_rotate_right(a, 1);
10422 263E 0F           	rrca
10423 263F              ; 58         c = a;
10424 263F 4F           	ld c, a
10425 2640              ; 59         // X
10426 2640              ; 60         a = LoadViewX;
10427 2640 3A 8F 26     	ld a, (loadviewx)
10428 2643              ; 61         a += c;
10429 2643 81           	add c
10430 2644              ; 62         myCharPosX = a;
10431 2644 32 E3 0E     	ld (mycharposx), a
10432 2647              ; 63         // Y
10433 2647              ; 64         a = LoadViewY;
10434 2647 3A 90 26     	ld a, (loadviewy)
10435 264A              ; 65         a += 1;
10436 264A C6 01        	add 1
10437 264C              ; 66         myCharPosY = a;
10438 264C 32 E4 0E     	ld (mycharposy), a
10439 264F              ; 67         //
10440 264F              ; 68         printMyHLStr();
10441 264F CD ED 0C     	call printmyhlstr
10442 2652 C1           	pop bc
10443 2653 C9           	ret
10444 2654              ; 69     }
10445 2654              ; 70 }
10446 2654              ; 71
10447 2654              ; 72 uint8_t LoadViewShowProgressOld = 0xFF;
10448 2654              loadviewshowprogressold:
10449 2654 FF           	db 255
10450 2655              ; 73 void LoadViewShowProgressA() {
10451 2655              loadviewshowprogressa:
10452 2655              ; 74     push_pop(bc) {
10453 2655 C5           	push bc
10454 2656              ; 75         c = a; //Save
10455 2656 4F           	ld c, a
10456 2657              ; 76         if ((a = LoadViewShowProgressOld) != c) {
10457 2657 3A 54 26     	ld a, (loadviewshowprogressold)
10458 265A B9           	cp c
10459 265B CA 8D 26     	jp z, __l_715
10460 265E              ; 77             a = c;
10461 265E 79           	ld a, c
10462 265F              ; 78             LoadViewShowProgressOld = a;
10463 265F 32 54 26     	ld (loadviewshowprogressold), a
10464 2662              ; 79             // X
10465 2662              ; 80             a = LoadViewX;
10466 2662 3A 8F 26     	ld a, (loadviewx)
10467 2665              ; 81             a += 1;
10468 2665 C6 01        	add 1
10469 2667              ; 82             myCharPosX = a;
10470 2667 32 E3 0E     	ld (mycharposx), a
10471 266A              ; 83             // Y
10472 266A              ; 84             a = LoadViewY;
10473 266A 3A 90 26     	ld a, (loadviewy)
10474 266D              ; 85             a += 2;
10475 266D C6 02        	add 2
10476 266F              ; 86             myCharPosY = a;
10477 266F 32 E4 0E     	ld (mycharposy), a
10478 2672              ; 87             b = 0;
10479 2672 06 00        	ld b, 0
10480 2674              ; 88             do {
10481 2674              __l_717:
10482 2674              ; 89                 if ((a = b) < c) {
10483 2674 78           	ld a, b
10484 2675 B9           	cp c
10485 2676 D2 81 26     	jp nc, __l_720
10486 2679              ; 90                     printMyCharA(a = 0xDB);
10487 2679 3E DB        	ld a, 219
10488 267B CD 4E 0D     	call printmychara
10489 267E C3 86 26     	jp __l_721
10490 2681              __l_720:
10491 2681              ; 91                 } else {
10492 2681              ; 92                     printMyCharA(a = 0xB0); //0xB0 0xB1 0xB2
10493 2681 3E B0        	ld a, 176
10494 2683 CD 4E 0D     	call printmychara
10495 2686              __l_721:
10496 2686              ; 93                 }
10497 2686              ; 94                 b++;
10498 2686 04           	inc b
10499 2687              __l_718:
10500 2687              ; 95             } while ((a = b) < 40);
10501 2687 78           	ld a, b
10502 2688 FE 28        	cp 40
10503 268A DA 74 26     	jp c, __l_717
10504 268D              __l_715:
10505 268D C1           	pop bc
10506 268E C9           	ret
10507 268F              ; 96         }
10508 268F              ; 97     }
10509 268F              ; 98 }
10510 268F              ; 99
10511 268F              ; 100 uint8_t LoadViewX = 3;
10512 268F              loadviewx:
10513 268F 03           	db 3
10514 2690              ; 101 uint8_t LoadViewY = 14;
10515 2690              loadviewy:
10516 2690 0E           	db 14
10517 2691              ; 102 uint8_t LoadViewDX = 42;
10518 2691              loadviewdx:
10519 2691 2A           	db 42
10520 2692              ; 103 uint8_t LoadViewDY = 4;
10521 2692              loadviewdy:
10522 2692 04           	db 4
10523 2693              ; 104 uint8_t LoadViewColor = 0x70; // 0x1F;
10524 2693              loadviewcolor:
10525 2693 70           	db 112
10526 2694              ; 106 uint8_t LoadViewProgress = 0;
10527 2694              loadviewprogress:
10528 2694 00           	db 0
10529 2695              ; 108 uint8_t LoadViewLoadTitle[] = "Load...";
10530 2695              loadviewloadtitle:
10531 2695 4C           	db 76
10532 2696 6F           	db 111
10533 2697 61           	db 97
10534 2698 64           	db 100
10535 2699 2E           	db 46
10536 269A 2E           	db 46
10537 269B 2E           	db 46
10538 269C 00           	ds 1
10539 269D              ; 109 uint8_t LoadViewUploadTitle[] = "Upload...";
10540 269D              loadviewuploadtitle:
10541 269D 55           	db 85
10542 269E 70           	db 112
10543 269F 6C           	db 108
10544 26A0 6F           	db 111
10545 26A1 61           	db 97
10546 26A2 64           	db 100
10547 26A3 2E           	db 46
10548 26A4 2E           	db 46
10549 26A5 2E           	db 46
10550 26A6 00           	ds 1
10551 26A7              ; 11 void WiFiNetworksViewShow() {
10552 26A7              wifinetworksviewshow:
10553 26A7              ; 12     CurrentViewChangeAndPushIdA(a = WiFiNetworksViewId);
10554 26A7 3E 07        	ld a, 7
10555 26A9 CD 58 0F     	call currentviewchangeandpushida
10556 26AC              ; 13     push_pop(bc, hl, de) {
10557 26AC C5           	push bc
10558 26AD E5           	push hl
10559 26AE D5           	push de
10560 26AF              ; 14         a = WiFiNetworksViewX;
10561 26AF 3A C8 28     	ld a, (wifinetworksviewx)
10562 26B2              ; 15         h = a;
10563 26B2 67           	ld h, a
10564 26B3              ; 16         a = WiFiNetworksViewY;
10565 26B3 3A C9 28     	ld a, (wifinetworksviewy)
10566 26B6              ; 17         l = a;
10567 26B6 6F           	ld l, a
10568 26B7              ; 18         a = WiFiNetworksViewDX;
10569 26B7 3A CA 28     	ld a, (wifinetworksviewdx)
10570 26BA              ; 19         d = a;
10571 26BA 57           	ld d, a
10572 26BB              ; 20         a = WiFiNetworksViewDY;
10573 26BB 3A CB 28     	ld a, (wifinetworksviewdy)
10574 26BE              ; 21         e = a;
10575 26BE 5F           	ld e, a
10576 26BF              ; 22         a = WiFiNetworksViewColor;
10577 26BF 3A CC 28     	ld a, (wifinetworksviewcolor)
10578 26C2              ; 23         c = a;
10579 26C2 4F           	ld c, a
10580 26C3              ; 24         a = vboxCLW;
10581 26C3 3E 40        	ld a, 64
10582 26C5              ; 25         a |= vboxFRM;
10583 26C5 F6 20        	or 32
10584 26C7              ; 26         a |= vboxSDW;
10585 26C7 F6 10        	or 16
10586 26C9              ; 27         a |= vboxSAV;
10587 26C9 F6 08        	or 8
10588 26CB              ; 28         a |= vboxUMP;
10589 26CB F6 04        	or 4
10590 26CD              ; 29         vboxOpenHLDECA();
10591 26CD CD 6D 39     	call vboxopenhldeca
10592 26D0 D1           	pop de
10593 26D1 E1           	pop hl
10594 26D2 C1           	pop bc
10595 26D3              ; 30     }
10596 26D3              ; 31     WiFiNetworksViewShowTitle();
10597 26D3 CD 12 27     	call wifinetworksviewshowtitle
10598 26D6              ; 32     WiFiNetworksViewUpdateList();
10599 26D6              ; 33 }
10600 26D6              ; 34
10601 26D6              ; 35 void WiFiNetworksViewUpdateList() {
10602 26D6              wifinetworksviewupdatelist:
10603 26D6              ; 36     WiFiNetworksViewSelectLineA(a = 0);
10604 26D6 3E 00        	ld a, 0
10605 26D8 CD 93 28     	call wifinetworksviewselectlinea
10606 26DB              ; 37     #ifdef _IS_SIMULATOR
10607 26DB              ; 38
10608 26DB              ; 39     #else
10609 26DB              ; 40         WiFiNetworksViewClearData();
10610 26DB CD D8 27     	call wifinetworksviewcleardata
10611 26DE              ; 41         NetWiFiListUpdate();
10612 26DE CD 87 04     	call netwifilistupdate
10613 26E1              ; 42         NetWiFiGetList();
10614 26E1 CD 91 04     	call netwifigetlist
10615 26E4              ; 43         WiFiNetworksViewFixData();
10616 26E4 CD F4 26     	call wifinetworksviewfixdata
10617 26E7              ; 44     #endif
10618 26E7              ; 45     WiFiNetworksViewShowList();
10619 26E7 CD EB 27     	call wifinetworksviewshowlist
10620 26EA              ; 46     a = 0;
10621 26EA 3E 00        	ld a, 0
10622 26EC              ; 47     WiFiNetworksViewSelectPos = a;
10623 26EC 32 CE 28     	ld (wifinetworksviewselectpos), a
10624 26EF              ; 48     WiFiNetworksViewSelectLineA(a = 1);
10625 26EF 3E 01        	ld a, 1
10626 26F1 C3 93 28     	jp wifinetworksviewselectlinea
10627 26F4              ; 49 }
10628 26F4              ; 50
10629 26F4              ; 51 void WiFiNetworksViewFixData() {
10630 26F4              wifinetworksviewfixdata:
10631 26F4              ; 52     push_pop(hl, bc, de) {
10632 26F4 E5           	push hl
10633 26F5 C5           	push bc
10634 26F6 D5           	push de
10635 26F7              ; 53         hl = WiFiNetworksViewSSIDList;
10636 26F7 21 DF 28     	ld hl, wifinetworksviewssidlist
10637 26FA              ; 54         de = 16;
10638 26FA 11 10 00     	ld de, 16
10639 26FD              ; 55         b = 16;
10640 26FD 06 10        	ld b, 16
10641 26FF              ; 56         do {
10642 26FF              __l_722:
10643 26FF              ; 57             a = *hl;
10644 26FF 7E           	ld a, (hl)
10645 2700              ; 58             if (a == 0) {
10646 2700 B7           	or a
10647 2701 C2 07 27     	jp nz, __l_725
10648 2704              ; 59                 a = '-';
10649 2704 3E 2D        	ld a, 45
10650 2706              ; 60                 *hl = a;
10651 2706 77           	ld (hl), a
10652 2707              __l_725:
10653 2707              ; 61             }
10654 2707              ; 62             hl += de;
10655 2707 19           	add hl, de
10656 2708              ; 63             b--;
10657 2708 05           	dec b
10658 2709              __l_723:
10659 2709              ; 64         } while ((a = b) > 0);
10660 2709 78           	ld a, b
10661 270A B7           	or a
10662 270B C2 FF 26     	jp nz, __l_722
10663 270E D1           	pop de
10664 270F C1           	pop bc
10665 2710 E1           	pop hl
10666 2711 C9           	ret
10667 2712              ; 65     }
10668 2712              ; 66 }
10669 2712              ; 67
10670 2712              ; 68 void WiFiNetworksViewShowTitle() {
10671 2712              wifinetworksviewshowtitle:
10672 2712              ; 69     push_pop(hl, bc, de) {
10673 2712 E5           	push hl
10674 2713 C5           	push bc
10675 2714 D5           	push de
10676 2715              ; 70         // Title
10677 2715              ; 71         a = WiFiNetworksViewX;
10678 2715 3A C8 28     	ld a, (wifinetworksviewx)
10679 2718              ; 72         a += 3;
10680 2718 C6 03        	add 3
10681 271A              ; 73         myCharPosX = a;
10682 271A 32 E3 0E     	ld (mycharposx), a
10683 271D              ; 74         a = WiFiNetworksViewY;
10684 271D 3A C9 28     	ld a, (wifinetworksviewy)
10685 2720              ; 75         a += 1; //2;
10686 2720 C6 01        	add 1
10687 2722              ; 76         myCharPosY = a;
10688 2722 32 E4 0E     	ld (mycharposy), a
10689 2725              ; 77         printMyHLStr(hl = WiFiNetworksViewTitle);
10690 2725 21 CF 28     	ld hl, wifinetworksviewtitle
10691 2728 CD ED 0C     	call printmyhlstr
10692 272B              ; 78         // LINE!!!
10693 272B              ; 79         a = WiFiNetworksViewX;
10694 272B 3A C8 28     	ld a, (wifinetworksviewx)
10695 272E              ; 80         a += 1;
10696 272E C6 01        	add 1
10697 2730              ; 81         myCharPosX = a;
10698 2730 32 E3 0E     	ld (mycharposx), a
10699 2733              ; 82         a = WiFiNetworksViewY;
10700 2733 3A C9 28     	ld a, (wifinetworksviewy)
10701 2736              ; 83         a += 2;
10702 2736 C6 02        	add 2
10703 2738              ; 84         myCharPosY = a;
10704 2738 32 E4 0E     	ld (mycharposy), a
10705 273B              ; 85         a = WiFiNetworksViewDX;
10706 273B 3A CA 28     	ld a, (wifinetworksviewdx)
10707 273E              ; 86         a -= 2;
10708 273E D6 02        	sub 2
10709 2740              ; 87         b = a;
10710 2740 47           	ld b, a
10711 2741              ; 88         do {
10712 2741              __l_727:
10713 2741              ; 89             printMyCharA(a = 0x5F);
10714 2741 3E 5F        	ld a, 95
10715 2743 CD 4E 0D     	call printmychara
10716 2746              ; 90             b--;
10717 2746 05           	dec b
10718 2747              __l_728:
10719 2747              ; 91         } while ((a = b) > 0);
10720 2747 78           	ld a, b
10721 2748 B7           	or a
10722 2749 C2 41 27     	jp nz, __l_727
10723 274C D1           	pop de
10724 274D C1           	pop bc
10725 274E E1           	pop hl
10726 274F C9           	ret
10727 2750              ; 92     }
10728 2750              ; 93 }
10729 2750              ; 94
10730 2750              ; 95 void WiFiNetworksViewClose() {
10731 2750              wifinetworksviewclose:
10732 2750              ; 96     vboxClose();
10733 2750 CD 86 3A     	call vboxclose
10734 2753              ; 97     CurrentViewReturn();
10735 2753 C3 4F 10     	jp currentviewreturn
10736 2756              ; 98 }
10737 2756              ; 99
10738 2756              ; 100 void WiFiNetworksViewKeyA() {
10739 2756              wifinetworksviewkeya:
10740 2756              ; 101     push_pop(hl) {
10741 2756 E5           	push hl
10742 2757              ; 102         l = a;
10743 2757 6F           	ld l, a
10744 2758              ; 103         if ((a = c) == 0) {
10745 2758 79           	ld a, c
10746 2759 B7           	or a
10747 275A C2 9F 27     	jp nz, __l_730
10748 275D              ; 104             if ((a = CurrentViewId) == WiFiNetworksViewId) {
10749 275D 3A 8F 10     	ld a, (currentviewid)
10750 2760 FE 07        	cp 7
10751 2762 C2 9F 27     	jp nz, __l_732
10752 2765              ; 105                 if ((a = l) == 0x1B) { //ESC выход
10753 2765 7D           	ld a, l
10754 2766 FE 1B        	cp 27
10755 2768 C2 71 27     	jp nz, __l_734
10756 276B              ; 106                     WiFiNetworksViewClose();
10757 276B CD 50 27     	call wifinetworksviewclose
10758 276E C3 9F 27     	jp __l_735
10759 2771              __l_734:
10760 2771              ; 107                 } else if ((a = l) == 0x0D) { // Выбор
10761 2771 7D           	ld a, l
10762 2772 FE 0D        	cp 13
10763 2774 C2 86 27     	jp nz, __l_736
10764 2777              ; 108                     WiFiNetworksViewClose();
10765 2777 CD 50 27     	call wifinetworksviewclose
10766 277A              ; 109                     //--
10767 277A              ; 110                     #ifdef _IS_SIMULATOR
10768 277A              ; 111                         WiFiNetworksViewCopySSIDForSimulator();
10769 277A              ; 112                         WifiStateViewShowValue();
10770 277A              ; 113                     #else
10771 277A              ; 114                         ThreadsNetSsidUpdateA(a = WiFiNetworksViewSelectPos);
10772 277A 3A CE 28     	ld a, (wifinetworksviewselectpos)
10773 277D CD E9 14     	call threadsnetssidupdatea
10774 2780              ; 115                     #endif
10775 2780              ; 116                     WiFiSettingsViewShowValue();
10776 2780 CD D0 0A     	call wifisettingsviewshowvalue
10777 2783 C3 9F 27     	jp __l_737
10778 2786              __l_736:
10779 2786              ; 117                     //--
10780 2786              ; 118                 } else if ((a = l) == 0x1A) { //down
10781 2786 7D           	ld a, l
10782 2787 FE 1A        	cp 26
10783 2789 C2 94 27     	jp nz, __l_738
10784 278C              ; 119                     WiFiNetworksViewPosUpdateA(a = 0x01);
10785 278C 3E 01        	ld a, 1
10786 278E CD 51 28     	call wifinetworksviewposupdatea
10787 2791 C3 9F 27     	jp __l_739
10788 2794              __l_738:
10789 2794              ; 120                 } else if ((a = l) == 0x19) { //up
10790 2794 7D           	ld a, l
10791 2795 FE 19        	cp 25
10792 2797 C2 9F 27     	jp nz, __l_740
10793 279A              ; 121                     WiFiNetworksViewPosUpdateA(a = 0xFF);
10794 279A 3E FF        	ld a, 255
10795 279C CD 51 28     	call wifinetworksviewposupdatea
10796 279F              __l_740:
10797 279F              __l_739:
10798 279F              __l_737:
10799 279F              __l_735:
10800 279F              __l_732:
10801 279F              __l_730:
10802 279F E1           	pop hl
10803 27A0 C9           	ret
10804 27A1              ; 122                 }
10805 27A1              ; 123             }
10806 27A1              ; 124         }
10807 27A1              ; 125     }
10808 27A1              ; 126 }
10809 27A1              ; 127
10810 27A1              ; 128 void WiFiNetworksViewCopySSIDForSimulator() {
10811 27A1              wifinetworksviewcopyssidforsimul:
10812 27A1              ; 129     push_pop(hl, bc, de) {
10813 27A1 E5           	push hl
10814 27A2 C5           	push bc
10815 27A3 D5           	push de
10816 27A4              ; 130         hl = WiFiNetworksViewSSIDList;
10817 27A4 21 DF 28     	ld hl, wifinetworksviewssidlist
10818 27A7              ; 131         a = WiFiNetworksViewSelectPos;
10819 27A7 3A CE 28     	ld a, (wifinetworksviewselectpos)
10820 27AA              ; 132         a &= 0x0F;
10821 27AA E6 0F        	and 15
10822 27AC              ; 133         cyclic_rotate_left(a, 4);
10823 27AC 07           	rlca
10824 27AD 07           	rlca
10825 27AE 07           	rlca
10826 27AF 07           	rlca
10827 27B0              ; 134         e = a;
10828 27B0 5F           	ld e, a
10829 27B1              ; 135         d = 0;
10830 27B1 16 00        	ld d, 0
10831 27B3              ; 136         hl += de;
10832 27B3 19           	add hl, de
10833 27B4              ; 137         de = WiFiSettingsViewSsidValue;
10834 27B4 11 5C 0C     	ld de, wifisettingsviewssidvalue
10835 27B7              ; 138         //-- Copy
10836 27B7              ; 139         b = 16;
10837 27B7 06 10        	ld b, 16
10838 27B9              ; 140         c = 0; // is 0 exist
10839 27B9 0E 00        	ld c, 0
10840 27BB              ; 141         do {
10841 27BB              __l_742:
10842 27BB              ; 142             a = *hl;
10843 27BB 7E           	ld a, (hl)
10844 27BC              ; 143             *de = a;
10845 27BC 12           	ld (de), a
10846 27BD              ; 144             if (a == 0) {
10847 27BD B7           	or a
10848 27BE C2 C3 27     	jp nz, __l_745
10849 27C1              ; 145                 c = 1;
10850 27C1 0E 01        	ld c, 1
10851 27C3              __l_745:
10852 27C3              ; 146             }
10853 27C3              ; 147             hl++;
10854 27C3 23           	inc hl
10855 27C4              ; 148             de++;
10856 27C4 13           	inc de
10857 27C5              ; 149             b--;
10858 27C5 05           	dec b
10859 27C6              __l_743:
10860 27C6              ; 150         } while ((a = b) > 0);
10861 27C6 78           	ld a, b
10862 27C7 B7           	or a
10863 27C8 C2 BB 27     	jp nz, __l_742
10864 27CB              ; 151         //-- if stop byte (0)
10865 27CB              ; 152         if ((a = c) == 0) {
10866 27CB 79           	ld a, c
10867 27CC B7           	or a
10868 27CD C2 D4 27     	jp nz, __l_747
10869 27D0              ; 153             de--;
10870 27D0 1B           	dec de
10871 27D1              ; 154             a = 0;
10872 27D1 3E 00        	ld a, 0
10873 27D3              ; 155             *de = a;
10874 27D3 12           	ld (de), a
10875 27D4              __l_747:
10876 27D4 D1           	pop de
10877 27D5 C1           	pop bc
10878 27D6 E1           	pop hl
10879 27D7 C9           	ret
10880 27D8              ; 156         }
10881 27D8              ; 157     }
10882 27D8              ; 158 }
10883 27D8              ; 159
10884 27D8              ; 160 void WiFiNetworksViewClearData() {
10885 27D8              wifinetworksviewcleardata:
10886 27D8              ; 161     push_pop(hl, bc) {
10887 27D8 E5           	push hl
10888 27D9 C5           	push bc
10889 27DA              ; 162         hl = WiFiNetworksViewSSIDList;
10890 27DA 21 DF 28     	ld hl, wifinetworksviewssidlist
10891 27DD              ; 163         b = 0xFF;
10892 27DD 06 FF        	ld b, 255
10893 27DF              ; 164         do {
10894 27DF              __l_749:
10895 27DF              ; 165             *hl = 0;
10896 27DF 36 00        	ld (hl), 0
10897 27E1              ; 166             hl++;
10898 27E1 23           	inc hl
10899 27E2              ; 167             b--;
10900 27E2 05           	dec b
10901 27E3              __l_750:
10902 27E3              ; 168         } while ((a = b) > 0);
10903 27E3 78           	ld a, b
10904 27E4 B7           	or a
10905 27E5 C2 DF 27     	jp nz, __l_749
10906 27E8 C1           	pop bc
10907 27E9 E1           	pop hl
10908 27EA C9           	ret
10909 27EB              ; 169     }
10910 27EB              ; 170 }
10911 27EB              ; 171
10912 27EB              ; 172 void WiFiNetworksViewShowList() {
10913 27EB              wifinetworksviewshowlist:
10914 27EB              ; 173     push_pop(hl, bc, de) {
10915 27EB E5           	push hl
10916 27EC C5           	push bc
10917 27ED D5           	push de
10918 27EE              ; 174         hl = WiFiNetworksViewSSIDList;
10919 27EE 21 DF 28     	ld hl, wifinetworksviewssidlist
10920 27F1              ; 175         c = 0;
10921 27F1 0E 00        	ld c, 0
10922 27F3              ; 176         //
10923 27F3              ; 177         a = WiFiNetworksViewX;
10924 27F3 3A C8 28     	ld a, (wifinetworksviewx)
10925 27F6              ; 178         a += 2;
10926 27F6 C6 02        	add 2
10927 27F8              ; 179         d = a; // X
10928 27F8 57           	ld d, a
10929 27F9              ; 180         a = WiFiNetworksViewY;
10930 27F9 3A C9 28     	ld a, (wifinetworksviewy)
10931 27FC              ; 181         a += 5;
10932 27FC C6 05        	add 5
10933 27FE              ; 182         e = a; // Y
10934 27FE 5F           	ld e, a
10935 27FF              ; 183         //
10936 27FF              ; 184         do {
10937 27FF              __l_752:
10938 27FF              ; 185             //--
10939 27FF              ; 186             a = e;
10940 27FF 7B           	ld a, e
10941 2800              ; 187             a += c;
10942 2800 81           	add c
10943 2801              ; 188             myCharPosY = a;
10944 2801 32 E4 0E     	ld (mycharposy), a
10945 2804              ; 189             a = d;
10946 2804 7A           	ld a, d
10947 2805              ; 190             myCharPosX = a;
10948 2805 32 E3 0E     	ld (mycharposx), a
10949 2808              ; 191             //--
10950 2808              ; 192             b = 16;
10951 2808 06 10        	ld b, 16
10952 280A              ; 193             do {
10953 280A              __l_755:
10954 280A              ; 194                 printMyCharA(a = *hl);
10955 280A 7E           	ld a, (hl)
10956 280B CD 4E 0D     	call printmychara
10957 280E              ; 195                 hl++;
10958 280E 23           	inc hl
10959 280F              ; 196                 b--;
10960 280F 05           	dec b
10961 2810              __l_756:
10962 2810              ; 197             } while ((a = b) > 0);
10963 2810 78           	ld a, b
10964 2811 B7           	or a
10965 2812 C2 0A 28     	jp nz, __l_755
10966 2815              ; 198             c++;
10967 2815 0C           	inc c
10968 2816              __l_753:
10969 2816              ; 199         } while ((a = WiFiNetworksViewSSIDCount) >= c);
10970 2816 3A DE 28     	ld a, (wifinetworksviewssidcount)
10971 2819 B9           	cp c
10972 281A D2 FF 27     	jp nc, __l_752
10973 281D              ; 200         // Crean
10974 281D              ; 201         a = WiFiNetworksViewSSIDCount;
10975 281D 3A DE 28     	ld a, (wifinetworksviewssidcount)
10976 2820              ; 202         c = a;
10977 2820 4F           	ld c, a
10978 2821              ; 203         a = 16; // Максимальное число строк
10979 2821 3E 10        	ld a, 16
10980 2823              ; 204         a -= c;
10981 2823 91           	sub c
10982 2824              ; 205         if (a > 0) { // До добавляем пустые строки
10983 2824 B7           	or a
10984 2825 CA 4D 28     	jp z, __l_758
10985 2828              ; 206             b = a;
10986 2828 47           	ld b, a
10987 2829              ; 207             //--
10988 2829              ; 208             a = WiFiNetworksViewSSIDCount;
10989 2829 3A DE 28     	ld a, (wifinetworksviewssidcount)
10990 282C              ; 209             a += e;
10991 282C 83           	add e
10992 282D              ; 210             e = a;
10993 282D 5F           	ld e, a
10994 282E              ; 211             //--
10995 282E              ; 212             h = 0;
10996 282E 26 00        	ld h, 0
10997 2830              ; 213             do {
10998 2830              __l_760:
10999 2830              ; 214                 //--
11000 2830              ; 215                 a = e;
11001 2830 7B           	ld a, e
11002 2831              ; 216                 a += h;
11003 2831 84           	add h
11004 2832              ; 217                 myCharPosY = a;
11005 2832 32 E4 0E     	ld (mycharposy), a
11006 2835              ; 218                 a = d;
11007 2835 7A           	ld a, d
11008 2836              ; 219                 myCharPosX = a;
11009 2836 32 E3 0E     	ld (mycharposx), a
11010 2839              ; 220                 //--
11011 2839              ; 221                 c = 16;
11012 2839 0E 10        	ld c, 16
11013 283B              ; 222                 do {
11014 283B              __l_763:
11015 283B              ; 223                     printMyCharA(a = ' ');
11016 283B 3E 20        	ld a, 32
11017 283D CD 4E 0D     	call printmychara
11018 2840              ; 224                     c--;
11019 2840 0D           	dec c
11020 2841              __l_764:
11021 2841              ; 225                 } while ((a = c) > 0);
11022 2841 79           	ld a, c
11023 2842 B7           	or a
11024 2843 C2 3B 28     	jp nz, __l_763
11025 2846              ; 226                 b--;
11026 2846 05           	dec b
11027 2847              ; 227                 h++;
11028 2847 24           	inc h
11029 2848              __l_761:
11030 2848              ; 228             } while ((a = b) > 0);
11031 2848 78           	ld a, b
11032 2849 B7           	or a
11033 284A C2 30 28     	jp nz, __l_760
11034 284D              __l_758:
11035 284D D1           	pop de
11036 284E C1           	pop bc
11037 284F E1           	pop hl
11038 2850 C9           	ret
11039 2851              ; 229         }
11040 2851              ; 230     }
11041 2851              ; 231 }
11042 2851              ; 232
11043 2851              ; 233 /// Обновление позиции
11044 2851              ; 234 /// вх[A]
11045 2851              ; 235 /// 0 - без изменений
11046 2851              ; 236 /// 1 - вверх
11047 2851              ; 237 /// 0xFF - вниз
11048 2851              ; 238 void WiFiNetworksViewPosUpdateA() {
11049 2851              wifinetworksviewposupdatea:
11050 2851              ; 239     push_pop(bc) {
11051 2851 C5           	push bc
11052 2852              ; 240         b = a;
11053 2852 47           	ld b, a
11054 2853              ; 241         if (a == 0) {
11055 2853 B7           	or a
11056 2854 C2 5F 28     	jp nz, __l_766
11057 2857              ; 242             WiFiNetworksViewSelectLineA(a = 1);
11058 2857 3E 01        	ld a, 1
11059 2859 CD 93 28     	call wifinetworksviewselectlinea
11060 285C C3 91 28     	jp __l_767
11061 285F              __l_766:
11062 285F              ; 243         } else {
11063 285F              ; 244             a = WiFiNetworksViewSSIDCount;
11064 285F 3A DE 28     	ld a, (wifinetworksviewssidcount)
11065 2862              ; 245             c = a;
11066 2862 4F           	ld c, a
11067 2863              ; 246             WiFiNetworksViewSelectLineA(a = 0);
11068 2863 3E 00        	ld a, 0
11069 2865 CD 93 28     	call wifinetworksviewselectlinea
11070 2868              ; 247             if ((a = c) == 0) { // нет ни одной записи
11071 2868 79           	ld a, c
11072 2869 B7           	or a
11073 286A C2 75 28     	jp nz, __l_768
11074 286D              ; 248                 a = 0;
11075 286D 3E 00        	ld a, 0
11076 286F              ; 249                 WiFiNetworksViewSelectPos = a;
11077 286F 32 CE 28     	ld (wifinetworksviewselectpos), a
11078 2872 C3 8C 28     	jp __l_769
11079 2875              __l_768:
11080 2875              ; 250             } else { // если есть хоть одна запись
11081 2875              ; 251                 a = WiFiNetworksViewSelectPos;
11082 2875 3A CE 28     	ld a, (wifinetworksviewselectpos)
11083 2878              ; 252                 a += b;
11084 2878 80           	add b
11085 2879              ; 253                 //-- FIX
11086 2879              ; 254                 if (a == 0xFF) {
11087 2879 FE FF        	cp 255
11088 287B C2 83 28     	jp nz, __l_770
11089 287E              ; 255                     a = c;
11090 287E 79           	ld a, c
11091 287F              ; 256                     a--;
11092 287F 3D           	dec a
11093 2880 C3 89 28     	jp __l_771
11094 2883              __l_770:
11095 2883              ; 257                 } else if (a == c) {
11096 2883 B9           	cp c
11097 2884 C2 89 28     	jp nz, __l_772
11098 2887              ; 258                     a = 0;
11099 2887 3E 00        	ld a, 0
11100 2889              __l_772:
11101 2889              __l_771:
11102 2889              ; 259                 }
11103 2889              ; 260                 //--
11104 2889              ; 261                 WiFiNetworksViewSelectPos = a;
11105 2889 32 CE 28     	ld (wifinetworksviewselectpos), a
11106 288C              __l_769:
11107 288C              ; 262             }
11108 288C              ; 263             WiFiNetworksViewSelectLineA(a = 1);
11109 288C 3E 01        	ld a, 1
11110 288E CD 93 28     	call wifinetworksviewselectlinea
11111 2891              __l_767:
11112 2891 C1           	pop bc
11113 2892 C9           	ret
11114 2893              ; 264         }
11115 2893              ; 265     }
11116 2893              ; 266 }
11117 2893              ; 267
11118 2893              ; 268 /// Рисование линии прямым или инверсным цветом
11119 2893              ; 269 /// 0 - прямой
11120 2893              ; 270 /// 1 - инверсный
11121 2893              ; 271 void WiFiNetworksViewSelectLineA() {
11122 2893              wifinetworksviewselectlinea:
11123 2893              ; 272     push_pop(bc, hl, de) {
11124 2893 C5           	push bc
11125 2894 E5           	push hl
11126 2895 D5           	push de
11127 2896              ; 273         c = a;
11128 2896 4F           	ld c, a
11129 2897              ; 274         //--
11130 2897              ; 275         a = WiFiNetworksViewSelectPos;
11131 2897 3A CE 28     	ld a, (wifinetworksviewselectpos)
11132 289A              ; 276         b = a;
11133 289A 47           	ld b, a
11134 289B              ; 277         //--
11135 289B              ; 278         a = WiFiNetworksViewX;
11136 289B 3A C8 28     	ld a, (wifinetworksviewx)
11137 289E              ; 279         a += 1;
11138 289E C6 01        	add 1
11139 28A0              ; 280         h = a; // X
11140 28A0 67           	ld h, a
11141 28A1              ; 281         a = WiFiNetworksViewY;
11142 28A1 3A C9 28     	ld a, (wifinetworksviewy)
11143 28A4              ; 282         a += 5;
11144 28A4 C6 05        	add 5
11145 28A6              ; 283         a += b;
11146 28A6 80           	add b
11147 28A7              ; 284         l = a; // Y
11148 28A7 6F           	ld l, a
11149 28A8              ; 285         //--
11150 28A8              ; 286         a = WiFiNetworksViewDX;
11151 28A8 3A CA 28     	ld a, (wifinetworksviewdx)
11152 28AB              ; 287         a -= 2;
11153 28AB D6 02        	sub 2
11154 28AD              ; 288         d = a;
11155 28AD 57           	ld d, a
11156 28AE              ; 289         e = 1;
11157 28AE 1E 01        	ld e, 1
11158 28B0              ; 290         //--
11159 28B0              ; 291         if ((a = c) == 0) {
11160 28B0 79           	ld a, c
11161 28B1 B7           	or a
11162 28B2 C2 BB 28     	jp nz, __l_774
11163 28B5              ; 292             a = WiFiNetworksViewColor;
11164 28B5 3A CC 28     	ld a, (wifinetworksviewcolor)
11165 28B8 C3 BE 28     	jp __l_775
11166 28BB              __l_774:
11167 28BB              ; 293         } else {
11168 28BB              ; 294             a = WiFiNetworksViewInvColor;
11169 28BB 3A CD 28     	ld a, (wifinetworksviewinvcolor)
11170 28BE              __l_775:
11171 28BE              ; 295         }
11172 28BE              ; 296         c = a;
11173 28BE 4F           	ld c, a
11174 28BF              ; 297         //--
11175 28BF              ; 298         a = vboxUMP;
11176 28BF 3E 04        	ld a, 4
11177 28C1              ; 299         vboxOpenHLDECA();
11178 28C1 CD 6D 39     	call vboxopenhldeca
11179 28C4 D1           	pop de
11180 28C5 E1           	pop hl
11181 28C6 C1           	pop bc
11182 28C7 C9           	ret
11183 28C8              ; 300     }
11184 28C8              ; 301 }
11185 28C8              ; 302
11186 28C8              ; 303 uint8_t WiFiNetworksViewX = 14; //21;
11187 28C8              wifinetworksviewx:
11188 28C8 0E           	db 14
11189 28C9              ; 304 uint8_t WiFiNetworksViewY = 3;
11190 28C9              wifinetworksviewy:
11191 28C9 03           	db 3
11192 28CA              ; 305 uint8_t WiFiNetworksViewDX = 20;
11193 28CA              wifinetworksviewdx:
11194 28CA 14           	db 20
11195 28CB              ; 306 uint8_t WiFiNetworksViewDY = 23;
11196 28CB              wifinetworksviewdy:
11197 28CB 17           	db 23
11198 28CC              ; 307 uint8_t WiFiNetworksViewColor = 0x70;
11199 28CC              wifinetworksviewcolor:
11200 28CC 70           	db 112
11201 28CD              ; 308 uint8_t WiFiNetworksViewInvColor = 0x07;
11202 28CD              wifinetworksviewinvcolor:
11203 28CD 07           	db 7
11204 28CE              ; 310 uint8_t WiFiNetworksViewSelectPos = 0;
11205 28CE              wifinetworksviewselectpos:
11206 28CE 00           	db 0
11207 28CF              ; 312 uint8_t WiFiNetworksViewTitle[] = "Wi-Fi Networks";
11208 28CF              wifinetworksviewtitle:
11209 28CF 57           	db 87
11210 28D0 69           	db 105
11211 28D1 2D           	db 45
11212 28D2 46           	db 70
11213 28D3 69           	db 105
11214 28D4 20           	db 32
11215 28D5 4E           	db 78
11216 28D6 65           	db 101
11217 28D7 74           	db 116
11218 28D8 77           	db 119
11219 28D9 6F           	db 111
11220 28DA 72           	db 114
11221 28DB 6B           	db 107
11222 28DC 73           	db 115
11223 28DD 00           	ds 1
11224 28DE              ; 335 uint8_t WiFiNetworksViewSSIDCount = 0;
11225 28DE              wifinetworksviewssidcount:
11226 28DE 00           	db 0
11227 28DF              ; 336 uint8_t WiFiNetworksViewSSIDList[16*16] = {
11228 28DF              wifinetworksviewssidlist:
11229 28DF 00           	db 0
11230 28E0 00           	db 0
11231 28E1 00           	db 0
11232 28E2 00           	db 0
11233 28E3 00           	db 0
11234 28E4 00           	db 0
11235 28E5 00           	db 0
11236 28E6 00           	db 0
11237 28E7 00           	db 0
11238 28E8 00           	db 0
11239 28E9 00           	db 0
11240 28EA 00           	db 0
11241 28EB 00           	db 0
11242 28EC 00           	db 0
11243 28ED 00           	db 0
11244 28EE 00           	db 0
11245 28EF 00           	db 0
11246 28F0 00           	db 0
11247 28F1 00           	db 0
11248 28F2 00           	db 0
11249 28F3 00           	db 0
11250 28F4 00           	db 0
11251 28F5 00           	db 0
11252 28F6 00           	db 0
11253 28F7 00           	db 0
11254 28F8 00           	db 0
11255 28F9 00           	db 0
11256 28FA 00           	db 0
11257 28FB 00           	db 0
11258 28FC 00           	db 0
11259 28FD 00           	db 0
11260 28FE 00           	db 0
11261 28FF 00           	db 0
11262 2900 00           	db 0
11263 2901 00           	db 0
11264 2902 00           	db 0
11265 2903 00           	db 0
11266 2904 00           	db 0
11267 2905 00           	db 0
11268 2906 00           	db 0
11269 2907 00           	db 0
11270 2908 00           	db 0
11271 2909 00           	db 0
11272 290A 00           	db 0
11273 290B 00           	db 0
11274 290C 00           	db 0
11275 290D 00           	db 0
11276 290E 00           	db 0
11277 290F 00           	db 0
11278 2910 00           	db 0
11279 2911 00           	db 0
11280 2912 00           	db 0
11281 2913 00           	db 0
11282 2914 00           	db 0
11283 2915 00           	db 0
11284 2916 00           	db 0
11285 2917 00           	db 0
11286 2918 00           	db 0
11287 2919 00           	db 0
11288 291A 00           	db 0
11289 291B 00           	db 0
11290 291C 00           	db 0
11291 291D 00           	db 0
11292 291E 00           	db 0
11293 291F 00           	db 0
11294 2920 00           	db 0
11295 2921 00           	db 0
11296 2922 00           	db 0
11297 2923 00           	db 0
11298 2924 00           	db 0
11299 2925 00           	db 0
11300 2926 00           	db 0
11301 2927 00           	db 0
11302 2928 00           	db 0
11303 2929 00           	db 0
11304 292A 00           	db 0
11305 292B 00           	db 0
11306 292C 00           	db 0
11307 292D 00           	db 0
11308 292E 00           	db 0
11309 292F 00           	db 0
11310 2930 00           	db 0
11311 2931 00           	db 0
11312 2932 00           	db 0
11313 2933 00           	db 0
11314 2934 00           	db 0
11315 2935 00           	db 0
11316 2936 00           	db 0
11317 2937 00           	db 0
11318 2938 00           	db 0
11319 2939 00           	db 0
11320 293A 00           	db 0
11321 293B 00           	db 0
11322 293C 00           	db 0
11323 293D 00           	db 0
11324 293E 00           	db 0
11325 293F 00           	db 0
11326 2940 00           	db 0
11327 2941 00           	db 0
11328 2942 00           	db 0
11329 2943 00           	db 0
11330 2944 00           	db 0
11331 2945 00           	db 0
11332 2946 00           	db 0
11333 2947 00           	db 0
11334 2948 00           	db 0
11335 2949 00           	db 0
11336 294A 00           	db 0
11337 294B 00           	db 0
11338 294C 00           	db 0
11339 294D 00           	db 0
11340 294E 00           	db 0
11341 294F 00           	db 0
11342 2950 00           	db 0
11343 2951 00           	db 0
11344 2952 00           	db 0
11345 2953 00           	db 0
11346 2954 00           	db 0
11347 2955 00           	db 0
11348 2956 00           	db 0
11349 2957 00           	db 0
11350 2958 00           	db 0
11351 2959 00           	db 0
11352 295A 00           	db 0
11353 295B 00           	db 0
11354 295C 00           	db 0
11355 295D 00           	db 0
11356 295E 00           	db 0
11357 295F 00           	db 0
11358 2960 00           	db 0
11359 2961 00           	db 0
11360 2962 00           	db 0
11361 2963 00           	db 0
11362 2964 00           	db 0
11363 2965 00           	db 0
11364 2966 00           	db 0
11365 2967 00           	db 0
11366 2968 00           	db 0
11367 2969 00           	db 0
11368 296A 00           	db 0
11369 296B 00           	db 0
11370 296C 00           	db 0
11371 296D 00           	db 0
11372 296E 00           	db 0
11373 296F 00           	db 0
11374 2970 00           	db 0
11375 2971 00           	db 0
11376 2972 00           	db 0
11377 2973 00           	db 0
11378 2974 00           	db 0
11379 2975 00           	db 0
11380 2976 00           	db 0
11381 2977 00           	db 0
11382 2978 00           	db 0
11383 2979 00           	db 0
11384 297A 00           	db 0
11385 297B 00           	db 0
11386 297C 00           	db 0
11387 297D 00           	db 0
11388 297E 00           	db 0
11389 297F 00           	db 0
11390 2980 00           	db 0
11391 2981 00           	db 0
11392 2982 00           	db 0
11393 2983 00           	db 0
11394 2984 00           	db 0
11395 2985 00           	db 0
11396 2986 00           	db 0
11397 2987 00           	db 0
11398 2988 00           	db 0
11399 2989 00           	db 0
11400 298A 00           	db 0
11401 298B 00           	db 0
11402 298C 00           	db 0
11403 298D 00           	db 0
11404 298E 00           	db 0
11405 298F 00           	db 0
11406 2990 00           	db 0
11407 2991 00           	db 0
11408 2992 00           	db 0
11409 2993 00           	db 0
11410 2994 00           	db 0
11411 2995 00           	db 0
11412 2996 00           	db 0
11413 2997 00           	db 0
11414 2998 00           	db 0
11415 2999 00           	db 0
11416 299A 00           	db 0
11417 299B 00           	db 0
11418 299C 00           	db 0
11419 299D 00           	db 0
11420 299E 00           	db 0
11421 299F 00           	db 0
11422 29A0 00           	db 0
11423 29A1 00           	db 0
11424 29A2 00           	db 0
11425 29A3 00           	db 0
11426 29A4 00           	db 0
11427 29A5 00           	db 0
11428 29A6 00           	db 0
11429 29A7 00           	db 0
11430 29A8 00           	db 0
11431 29A9 00           	db 0
11432 29AA 00           	db 0
11433 29AB 00           	db 0
11434 29AC 00           	db 0
11435 29AD 00           	db 0
11436 29AE 00           	db 0
11437 29AF 00           	db 0
11438 29B0 00           	db 0
11439 29B1 00           	db 0
11440 29B2 00           	db 0
11441 29B3 00           	db 0
11442 29B4 00           	db 0
11443 29B5 00           	db 0
11444 29B6 00           	db 0
11445 29B7 00           	db 0
11446 29B8 00           	db 0
11447 29B9 00           	db 0
11448 29BA 00           	db 0
11449 29BB 00           	db 0
11450 29BC 00           	db 0
11451 29BD 00           	db 0
11452 29BE 00           	db 0
11453 29BF 00           	db 0
11454 29C0 00           	db 0
11455 29C1 00           	db 0
11456 29C2 00           	db 0
11457 29C3 00           	db 0
11458 29C4 00           	db 0
11459 29C5 00           	db 0
11460 29C6 00           	db 0
11461 29C7 00           	db 0
11462 29C8 00           	db 0
11463 29C9 00           	db 0
11464 29CA 00           	db 0
11465 29CB 00           	db 0
11466 29CC 00           	db 0
11467 29CD 00           	db 0
11468 29CE 00           	db 0
11469 29CF 00           	db 0
11470 29D0 00           	db 0
11471 29D1 00           	db 0
11472 29D2 00           	db 0
11473 29D3 00           	db 0
11474 29D4 00           	db 0
11475 29D5 00           	db 0
11476 29D6 00           	db 0
11477 29D7 00           	db 0
11478 29D8 00           	db 0
11479 29D9 00           	db 0
11480 29DA 00           	db 0
11481 29DB 00           	db 0
11482 29DC 00           	db 0
11483 29DD 00           	db 0
11484 29DE 00           	db 0
11485 29DF              ; 11 void DebugShowIn00HexA() {
11486 29DF              debugshowin00hexa:
11487 29DF              ; 12     push_pop(bc, de) {
11488 29DF C5           	push bc
11489 29E0 D5           	push de
11490 29E1              ; 13         b = a;
11491 29E1 47           	ld b, a
11492 29E2              ; 14         a = 0;
11493 29E2 3E 00        	ld a, 0
11494 29E4              ; 15         myCharPosX = a;
11495 29E4 32 E3 0E     	ld (mycharposx), a
11496 29E7              ; 16         a = 0;
11497 29E7 3E 00        	ld a, 0
11498 29E9              ; 17         myCharPosY = a;
11499 29E9 32 E4 0E     	ld (mycharposy), a
11500 29EC              ; 18         printMyHexA(a = b);
11501 29EC 78           	ld a, b
11502 29ED CD 9E 0C     	call printmyhexa
11503 29F0 D1           	pop de
11504 29F1 C1           	pop bc
11505 29F2 C9           	ret
11506 29F3              ; 11 void AllertYesNoViewShowHL() {
11507 29F3              allertyesnoviewshowhl:
11508 29F3              ; 12     AllertYesNoViewTitlePoint = hl;
11509 29F3 22 4B 2B     	ld (allertyesnoviewtitlepoint), hl
11510 29F6              ; 13     CurrentViewChangeAndPushIdA(a = AllertYesNoViewId);
11511 29F6 3E 09        	ld a, 9
11512 29F8 CD 58 0F     	call currentviewchangeandpushida
11513 29FB              ; 14     a = 0;
11514 29FB 3E 00        	ld a, 0
11515 29FD              ; 15     AllertYesNoViewReturnValue = a;
11516 29FD 32 4A 2B     	ld (allertyesnoviewreturnvalue), a
11517 2A00              ; 16     a = 0;
11518 2A00 3E 00        	ld a, 0
11519 2A02              ; 17     AllertYesNoViewPos = a;
11520 2A02 32 49 2B     	ld (allertyesnoviewpos), a
11521 2A05              ; 18     push_pop(bc, hl, de) {
11522 2A05 C5           	push bc
11523 2A06 E5           	push hl
11524 2A07 D5           	push de
11525 2A08              ; 19         a = AllertYesNoViewX;
11526 2A08 3A 44 2B     	ld a, (allertyesnoviewx)
11527 2A0B              ; 20         h = a;
11528 2A0B 67           	ld h, a
11529 2A0C              ; 21         a = AllertYesNoViewY;
11530 2A0C 3A 45 2B     	ld a, (allertyesnoviewy)
11531 2A0F              ; 22         l = a;
11532 2A0F 6F           	ld l, a
11533 2A10              ; 23         a = AllertYesNoViewDX;
11534 2A10 3A 46 2B     	ld a, (allertyesnoviewdx)
11535 2A13              ; 24         d = a;
11536 2A13 57           	ld d, a
11537 2A14              ; 25         a = AllertYesNoViewDY;
11538 2A14 3A 47 2B     	ld a, (allertyesnoviewdy)
11539 2A17              ; 26         e = a;
11540 2A17 5F           	ld e, a
11541 2A18              ; 27         a = AllertYesNoViewColor;
11542 2A18 3A 48 2B     	ld a, (allertyesnoviewcolor)
11543 2A1B              ; 28         c = a;
11544 2A1B 4F           	ld c, a
11545 2A1C              ; 29         a = vboxCLW;
11546 2A1C 3E 40        	ld a, 64
11547 2A1E              ; 30         a |= vboxFRM;
11548 2A1E F6 20        	or 32
11549 2A20              ; 31         a |= vboxSDW;
11550 2A20 F6 10        	or 16
11551 2A22              ; 32         a |= vboxSAV;
11552 2A22 F6 08        	or 8
11553 2A24              ; 33         a |= vboxUMP;
11554 2A24 F6 04        	or 4
11555 2A26              ; 34         vboxOpenHLDECA();
11556 2A26 CD 6D 39     	call vboxopenhldeca
11557 2A29              ; 35
11558 2A29              ; 36         // NO Button
11559 2A29              ; 37         a = AllertYesNoViewX;
11560 2A29 3A 44 2B     	ld a, (allertyesnoviewx)
11561 2A2C              ; 38         a += 6; //!
11562 2A2C C6 06        	add 6
11563 2A2E              ; 39         h = a;
11564 2A2E 67           	ld h, a
11565 2A2F              ; 40         a = AllertYesNoViewY;
11566 2A2F 3A 45 2B     	ld a, (allertyesnoviewy)
11567 2A32              ; 41         a += 4;
11568 2A32 C6 04        	add 4
11569 2A34              ; 42         l = a;
11570 2A34 6F           	ld l, a
11571 2A35              ; 43         d = 4;
11572 2A35 16 04        	ld d, 4
11573 2A37              ; 44         e = 3;
11574 2A37 1E 03        	ld e, 3
11575 2A39              ; 45         ButtonShadowViewShow(bc = StringLocaleNo);
11576 2A39 01 99 10     	ld bc, stringlocaleno
11577 2A3C CD 25 11     	call buttonshadowviewshow
11578 2A3F              ; 46         // YES Button
11579 2A3F              ; 47         a = AllertYesNoViewX;
11580 2A3F 3A 44 2B     	ld a, (allertyesnoviewx)
11581 2A42              ; 48         a += 6 + 7; //!
11582 2A42 C6 0D        	add 13
11583 2A44              ; 49         h = a;
11584 2A44 67           	ld h, a
11585 2A45              ; 50         a = AllertYesNoViewY;
11586 2A45 3A 45 2B     	ld a, (allertyesnoviewy)
11587 2A48              ; 51         a += 4;
11588 2A48 C6 04        	add 4
11589 2A4A              ; 52         l = a;
11590 2A4A 6F           	ld l, a
11591 2A4B              ; 53         d = 5;
11592 2A4B 16 05        	ld d, 5
11593 2A4D              ; 54         e = 3;
11594 2A4D 1E 03        	ld e, 3
11595 2A4F              ; 55         ButtonShadowView2Show(bc = StringLocaleYes);
11596 2A4F 01 95 10     	ld bc, stringlocaleyes
11597 2A52 CD 4D 2B     	call buttonshadowview2show
11598 2A55 D1           	pop de
11599 2A56 E1           	pop hl
11600 2A57 C1           	pop bc
11601 2A58              ; 56     }
11602 2A58              ; 57     AllertYesNoViewShowTitle();
11603 2A58 CD 03 2B     	call allertyesnoviewshowtitle
11604 2A5B              ; 58     AllertYesNoViewPosUpdate();
11605 2A5B CD DA 2A     	call allertyesnoviewposupdate
11606 2A5E              ; 59     AllertYesNoViewLoopKey();
11607 2A5E              ; 60 }
11608 2A5E              ; 61
11609 2A5E              ; 62 void AllertYesNoViewLoopKey() {
11610 2A5E              allertyesnoviewloopkey:
11611 2A5E              ; 63     push_pop(bc) {
11612 2A5E C5           	push bc
11613 2A5F              ; 64         b = 0;
11614 2A5F 06 00        	ld b, 0
11615 2A61              ; 65         do {
11616 2A61              __l_776:
11617 2A61              ; 66             getKeyboardCharA();
11618 2A61 CD 03 F8     	call getkeyboardchara
11619 2A64              ; 67             c = a;
11620 2A64 4F           	ld c, a
11621 2A65              ; 68             if ((a = c) == 0x1B) { //ESC выход
11622 2A65 79           	ld a, c
11623 2A66 FE 1B        	cp 27
11624 2A68 C2 70 2A     	jp nz, __l_779
11625 2A6B              ; 69                 b = 1;
11626 2A6B 06 01        	ld b, 1
11627 2A6D C3 BC 2A     	jp __l_780
11628 2A70              __l_779:
11629 2A70              ; 70             } else if ((a = c) == 0x0D) { //Enter
11630 2A70 79           	ld a, c
11631 2A71 FE 0D        	cp 13
11632 2A73 C2 81 2A     	jp nz, __l_781
11633 2A76              ; 71                 a = AllertYesNoViewPos;
11634 2A76 3A 49 2B     	ld a, (allertyesnoviewpos)
11635 2A79              ; 72                 AllertYesNoViewReturnValue = a;
11636 2A79 32 4A 2B     	ld (allertyesnoviewreturnvalue), a
11637 2A7C              ; 73                 b = 1;
11638 2A7C 06 01        	ld b, 1
11639 2A7E C3 BC 2A     	jp __l_782
11640 2A81              __l_781:
11641 2A81              ; 74             } else if ((a = c) == 0x18) { // Вправл
11642 2A81 79           	ld a, c
11643 2A82 FE 18        	cp 24
11644 2A84 C2 90 2A     	jp nz, __l_783
11645 2A87              ; 75                 AllertYesNoViewPosNext();
11646 2A87 CD C5 2A     	call allertyesnoviewposnext
11647 2A8A              ; 76                 AllertYesNoViewPosUpdate();
11648 2A8A CD DA 2A     	call allertyesnoviewposupdate
11649 2A8D C3 BC 2A     	jp __l_784
11650 2A90              __l_783:
11651 2A90              ; 77             } else if ((a = c) == 0x08) { // Влево
11652 2A90 79           	ld a, c
11653 2A91 FE 08        	cp 8
11654 2A93 C2 9F 2A     	jp nz, __l_785
11655 2A96              ; 78                 AllertYesNoViewPosNext();
11656 2A96 CD C5 2A     	call allertyesnoviewposnext
11657 2A99              ; 79                 AllertYesNoViewPosUpdate();
11658 2A99 CD DA 2A     	call allertyesnoviewposupdate
11659 2A9C C3 BC 2A     	jp __l_786
11660 2A9F              __l_785:
11661 2A9F              ; 80             } else if ((a = c) == 'Y') {
11662 2A9F 79           	ld a, c
11663 2AA0 FE 59        	cp 89
11664 2AA2 C2 AF 2A     	jp nz, __l_787
11665 2AA5              ; 81                 a = 1;
11666 2AA5 3E 01        	ld a, 1
11667 2AA7              ; 82                 AllertYesNoViewReturnValue = a;
11668 2AA7 32 4A 2B     	ld (allertyesnoviewreturnvalue), a
11669 2AAA              ; 83                 b = 1;
11670 2AAA 06 01        	ld b, 1
11671 2AAC C3 BC 2A     	jp __l_788
11672 2AAF              __l_787:
11673 2AAF              ; 84             } else if ((a = c) == 'N') {
11674 2AAF 79           	ld a, c
11675 2AB0 FE 4E        	cp 78
11676 2AB2 C2 BC 2A     	jp nz, __l_789
11677 2AB5              ; 85                 a = 0;
11678 2AB5 3E 00        	ld a, 0
11679 2AB7              ; 86                 AllertYesNoViewReturnValue = a;
11680 2AB7 32 4A 2B     	ld (allertyesnoviewreturnvalue), a
11681 2ABA              ; 87                 b = 1;
11682 2ABA 06 01        	ld b, 1
11683 2ABC              __l_789:
11684 2ABC              __l_788:
11685 2ABC              __l_786:
11686 2ABC              __l_784:
11687 2ABC              __l_782:
11688 2ABC              __l_780:
11689 2ABC              __l_777:
11690 2ABC              ; 88             }
11691 2ABC              ; 89         } while ((a = b) == 0);
11692 2ABC 78           	ld a, b
11693 2ABD B7           	or a
11694 2ABE CA 61 2A     	jp z, __l_776
11695 2AC1 C1           	pop bc
11696 2AC2              ; 90     }
11697 2AC2              ; 91     AllertYesNoViewClose();
11698 2AC2 C3 F9 2A     	jp allertyesnoviewclose
11699 2AC5              ; 92 }
11700 2AC5              ; 93
11701 2AC5              ; 94 void AllertYesNoViewPosNext() {
11702 2AC5              allertyesnoviewposnext:
11703 2AC5              ; 95     if ((a = AllertYesNoViewPos) == 0) {
11704 2AC5 3A 49 2B     	ld a, (allertyesnoviewpos)
11705 2AC8 B7           	or a
11706 2AC9 C2 D4 2A     	jp nz, __l_791
11707 2ACC              ; 96         a = 1;
11708 2ACC 3E 01        	ld a, 1
11709 2ACE              ; 97         AllertYesNoViewPos = a;
11710 2ACE 32 49 2B     	ld (allertyesnoviewpos), a
11711 2AD1 C3 D9 2A     	jp __l_792
11712 2AD4              __l_791:
11713 2AD4              ; 98     } else {
11714 2AD4              ; 99         a = 0;
11715 2AD4 3E 00        	ld a, 0
11716 2AD6              ; 100         AllertYesNoViewPos = a;
11717 2AD6 32 49 2B     	ld (allertyesnoviewpos), a
11718 2AD9              __l_792:
11719 2AD9 C9           	ret
11720 2ADA              ; 101     }
11721 2ADA              ; 102 }
11722 2ADA              ; 103
11723 2ADA              ; 104 void AllertYesNoViewPosUpdate() {
11724 2ADA              allertyesnoviewposupdate:
11725 2ADA              ; 105     if ((a = AllertYesNoViewPos) == 0) {
11726 2ADA 3A 49 2B     	ld a, (allertyesnoviewpos)
11727 2ADD B7           	or a
11728 2ADE C2 EE 2A     	jp nz, __l_793
11729 2AE1              ; 106         ButtonShadowViewSelectA(a = 1);
11730 2AE1 3E 01        	ld a, 1
11731 2AE3 CD 4E 11     	call buttonshadowviewselecta
11732 2AE6              ; 107         ButtonShadowView2SelectA(a = 0);
11733 2AE6 3E 00        	ld a, 0
11734 2AE8 CD 76 2B     	call buttonshadowview2selecta
11735 2AEB C3 F8 2A     	jp __l_794
11736 2AEE              __l_793:
11737 2AEE              ; 108     } else {
11738 2AEE              ; 109         ButtonShadowViewSelectA(a = 0);
11739 2AEE 3E 00        	ld a, 0
11740 2AF0 CD 4E 11     	call buttonshadowviewselecta
11741 2AF3              ; 110         ButtonShadowView2SelectA(a = 1);
11742 2AF3 3E 01        	ld a, 1
11743 2AF5 CD 76 2B     	call buttonshadowview2selecta
11744 2AF8              __l_794:
11745 2AF8 C9           	ret
11746 2AF9              ; 111     }
11747 2AF9              ; 112 }
11748 2AF9              ; 113
11749 2AF9              ; 114 void AllertYesNoViewClose() {
11750 2AF9              allertyesnoviewclose:
11751 2AF9              ; 115     vboxClose();
11752 2AF9 CD 86 3A     	call vboxclose
11753 2AFC              ; 116     CurrentViewReturn();
11754 2AFC CD 4F 10     	call currentviewreturn
11755 2AFF              ; 117     a = AllertYesNoViewReturnValue;
11756 2AFF 3A 4A 2B     	ld a, (allertyesnoviewreturnvalue)
11757 2B02 C9           	ret
11758 2B03              ; 118 }
11759 2B03              ; 119
11760 2B03              ; 120 void AllertYesNoViewShowTitle() {
11761 2B03              allertyesnoviewshowtitle:
11762 2B03              ; 121     push_pop(hl, de, bc) {
11763 2B03 E5           	push hl
11764 2B04 D5           	push de
11765 2B05 C5           	push bc
11766 2B06              ; 122         hl = AllertYesNoViewTitlePoint;
11767 2B06 2A 4B 2B     	ld hl, (allertyesnoviewtitlepoint)
11768 2B09              ; 123         b = 0;
11769 2B09 06 00        	ld b, 0
11770 2B0B              ; 124         a = AllertYesNoViewDX;
11771 2B0B 3A 46 2B     	ld a, (allertyesnoviewdx)
11772 2B0E              ; 125         c = a;
11773 2B0E 4F           	ld c, a
11774 2B0F              ; 126         do {
11775 2B0F              __l_795:
11776 2B0F              ; 127             a = *hl;
11777 2B0F 7E           	ld a, (hl)
11778 2B10              ; 128             d = a;
11779 2B10 57           	ld d, a
11780 2B11              ; 129             hl++;
11781 2B11 23           	inc hl
11782 2B12              ; 130             if (a > 0) {
11783 2B12 B7           	or a
11784 2B13 CA 17 2B     	jp z, __l_798
11785 2B16              ; 131                 b++;
11786 2B16 04           	inc b
11787 2B17              __l_798:
11788 2B17              ; 132             }
11789 2B17              ; 133             if ((a = b) >= c) {
11790 2B17 78           	ld a, b
11791 2B18 B9           	cp c
11792 2B19 DA 1E 2B     	jp c, __l_800
11793 2B1C              ; 134                 d = 0;
11794 2B1C 16 00        	ld d, 0
11795 2B1E              __l_800:
11796 2B1E              __l_796:
11797 2B1E              ; 135             }
11798 2B1E              ; 136         } while ((a = d) > 0);
11799 2B1E 7A           	ld a, d
11800 2B1F B7           	or a
11801 2B20 C2 0F 2B     	jp nz, __l_795
11802 2B23              ; 137         a = AllertYesNoViewDX;
11803 2B23 3A 46 2B     	ld a, (allertyesnoviewdx)
11804 2B26              ; 138         a -= b;
11805 2B26 90           	sub b
11806 2B27              ; 139         a &= 0xFE;
11807 2B27 E6 FE        	and 254
11808 2B29              ; 140         cyclic_rotate_right(a, 1);
11809 2B29 0F           	rrca
11810 2B2A              ; 141         b = a;
11811 2B2A 47           	ld b, a
11812 2B2B              ; 142         a = AllertYesNoViewX;
11813 2B2B 3A 44 2B     	ld a, (allertyesnoviewx)
11814 2B2E              ; 143         a += b;
11815 2B2E 80           	add b
11816 2B2F              ; 144         myCharPosX = a;
11817 2B2F 32 E3 0E     	ld (mycharposx), a
11818 2B32              ; 145         a = AllertYesNoViewY;
11819 2B32 3A 45 2B     	ld a, (allertyesnoviewy)
11820 2B35              ; 146         a += 2;
11821 2B35 C6 02        	add 2
11822 2B37              ; 147         myCharPosY = a;
11823 2B37 32 E4 0E     	ld (mycharposy), a
11824 2B3A              ; 148         printMyHLStr(hl = AllertYesNoViewTitlePoint);
11825 2B3A 2A 4B 2B     	ld hl, (allertyesnoviewtitlepoint)
11826 2B3D CD ED 0C     	call printmyhlstr
11827 2B40 C1           	pop bc
11828 2B41 D1           	pop de
11829 2B42 E1           	pop hl
11830 2B43 C9           	ret
11831 2B44              ; 149     }
11832 2B44              ; 150 }
11833 2B44              ; 151
11834 2B44              ; 152 uint8_t AllertYesNoViewX = 12;
11835 2B44              allertyesnoviewx:
11836 2B44 0C           	db 12
11837 2B45              ; 153 uint8_t AllertYesNoViewY = 12;
11838 2B45              allertyesnoviewy:
11839 2B45 0C           	db 12
11840 2B46              ; 154 uint8_t AllertYesNoViewDX = 24;
11841 2B46              allertyesnoviewdx:
11842 2B46 18           	db 24
11843 2B47              ; 155 uint8_t AllertYesNoViewDY = 9;
11844 2B47              allertyesnoviewdy:
11845 2B47 09           	db 9
11846 2B48              ; 156 uint8_t AllertYesNoViewColor = 0x70; // 0x1F;
11847 2B48              allertyesnoviewcolor:
11848 2B48 70           	db 112
11849 2B49              ; 158 uint8_t AllertYesNoViewPos = 0;
11850 2B49              allertyesnoviewpos:
11851 2B49 00           	db 0
11852 2B4A              ; 159 uint8_t AllertYesNoViewReturnValue = 0;
11853 2B4A              allertyesnoviewreturnvalue:
11854 2B4A 00           	db 0
11855 2B4B              ; 161 uint16_t AllertYesNoViewTitlePoint = 0;
11856 2B4B              allertyesnoviewtitlepoint:
11857 2B4B 00 00        	dw 0
11858 2B4D              ; 14 void ButtonShadowView2Show() {
11859 2B4D              buttonshadowview2show:
11860 2B4D              ; 15     push_pop(hl) {
11861 2B4D E5           	push hl
11862 2B4E              ; 16         h = b;
11863 2B4E 60           	ld h, b
11864 2B4F              ; 17         l = c;
11865 2B4F 69           	ld l, c
11866 2B50              ; 18         ButtonShadowView2TitlePoint = hl;
11867 2B50 22 EB 2B     	ld (buttonshadowview2titlepoint), hl
11868 2B53 E1           	pop hl
11869 2B54              ; 19     }
11870 2B54              ; 20     //- SAVE -
11871 2B54              ; 21     a = h;
11872 2B54 7C           	ld a, h
11873 2B55              ; 22     ButtonShadowView2X = a;
11874 2B55 32 E5 2B     	ld (buttonshadowview2x), a
11875 2B58              ; 23     //printHexA(a = ButtonShadowViewX);
11876 2B58              ; 24     a = l;
11877 2B58 7D           	ld a, l
11878 2B59              ; 25     ButtonShadowView2Y = a;
11879 2B59 32 E6 2B     	ld (buttonshadowview2y), a
11880 2B5C              ; 26     //printHexA(a = ButtonShadowViewY);
11881 2B5C              ; 27     a = d;
11882 2B5C 7A           	ld a, d
11883 2B5D              ; 28     ButtonShadowView2DX = a;
11884 2B5D 32 E7 2B     	ld (buttonshadowview2dx), a
11885 2B60              ; 29     //printHexA(a = ButtonShadowViewDX);
11886 2B60              ; 30     a = e;
11887 2B60 7B           	ld a, e
11888 2B61              ; 31     ButtonShadowView2DY = a;
11889 2B61 32 E8 2B     	ld (buttonshadowview2dy), a
11890 2B64              ; 32     //printHexA(a = ButtonShadowViewDY);
11891 2B64              ; 33     //--
11892 2B64              ; 34     a = ButtonShadowView2Color;
11893 2B64 3A E9 2B     	ld a, (buttonshadowview2color)
11894 2B67              ; 35     c = a;
11895 2B67 4F           	ld c, a
11896 2B68              ; 36     a = vboxCLW;
11897 2B68 3E 40        	ld a, 64
11898 2B6A              ; 37     a |= vboxFRM;
11899 2B6A F6 20        	or 32
11900 2B6C              ; 38     a |= vboxSDW;
11901 2B6C F6 10        	or 16
11902 2B6E              ; 39     a |= vboxUMP;
11903 2B6E F6 04        	or 4
11904 2B70              ; 40     vboxOpenHLDECA();
11905 2B70 CD 6D 39     	call vboxopenhldeca
11906 2B73              ; 41     //
11907 2B73              ; 42     ButtonShadowView2ShowTitleBC();
11908 2B73 C3 A4 2B     	jp buttonshadowview2showtitlebc
11909 2B76              ; 43 }
11910 2B76              ; 44
11911 2B76              ; 45 /// Закраска кнопки
11912 2B76              ; 46 /// 0 - прямой
11913 2B76              ; 47 /// 1 - инверсный
11914 2B76              ; 48 void ButtonShadowView2SelectA() {
11915 2B76              buttonshadowview2selecta:
11916 2B76              ; 49     push_pop(bc, de, hl) {
11917 2B76 C5           	push bc
11918 2B77 D5           	push de
11919 2B78 E5           	push hl
11920 2B79              ; 50         b = a;
11921 2B79 47           	ld b, a
11922 2B7A              ; 51         a = ButtonShadowView2X;
11923 2B7A 3A E5 2B     	ld a, (buttonshadowview2x)
11924 2B7D              ; 52         h = a;
11925 2B7D 67           	ld h, a
11926 2B7E              ; 53         a = ButtonShadowView2Y;
11927 2B7E 3A E6 2B     	ld a, (buttonshadowview2y)
11928 2B81              ; 54         l = a;
11929 2B81 6F           	ld l, a
11930 2B82              ; 55         a = ButtonShadowView2DX;
11931 2B82 3A E7 2B     	ld a, (buttonshadowview2dx)
11932 2B85              ; 56         d = a;
11933 2B85 57           	ld d, a
11934 2B86              ; 57         a = ButtonShadowView2DY;
11935 2B86 3A E8 2B     	ld a, (buttonshadowview2dy)
11936 2B89              ; 58         e = a;
11937 2B89 5F           	ld e, a
11938 2B8A              ; 59         //--------
11939 2B8A              ; 60         if ((a = b) == 0) {
11940 2B8A 78           	ld a, b
11941 2B8B B7           	or a
11942 2B8C C2 95 2B     	jp nz, __l_802
11943 2B8F              ; 61             a = ButtonShadowView2Color;
11944 2B8F 3A E9 2B     	ld a, (buttonshadowview2color)
11945 2B92 C3 98 2B     	jp __l_803
11946 2B95              __l_802:
11947 2B95              ; 62         } else {
11948 2B95              ; 63             a = ButtonShadowView2InvColor;
11949 2B95 3A EA 2B     	ld a, (buttonshadowview2invcolor)
11950 2B98              __l_803:
11951 2B98              ; 64         }
11952 2B98              ; 65         c = a;
11953 2B98 4F           	ld c, a
11954 2B99              ; 66         //----
11955 2B99              ; 67         a = vboxFRM;
11956 2B99 3E 20        	ld a, 32
11957 2B9B              ; 68         a |= vboxUMP;
11958 2B9B F6 04        	or 4
11959 2B9D              ; 69         vboxOpenHLDECA();
11960 2B9D CD 6D 39     	call vboxopenhldeca
11961 2BA0 E1           	pop hl
11962 2BA1 D1           	pop de
11963 2BA2 C1           	pop bc
11964 2BA3 C9           	ret
11965 2BA4              ; 70     }
11966 2BA4              ; 71 }
11967 2BA4              ; 72
11968 2BA4              ; 73 void ButtonShadowView2ShowTitleBC() {
11969 2BA4              buttonshadowview2showtitlebc:
11970 2BA4              ; 74     push_pop(hl, de, bc) {
11971 2BA4 E5           	push hl
11972 2BA5 D5           	push de
11973 2BA6 C5           	push bc
11974 2BA7              ; 75         hl = ButtonShadowView2TitlePoint;
11975 2BA7 2A EB 2B     	ld hl, (buttonshadowview2titlepoint)
11976 2BAA              ; 76         b = 0;
11977 2BAA 06 00        	ld b, 0
11978 2BAC              ; 77         a = ButtonShadowView2DX;
11979 2BAC 3A E7 2B     	ld a, (buttonshadowview2dx)
11980 2BAF              ; 78         c = a;
11981 2BAF 4F           	ld c, a
11982 2BB0              ; 79         do {
11983 2BB0              __l_804:
11984 2BB0              ; 80             a = *hl;
11985 2BB0 7E           	ld a, (hl)
11986 2BB1              ; 81             d = a;
11987 2BB1 57           	ld d, a
11988 2BB2              ; 82             hl++;
11989 2BB2 23           	inc hl
11990 2BB3              ; 83             if (a > 0) {
11991 2BB3 B7           	or a
11992 2BB4 CA B8 2B     	jp z, __l_807
11993 2BB7              ; 84                 b++;
11994 2BB7 04           	inc b
11995 2BB8              __l_807:
11996 2BB8              ; 85             }
11997 2BB8              ; 86             if ((a = b) >= c) {
11998 2BB8 78           	ld a, b
11999 2BB9 B9           	cp c
12000 2BBA DA BF 2B     	jp c, __l_809
12001 2BBD              ; 87                 d = 0;
12002 2BBD 16 00        	ld d, 0
12003 2BBF              __l_809:
12004 2BBF              __l_805:
12005 2BBF              ; 88             }
12006 2BBF              ; 89         } while ((a = d) > 0);
12007 2BBF 7A           	ld a, d
12008 2BC0 B7           	or a
12009 2BC1 C2 B0 2B     	jp nz, __l_804
12010 2BC4              ; 90         a = ButtonShadowView2DX;
12011 2BC4 3A E7 2B     	ld a, (buttonshadowview2dx)
12012 2BC7              ; 91         a -= b;
12013 2BC7 90           	sub b
12014 2BC8              ; 92         a &= 0xFE;
12015 2BC8 E6 FE        	and 254
12016 2BCA              ; 93         cyclic_rotate_right(a, 1);
12017 2BCA 0F           	rrca
12018 2BCB              ; 94         b = a;
12019 2BCB 47           	ld b, a
12020 2BCC              ; 95         a = ButtonShadowView2X;
12021 2BCC 3A E5 2B     	ld a, (buttonshadowview2x)
12022 2BCF              ; 96         a += b;
12023 2BCF 80           	add b
12024 2BD0              ; 97         myCharPosX = a;
12025 2BD0 32 E3 0E     	ld (mycharposx), a
12026 2BD3              ; 98         a = ButtonShadowView2Y;
12027 2BD3 3A E6 2B     	ld a, (buttonshadowview2y)
12028 2BD6              ; 99         a += 1;
12029 2BD6 C6 01        	add 1
12030 2BD8              ; 100         myCharPosY = a;
12031 2BD8 32 E4 0E     	ld (mycharposy), a
12032 2BDB              ; 101         printMyHLStr(hl = ButtonShadowView2TitlePoint);
12033 2BDB 2A EB 2B     	ld hl, (buttonshadowview2titlepoint)
12034 2BDE CD ED 0C     	call printmyhlstr
12035 2BE1 C1           	pop bc
12036 2BE2 D1           	pop de
12037 2BE3 E1           	pop hl
12038 2BE4 C9           	ret
12039 2BE5              ; 102     }
12040 2BE5              ; 103 }
12041 2BE5              ; 104
12042 2BE5              ; 105 uint8_t ButtonShadowView2X = 0;
12043 2BE5              buttonshadowview2x:
12044 2BE5 00           	db 0
12045 2BE6              ; 106 uint8_t ButtonShadowView2Y = 0;
12046 2BE6              buttonshadowview2y:
12047 2BE6 00           	db 0
12048 2BE7              ; 107 uint8_t ButtonShadowView2DX = 0;
12049 2BE7              buttonshadowview2dx:
12050 2BE7 00           	db 0
12051 2BE8              ; 108 uint8_t ButtonShadowView2DY = 0;
12052 2BE8              buttonshadowview2dy:
12053 2BE8 00           	db 0
12054 2BE9              ; 110 uint8_t ButtonShadowView2Color = 0xF7;
12055 2BE9              buttonshadowview2color:
12056 2BE9 F7           	db 247
12057 2BEA              ; 111 uint8_t ButtonShadowView2InvColor = 0xE2; //0xE6
12058 2BEA              buttonshadowview2invcolor:
12059 2BEA E2           	db 226
12060 2BEB              ; 113 uint16_t ButtonShadowView2TitlePoint = 0x0000;
12061 2BEB              buttonshadowview2titlepoint:
12062 2BEB 00 00        	dw 0
12063 2BED              ; 11 void AllertOkViewShowHL() {
12064 2BED              allertokviewshowhl:
12065 2BED              ; 12     AllertOkViewTitlePoint = hl;
12066 2BED 22 AA 2C     	ld (allertokviewtitlepoint), hl
12067 2BF0              ; 13     CurrentViewChangeAndPushIdA(a = AllertOkViewId);
12068 2BF0 3E 0A        	ld a, 10
12069 2BF2 CD 58 0F     	call currentviewchangeandpushida
12070 2BF5              ; 14     push_pop(bc, hl, de) {
12071 2BF5 C5           	push bc
12072 2BF6 E5           	push hl
12073 2BF7 D5           	push de
12074 2BF8              ; 15         a = AllertOkViewX;
12075 2BF8 3A A5 2C     	ld a, (allertokviewx)
12076 2BFB              ; 16         h = a;
12077 2BFB 67           	ld h, a
12078 2BFC              ; 17         a = AllertOkViewY;
12079 2BFC 3A A6 2C     	ld a, (allertokviewy)
12080 2BFF              ; 18         l = a;
12081 2BFF 6F           	ld l, a
12082 2C00              ; 19         a = AllertOkViewDX;
12083 2C00 3A A7 2C     	ld a, (allertokviewdx)
12084 2C03              ; 20         d = a;
12085 2C03 57           	ld d, a
12086 2C04              ; 21         a = AllertOkViewDY;
12087 2C04 3A A8 2C     	ld a, (allertokviewdy)
12088 2C07              ; 22         e = a;
12089 2C07 5F           	ld e, a
12090 2C08              ; 23         a = AllertOkViewColor;
12091 2C08 3A A9 2C     	ld a, (allertokviewcolor)
12092 2C0B              ; 24         c = a;
12093 2C0B 4F           	ld c, a
12094 2C0C              ; 25         a = vboxCLW;
12095 2C0C 3E 40        	ld a, 64
12096 2C0E              ; 26         a |= vboxFRM;
12097 2C0E F6 20        	or 32
12098 2C10              ; 27         a |= vboxSDW;
12099 2C10 F6 10        	or 16
12100 2C12              ; 28         a |= vboxSAV;
12101 2C12 F6 08        	or 8
12102 2C14              ; 29         a |= vboxUMP;
12103 2C14 F6 04        	or 4
12104 2C16              ; 30         vboxOpenHLDECA();
12105 2C16 CD 6D 39     	call vboxopenhldeca
12106 2C19              ; 31
12107 2C19              ; 32         // Ok Button
12108 2C19              ; 33         a = AllertOkViewX;
12109 2C19 3A A5 2C     	ld a, (allertokviewx)
12110 2C1C              ; 34         a += 10; //!
12111 2C1C C6 0A        	add 10
12112 2C1E              ; 35         h = a;
12113 2C1E 67           	ld h, a
12114 2C1F              ; 36         a = AllertOkViewY;
12115 2C1F 3A A6 2C     	ld a, (allertokviewy)
12116 2C22              ; 37         a += 4;
12117 2C22 C6 04        	add 4
12118 2C24              ; 38         l = a;
12119 2C24 6F           	ld l, a
12120 2C25              ; 39         d = 4;
12121 2C25 16 04        	ld d, 4
12122 2C27              ; 40         e = 3;
12123 2C27 1E 03        	ld e, 3
12124 2C29              ; 41         ButtonShadowViewShow(bc = StringLocaleOK);
12125 2C29 01 92 10     	ld bc, stringlocaleok
12126 2C2C CD 25 11     	call buttonshadowviewshow
12127 2C2F              ; 42         ButtonShadowViewSelectA(a = 1);
12128 2C2F 3E 01        	ld a, 1
12129 2C31 CD 4E 11     	call buttonshadowviewselecta
12130 2C34 D1           	pop de
12131 2C35 E1           	pop hl
12132 2C36 C1           	pop bc
12133 2C37              ; 43     }
12134 2C37              ; 44     AllertOkViewShowTitle();
12135 2C37 CD 64 2C     	call allertokviewshowtitle
12136 2C3A              ; 45     AllertOkViewLoopKey();
12137 2C3A              ; 46 }
12138 2C3A              ; 47
12139 2C3A              ; 48 void AllertOkViewLoopKey() {
12140 2C3A              allertokviewloopkey:
12141 2C3A              ; 49     push_pop(bc) {
12142 2C3A C5           	push bc
12143 2C3B              ; 50         b = 0;
12144 2C3B 06 00        	ld b, 0
12145 2C3D              ; 51         do {
12146 2C3D              __l_811:
12147 2C3D              ; 52             getKeyboardCharA();
12148 2C3D CD 03 F8     	call getkeyboardchara
12149 2C40              ; 53             c = a;
12150 2C40 4F           	ld c, a
12151 2C41              ; 54             if ((a = c) == 0x1B) { //ESC выход
12152 2C41 79           	ld a, c
12153 2C42 FE 1B        	cp 27
12154 2C44 C2 4C 2C     	jp nz, __l_814
12155 2C47              ; 55                 b = 1;
12156 2C47 06 01        	ld b, 1
12157 2C49 C3 54 2C     	jp __l_815
12158 2C4C              __l_814:
12159 2C4C              ; 56             } else if ((a = c) == 0x0D) { //Enter
12160 2C4C 79           	ld a, c
12161 2C4D FE 0D        	cp 13
12162 2C4F C2 54 2C     	jp nz, __l_816
12163 2C52              ; 57                 b = 1;
12164 2C52 06 01        	ld b, 1
12165 2C54              __l_816:
12166 2C54              __l_815:
12167 2C54              __l_812:
12168 2C54              ; 58             }
12169 2C54              ; 59         } while ((a = b) == 0);
12170 2C54 78           	ld a, b
12171 2C55 B7           	or a
12172 2C56 CA 3D 2C     	jp z, __l_811
12173 2C59              ; 60         AllertOkViewClose();
12174 2C59 CD 5E 2C     	call allertokviewclose
12175 2C5C C1           	pop bc
12176 2C5D C9           	ret
12177 2C5E              ; 61     }
12178 2C5E              ; 62 }
12179 2C5E              ; 63
12180 2C5E              ; 64 void AllertOkViewClose() {
12181 2C5E              allertokviewclose:
12182 2C5E              ; 65     vboxClose();
12183 2C5E CD 86 3A     	call vboxclose
12184 2C61              ; 66     CurrentViewReturn();
12185 2C61 C3 4F 10     	jp currentviewreturn
12186 2C64              ; 67 }
12187 2C64              ; 68
12188 2C64              ; 69 void AllertOkViewShowTitle() {
12189 2C64              allertokviewshowtitle:
12190 2C64              ; 70     push_pop(hl, de, bc) {
12191 2C64 E5           	push hl
12192 2C65 D5           	push de
12193 2C66 C5           	push bc
12194 2C67              ; 71         hl = AllertOkViewTitlePoint;
12195 2C67 2A AA 2C     	ld hl, (allertokviewtitlepoint)
12196 2C6A              ; 72         b = 0;
12197 2C6A 06 00        	ld b, 0
12198 2C6C              ; 73         a = AllertOkViewDX;
12199 2C6C 3A A7 2C     	ld a, (allertokviewdx)
12200 2C6F              ; 74         c = a;
12201 2C6F 4F           	ld c, a
12202 2C70              ; 75         do {
12203 2C70              __l_818:
12204 2C70              ; 76             a = *hl;
12205 2C70 7E           	ld a, (hl)
12206 2C71              ; 77             d = a;
12207 2C71 57           	ld d, a
12208 2C72              ; 78             hl++;
12209 2C72 23           	inc hl
12210 2C73              ; 79             if (a > 0) {
12211 2C73 B7           	or a
12212 2C74 CA 78 2C     	jp z, __l_821
12213 2C77              ; 80                 b++;
12214 2C77 04           	inc b
12215 2C78              __l_821:
12216 2C78              ; 81             }
12217 2C78              ; 82             if ((a = b) >= c) {
12218 2C78 78           	ld a, b
12219 2C79 B9           	cp c
12220 2C7A DA 7F 2C     	jp c, __l_823
12221 2C7D              ; 83                 d = 0;
12222 2C7D 16 00        	ld d, 0
12223 2C7F              __l_823:
12224 2C7F              __l_819:
12225 2C7F              ; 84             }
12226 2C7F              ; 85         } while ((a = d) > 0);
12227 2C7F 7A           	ld a, d
12228 2C80 B7           	or a
12229 2C81 C2 70 2C     	jp nz, __l_818
12230 2C84              ; 86         a = AllertOkViewDX;
12231 2C84 3A A7 2C     	ld a, (allertokviewdx)
12232 2C87              ; 87         a -= b;
12233 2C87 90           	sub b
12234 2C88              ; 88         a &= 0xFE;
12235 2C88 E6 FE        	and 254
12236 2C8A              ; 89         cyclic_rotate_right(a, 1);
12237 2C8A 0F           	rrca
12238 2C8B              ; 90         b = a;
12239 2C8B 47           	ld b, a
12240 2C8C              ; 91         a = AllertOkViewX;
12241 2C8C 3A A5 2C     	ld a, (allertokviewx)
12242 2C8F              ; 92         a += b;
12243 2C8F 80           	add b
12244 2C90              ; 93         myCharPosX = a;
12245 2C90 32 E3 0E     	ld (mycharposx), a
12246 2C93              ; 94         a = AllertOkViewY;
12247 2C93 3A A6 2C     	ld a, (allertokviewy)
12248 2C96              ; 95         a += 2;
12249 2C96 C6 02        	add 2
12250 2C98              ; 96         myCharPosY = a;
12251 2C98 32 E4 0E     	ld (mycharposy), a
12252 2C9B              ; 97         printMyHLStr(hl = AllertOkViewTitlePoint);
12253 2C9B 2A AA 2C     	ld hl, (allertokviewtitlepoint)
12254 2C9E CD ED 0C     	call printmyhlstr
12255 2CA1 C1           	pop bc
12256 2CA2 D1           	pop de
12257 2CA3 E1           	pop hl
12258 2CA4 C9           	ret
12259 2CA5              ; 98     }
12260 2CA5              ; 99 }
12261 2CA5              ; 100
12262 2CA5              ; 101 uint8_t AllertOkViewX = 12;
12263 2CA5              allertokviewx:
12264 2CA5 0C           	db 12
12265 2CA6              ; 102 uint8_t AllertOkViewY = 12;
12266 2CA6              allertokviewy:
12267 2CA6 0C           	db 12
12268 2CA7              ; 103 uint8_t AllertOkViewDX = 24;
12269 2CA7              allertokviewdx:
12270 2CA7 18           	db 24
12271 2CA8              ; 104 uint8_t AllertOkViewDY = 9;
12272 2CA8              allertokviewdy:
12273 2CA8 09           	db 9
12274 2CA9              ; 105 uint8_t AllertOkViewColor = 0x70; // 0x1F;
12275 2CA9              allertokviewcolor:
12276 2CA9 70           	db 112
12277 2CAA              ; 107 uint16_t AllertOkViewTitlePoint = 0;
12278 2CAA              allertokviewtitlepoint:
12279 2CAA 00 00        	dw 0
12280 2CAC              ; 11 void FtpMakeDirectoryShow() {
12281 2CAC              ftpmakedirectoryshow:
12282 2CAC              ; 12     CurrentViewChangeAndPushIdA(a = FtpMakeDirectoryId);
12283 2CAC 3E 0B        	ld a, 11
12284 2CAE CD 58 0F     	call currentviewchangeandpushida
12285 2CB1              ; 13     push_pop(bc, hl, de) {
12286 2CB1 C5           	push bc
12287 2CB2 E5           	push hl
12288 2CB3 D5           	push de
12289 2CB4              ; 14         a = FtpMakeDirectoryX;
12290 2CB4 3A 56 2E     	ld a, (ftpmakedirectoryx)
12291 2CB7              ; 15         h = a;
12292 2CB7 67           	ld h, a
12293 2CB8              ; 16         a = FtpMakeDirectoryY;
12294 2CB8 3A 57 2E     	ld a, (ftpmakedirectoryy)
12295 2CBB              ; 17         l = a;
12296 2CBB 6F           	ld l, a
12297 2CBC              ; 18         a = FtpMakeDirectoryDX;
12298 2CBC 3A 58 2E     	ld a, (ftpmakedirectorydx)
12299 2CBF              ; 19         d = a;
12300 2CBF 57           	ld d, a
12301 2CC0              ; 20         a = FtpMakeDirectoryDY;
12302 2CC0 3A 59 2E     	ld a, (ftpmakedirectorydy)
12303 2CC3              ; 21         e = a;
12304 2CC3 5F           	ld e, a
12305 2CC4              ; 22         a = FtpMakeDirectoryColor;
12306 2CC4 3A 5A 2E     	ld a, (ftpmakedirectorycolor)
12307 2CC7              ; 23         c = a;
12308 2CC7 4F           	ld c, a
12309 2CC8              ; 24         a = vboxCLW;
12310 2CC8 3E 40        	ld a, 64
12311 2CCA              ; 25         a |= vboxFRM;
12312 2CCA F6 20        	or 32
12313 2CCC              ; 26         a |= vboxSDW;
12314 2CCC F6 10        	or 16
12315 2CCE              ; 27         a |= vboxSAV;
12316 2CCE F6 08        	or 8
12317 2CD0              ; 28         a |= vboxUMP;
12318 2CD0 F6 04        	or 4
12319 2CD2              ; 29         vboxOpenHLDECA();
12320 2CD2 CD 6D 39     	call vboxopenhldeca
12321 2CD5 D1           	pop de
12322 2CD6 E1           	pop hl
12323 2CD7 C1           	pop bc
12324 2CD8              ; 30     }
12325 2CD8              ; 31     FtpMakeDirectoryInitValue();
12326 2CD8 CD E6 2C     	call ftpmakedirectoryinitvalue
12327 2CDB              ; 32     FtpMakeDirectoryShowTitle();
12328 2CDB CD 00 2D     	call ftpmakedirectoryshowtitle
12329 2CDE              ; 33     FtpMakeDirectoryShowValue();
12330 2CDE CD 54 2D     	call ftpmakedirectoryshowvalue
12331 2CE1              ; 34     FtpMakeDirectorySelectLineA(a = 1);
12332 2CE1 3E 01        	ld a, 1
12333 2CE3 C3 8B 2D     	jp ftpmakedirectoryselectlinea
12334 2CE6              ; 35 }
12335 2CE6              ; 36
12336 2CE6              ; 37 void FtpMakeDirectoryInitValue() {
12337 2CE6              ftpmakedirectoryinitvalue:
12338 2CE6              ; 38     a = 0;
12339 2CE6 3E 00        	ld a, 0
12340 2CE8              ; 39     FtpMakeDirectorySelectPos = a;
12341 2CE8 32 7B 2E     	ld (ftpmakedirectoryselectpos), a
12342 2CEB              ; 40     // Value
12343 2CEB              ; 41     a = 'N';
12344 2CEB 3E 4E        	ld a, 78
12345 2CED              ; 42     FtpMakeDirectoryValue[0] = a;
12346 2CED 32 6B 2E     	ld (ftpmakedirectoryvalue), a
12347 2CF0              ; 43     a = 'e';
12348 2CF0 3E 65        	ld a, 101
12349 2CF2              ; 44     FtpMakeDirectoryValue[1] = a;
12350 2CF2 32 6C 2E     	ld (0FFFFh & ((ftpmakedirectoryvalue) + (1))), a
12351 2CF5              ; 45     a = 'w';
12352 2CF5 3E 77        	ld a, 119
12353 2CF7              ; 46     FtpMakeDirectoryValue[2] = a;
12354 2CF7 32 6D 2E     	ld (0FFFFh & ((ftpmakedirectoryvalue) + (2))), a
12355 2CFA              ; 47     a = 0;
12356 2CFA 3E 00        	ld a, 0
12357 2CFC              ; 48     FtpMakeDirectoryValue[3] = a;
12358 2CFC 32 6E 2E     	ld (0FFFFh & ((ftpmakedirectoryvalue) + (3))), a
12359 2CFF C9           	ret
12360 2D00              ; 49 }
12361 2D00              ; 50
12362 2D00              ; 51 void FtpMakeDirectoryShowTitle() {
12363 2D00              ftpmakedirectoryshowtitle:
12364 2D00              ; 52     push_pop(hl, bc, de) {
12365 2D00 E5           	push hl
12366 2D01 C5           	push bc
12367 2D02 D5           	push de
12368 2D03              ; 53         // Title
12369 2D03              ; 54         a = FtpMakeDirectoryX;
12370 2D03 3A 56 2E     	ld a, (ftpmakedirectoryx)
12371 2D06              ; 55         a += 3;
12372 2D06 C6 03        	add 3
12373 2D08              ; 56         myCharPosX = a;
12374 2D08 32 E3 0E     	ld (mycharposx), a
12375 2D0B              ; 57         a = FtpMakeDirectoryY;
12376 2D0B 3A 57 2E     	ld a, (ftpmakedirectoryy)
12377 2D0E              ; 58         a += 1; //2;
12378 2D0E C6 01        	add 1
12379 2D10              ; 59         myCharPosY = a;
12380 2D10 32 E4 0E     	ld (mycharposy), a
12381 2D13              ; 60         printMyHLStr(hl = FtpMakeDirectoryTitle);
12382 2D13 21 5C 2E     	ld hl, ftpmakedirectorytitle
12383 2D16 CD ED 0C     	call printmyhlstr
12384 2D19              ; 61         // LINE!!!
12385 2D19              ; 62         a = FtpMakeDirectoryX;
12386 2D19 3A 56 2E     	ld a, (ftpmakedirectoryx)
12387 2D1C              ; 63         a += 1;
12388 2D1C C6 01        	add 1
12389 2D1E              ; 64         myCharPosX = a;
12390 2D1E 32 E3 0E     	ld (mycharposx), a
12391 2D21              ; 65         a = FtpMakeDirectoryY;
12392 2D21 3A 57 2E     	ld a, (ftpmakedirectoryy)
12393 2D24              ; 66         a += 2;
12394 2D24 C6 02        	add 2
12395 2D26              ; 67         myCharPosY = a;
12396 2D26 32 E4 0E     	ld (mycharposy), a
12397 2D29              ; 68         a = FtpMakeDirectoryDX;
12398 2D29 3A 58 2E     	ld a, (ftpmakedirectorydx)
12399 2D2C              ; 69         a -= 2;
12400 2D2C D6 02        	sub 2
12401 2D2E              ; 70         b = a;
12402 2D2E 47           	ld b, a
12403 2D2F              ; 71         do {
12404 2D2F              __l_825:
12405 2D2F              ; 72             printMyCharA(a = 0x5F);
12406 2D2F 3E 5F        	ld a, 95
12407 2D31 CD 4E 0D     	call printmychara
12408 2D34              ; 73             b--;
12409 2D34 05           	dec b
12410 2D35              __l_826:
12411 2D35              ; 74         } while ((a = b) > 0);
12412 2D35 78           	ld a, b
12413 2D36 B7           	or a
12414 2D37 C2 2F 2D     	jp nz, __l_825
12415 2D3A              ; 75         // DIRECTORY
12416 2D3A              ; 76         // Button
12417 2D3A              ; 77         bc = StringLocaleOK;
12418 2D3A 01 92 10     	ld bc, stringlocaleok
12419 2D3D              ; 78
12420 2D3D              ; 79         d = 8; //13
12421 2D3D 16 08        	ld d, 8
12422 2D3F              ; 80         e = 3;
12423 2D3F 1E 03        	ld e, 3
12424 2D41              ; 81         a = FtpMakeDirectoryX;
12425 2D41 3A 56 2E     	ld a, (ftpmakedirectoryx)
12426 2D44              ; 82         a += 6;
12427 2D44 C6 06        	add 6
12428 2D46              ; 83         h = a;
12429 2D46 67           	ld h, a
12430 2D47              ; 84         a = FtpMakeDirectoryY;
12431 2D47 3A 57 2E     	ld a, (ftpmakedirectoryy)
12432 2D4A              ; 85         a += 7;
12433 2D4A C6 07        	add 7
12434 2D4C              ; 86         l = a;
12435 2D4C 6F           	ld l, a
12436 2D4D              ; 87         ButtonShadowViewShow();
12437 2D4D CD 25 11     	call buttonshadowviewshow
12438 2D50 D1           	pop de
12439 2D51 C1           	pop bc
12440 2D52 E1           	pop hl
12441 2D53 C9           	ret
12442 2D54              ; 88     }
12443 2D54              ; 89 }
12444 2D54              ; 90
12445 2D54              ; 91 void FtpMakeDirectoryShowValue() {
12446 2D54              ftpmakedirectoryshowvalue:
12447 2D54              ; 92     push_pop(hl, bc) {
12448 2D54 E5           	push hl
12449 2D55 C5           	push bc
12450 2D56              ; 93         // Directory
12451 2D56              ; 94         a = FtpMakeDirectoryX;
12452 2D56 3A 56 2E     	ld a, (ftpmakedirectoryx)
12453 2D59              ; 95         a += 2;
12454 2D59 C6 02        	add 2
12455 2D5B              ; 96         myCharPosX = a;
12456 2D5B 32 E3 0E     	ld (mycharposx), a
12457 2D5E              ; 97         a = FtpMakeDirectoryY;
12458 2D5E 3A 57 2E     	ld a, (ftpmakedirectoryy)
12459 2D61              ; 98         a += 4;
12460 2D61 C6 04        	add 4
12461 2D63              ; 99         c = a; // Y
12462 2D63 4F           	ld c, a
12463 2D64              ; 100         myCharPosY = a;
12464 2D64 32 E4 0E     	ld (mycharposy), a
12465 2D67              ; 101         a = 16;
12466 2D67 3E 10        	ld a, 16
12467 2D69              ; 102         printMyHLStrLenA(hl = FtpMakeDirectoryValue);
12468 2D69 21 6B 2E     	ld hl, ftpmakedirectoryvalue
12469 2D6C CD FC 0C     	call printmyhlstrlena
12470 2D6F C1           	pop bc
12471 2D70 E1           	pop hl
12472 2D71 C9           	ret
12473 2D72              ; 103     }
12474 2D72              ; 104 }
12475 2D72              ; 105
12476 2D72              ; 106 /// вых [HL] -
12477 2D72              ; 107 /// вых [DE]-
12478 2D72              ; 108 void FtpMakeDirectoryByPosBoxValue() {
12479 2D72              ftpmakedirectorybyposboxvalue:
12480 2D72              ; 109     push_pop(bc) {
12481 2D72 C5           	push bc
12482 2D73              ; 110         a = FtpMakeDirectoryX;
12483 2D73 3A 56 2E     	ld a, (ftpmakedirectoryx)
12484 2D76              ; 111         a += 2;
12485 2D76 C6 02        	add 2
12486 2D78              ; 112         h = a;
12487 2D78 67           	ld h, a
12488 2D79              ; 113         a = FtpMakeDirectoryY;
12489 2D79 3A 57 2E     	ld a, (ftpmakedirectoryy)
12490 2D7C              ; 114         a += 4;
12491 2D7C C6 04        	add 4
12492 2D7E              ; 115         l = a;
12493 2D7E 6F           	ld l, a
12494 2D7F              ; 116         // DE
12495 2D7F              ; 117         a = 16;
12496 2D7F 3E 10        	ld a, 16
12497 2D81              ; 118         d = a;
12498 2D81 57           	ld d, a
12499 2D82              ; 119         a = 1;
12500 2D82 3E 01        	ld a, 1
12501 2D84              ; 120         e = a;
12502 2D84 5F           	ld e, a
12503 2D85 C1           	pop bc
12504 2D86 C9           	ret
12505 2D87              ; 121     }
12506 2D87              ; 122 }
12507 2D87              ; 123
12508 2D87              ; 124 /// вых [BC] -
12509 2D87              ; 125 void FtpMakeDirectoryByPosValue() {
12510 2D87              ftpmakedirectorybyposvalue:
12511 2D87              ; 126     bc = FtpMakeDirectoryValue;
12512 2D87 01 6B 2E     	ld bc, ftpmakedirectoryvalue
12513 2D8A C9           	ret
12514 2D8B              ; 127 }
12515 2D8B              ; 128
12516 2D8B              ; 129 /// Рисование линии прямым или инверсным цветом
12517 2D8B              ; 130 /// 0 - прямой
12518 2D8B              ; 131 /// 1 - инверсный
12519 2D8B              ; 132 void FtpMakeDirectorySelectLineA() {
12520 2D8B              ftpmakedirectoryselectlinea:
12521 2D8B              ; 133     push_pop(bc, hl, de) {
12522 2D8B C5           	push bc
12523 2D8C E5           	push hl
12524 2D8D D5           	push de
12525 2D8E              ; 134         c = a;
12526 2D8E 4F           	ld c, a
12527 2D8F              ; 135         // 0 - Button
12528 2D8F              ; 136         if ((a = FtpMakeDirectorySelectPos) == 0) {
12529 2D8F 3A 7B 2E     	ld a, (ftpmakedirectoryselectpos)
12530 2D92 B7           	or a
12531 2D93 C2 9D 2D     	jp nz, __l_828
12532 2D96              ; 137             ButtonShadowViewSelectA(a = c);
12533 2D96 79           	ld a, c
12534 2D97 CD 4E 11     	call buttonshadowviewselecta
12535 2D9A C3 B4 2D     	jp __l_829
12536 2D9D              __l_828:
12537 2D9D              ; 138         } else {
12538 2D9D              ; 139             FtpMakeDirectoryByPosBoxValue();
12539 2D9D CD 72 2D     	call ftpmakedirectorybyposboxvalue
12540 2DA0              ; 140             // C
12541 2DA0              ; 141             if ((a = c) == 0) {
12542 2DA0 79           	ld a, c
12543 2DA1 B7           	or a
12544 2DA2 C2 AB 2D     	jp nz, __l_830
12545 2DA5              ; 142                 a = FtpMakeDirectoryColor;
12546 2DA5 3A 5A 2E     	ld a, (ftpmakedirectorycolor)
12547 2DA8 C3 AE 2D     	jp __l_831
12548 2DAB              __l_830:
12549 2DAB              ; 143             } else {
12550 2DAB              ; 144                 a = FtpMakeDirectoryInvColor;
12551 2DAB 3A 5B 2E     	ld a, (ftpmakedirectoryinvcolor)
12552 2DAE              __l_831:
12553 2DAE              ; 145             }
12554 2DAE              ; 146             c = a;
12555 2DAE 4F           	ld c, a
12556 2DAF              ; 147             // A
12557 2DAF              ; 148             a = vboxUMP;
12558 2DAF 3E 04        	ld a, 4
12559 2DB1              ; 149             vboxOpenHLDECA();
12560 2DB1 CD 6D 39     	call vboxopenhldeca
12561 2DB4              __l_829:
12562 2DB4 D1           	pop de
12563 2DB5 E1           	pop hl
12564 2DB6 C1           	pop bc
12565 2DB7 C9           	ret
12566 2DB8              ; 150         }
12567 2DB8              ; 151     }
12568 2DB8              ; 152 }
12569 2DB8              ; 153
12570 2DB8              ; 154 /// Обновление позиции
12571 2DB8              ; 155 /// вх[A]
12572 2DB8              ; 156 /// 0 - без изменений
12573 2DB8              ; 157 /// 1 - вверх
12574 2DB8              ; 158 /// 0xFF - вниз
12575 2DB8              ; 159 void FtpMakeDirectoryPosUpdateA() {
12576 2DB8              ftpmakedirectoryposupdatea:
12577 2DB8              ; 160     push_pop(bc) {
12578 2DB8 C5           	push bc
12579 2DB9              ; 161         b = a;
12580 2DB9 47           	ld b, a
12581 2DBA              ; 162         if (a == 0) {
12582 2DBA B7           	or a
12583 2DBB C2 C6 2D     	jp nz, __l_832
12584 2DBE              ; 163             FtpMakeDirectorySelectLineA(a = 1);
12585 2DBE 3E 01        	ld a, 1
12586 2DC0 CD 8B 2D     	call ftpmakedirectoryselectlinea
12587 2DC3 C3 ED 2D     	jp __l_833
12588 2DC6              __l_832:
12589 2DC6              ; 164         } else {
12590 2DC6              ; 165             a = 2;
12591 2DC6 3E 02        	ld a, 2
12592 2DC8              ; 166             c = a;
12593 2DC8 4F           	ld c, a
12594 2DC9              ; 167             FtpMakeDirectorySelectLineA(a = 0);
12595 2DC9 3E 00        	ld a, 0
12596 2DCB CD 8B 2D     	call ftpmakedirectoryselectlinea
12597 2DCE              ; 168             a = FtpMakeDirectorySelectPos;
12598 2DCE 3A 7B 2E     	ld a, (ftpmakedirectoryselectpos)
12599 2DD1              ; 169             a += b;
12600 2DD1 80           	add b
12601 2DD2              ; 170             b = a;
12602 2DD2 47           	ld b, a
12603 2DD3              ; 171             //-- FIX
12604 2DD3              ; 172             if ((a = b) == 0xFF) {
12605 2DD3 78           	ld a, b
12606 2DD4 FE FF        	cp 255
12607 2DD6 C2 DE 2D     	jp nz, __l_834
12608 2DD9              ; 173                 a = c;
12609 2DD9 79           	ld a, c
12610 2DDA              ; 174                 a--;
12611 2DDA 3D           	dec a
12612 2DDB C3 E5 2D     	jp __l_835
12613 2DDE              __l_834:
12614 2DDE              ; 175             } else if ((a = b) == c) {
12615 2DDE 78           	ld a, b
12616 2DDF B9           	cp c
12617 2DE0 C2 E5 2D     	jp nz, __l_836
12618 2DE3              ; 176                 a = 0;
12619 2DE3 3E 00        	ld a, 0
12620 2DE5              __l_836:
12621 2DE5              __l_835:
12622 2DE5              ; 177             }
12623 2DE5              ; 178             //--
12624 2DE5              ; 179             FtpMakeDirectorySelectPos = a;
12625 2DE5 32 7B 2E     	ld (ftpmakedirectoryselectpos), a
12626 2DE8              ; 180             FtpMakeDirectorySelectLineA(a = 1);
12627 2DE8 3E 01        	ld a, 1
12628 2DEA CD 8B 2D     	call ftpmakedirectoryselectlinea
12629 2DED              __l_833:
12630 2DED C1           	pop bc
12631 2DEE C9           	ret
12632 2DEF              ; 181         }
12633 2DEF              ; 182     }
12634 2DEF              ; 183 }
12635 2DEF              ; 184
12636 2DEF              ; 185 void FtpMakeDirectoryClose() {
12637 2DEF              ftpmakedirectoryclose:
12638 2DEF              ; 186     vboxClose();
12639 2DEF CD 86 3A     	call vboxclose
12640 2DF2              ; 187     CurrentViewReturn();
12641 2DF2 CD 4F 10     	call currentviewreturn
12642 2DF5              ; 188     FtpViewNetLoadAndUpdate();
12643 2DF5 C3 C8 23     	jp ftpviewnetloadandupdate
12644 2DF8              ; 189 }
12645 2DF8              ; 190
12646 2DF8              ; 191 void FtpMakeDirectoryKeyA() {
12647 2DF8              ftpmakedirectorykeya:
12648 2DF8              ; 192     push_pop(hl) {
12649 2DF8 E5           	push hl
12650 2DF9              ; 193         l = a;
12651 2DF9 6F           	ld l, a
12652 2DFA              ; 194         if ((a = CurrentViewId) == FtpMakeDirectoryId) {
12653 2DFA 3A 8F 10     	ld a, (currentviewid)
12654 2DFD FE 0B        	cp 11
12655 2DFF C2 54 2E     	jp nz, __l_838
12656 2E02              ; 195             if ((a = l) == 0x1B) { //ESC выход
12657 2E02 7D           	ld a, l
12658 2E03 FE 1B        	cp 27
12659 2E05 C2 0E 2E     	jp nz, __l_840
12660 2E08              ; 196                 FtpMakeDirectoryClose();
12661 2E08 CD EF 2D     	call ftpmakedirectoryclose
12662 2E0B C3 54 2E     	jp __l_841
12663 2E0E              __l_840:
12664 2E0E              ; 197             } else if ((a = l) == 0x0D) { // Выбор
12665 2E0E 7D           	ld a, l
12666 2E0F FE 0D        	cp 13
12667 2E11 C2 3B 2E     	jp nz, __l_842
12668 2E14              ; 198                 if ((a = FtpMakeDirectorySelectPos) == 0) { // OK
12669 2E14 3A 7B 2E     	ld a, (ftpmakedirectoryselectpos)
12670 2E17 B7           	or a
12671 2E18 C2 27 2E     	jp nz, __l_844
12672 2E1B              ; 199                     #ifdef _IS_SIMULATOR
12673 2E1B              ; 200                     #else
12674 2E1B              ; 201                         NetFtpMakeDirectory();
12675 2E1B CD AF 05     	call netftpmakedirectory
12676 2E1E              ; 202                         ThreadsTickNow();
12677 2E1E CD 41 14     	call threadsticknow
12678 2E21              ; 203                     #endif
12679 2E21              ; 204                     FtpMakeDirectoryClose();
12680 2E21 CD EF 2D     	call ftpmakedirectoryclose
12681 2E24 C3 38 2E     	jp __l_845
12682 2E27              __l_844:
12683 2E27              ; 205                 } else { // Переход в редактирование
12684 2E27              ; 206                     FtpMakeDirectoryByPosBoxValue();
12685 2E27 CD 72 2D     	call ftpmakedirectorybyposboxvalue
12686 2E2A              ; 207                     FtpMakeDirectoryByPosValue();
12687 2E2A CD 87 2D     	call ftpmakedirectorybyposvalue
12688 2E2D              ; 208                     EditFieldViewShow();
12689 2E2D CD C5 11     	call editfieldviewshow
12690 2E30              ; 209                     if (a == 1) { // что то изменилось
12691 2E30 FE 01        	cp 1
12692 2E32 C2 38 2E     	jp nz, __l_846
12693 2E35              ; 210                         FtpMakeDirectoryShowValue();
12694 2E35 CD 54 2D     	call ftpmakedirectoryshowvalue
12695 2E38              __l_846:
12696 2E38              __l_845:
12697 2E38 C3 54 2E     	jp __l_843
12698 2E3B              __l_842:
12699 2E3B              ; 211                     }
12700 2E3B              ; 212                 }
12701 2E3B              ; 213             } else if ((a = l) == 0x1A) { //down
12702 2E3B 7D           	ld a, l
12703 2E3C FE 1A        	cp 26
12704 2E3E C2 49 2E     	jp nz, __l_848
12705 2E41              ; 214                 FtpMakeDirectoryPosUpdateA(a = 0x01);
12706 2E41 3E 01        	ld a, 1
12707 2E43 CD B8 2D     	call ftpmakedirectoryposupdatea
12708 2E46 C3 54 2E     	jp __l_849
12709 2E49              __l_848:
12710 2E49              ; 215             } else if ((a = l) == 0x19) { //up
12711 2E49 7D           	ld a, l
12712 2E4A FE 19        	cp 25
12713 2E4C C2 54 2E     	jp nz, __l_850
12714 2E4F              ; 216                 FtpMakeDirectoryPosUpdateA(a = 0xFF);
12715 2E4F 3E FF        	ld a, 255
12716 2E51 CD B8 2D     	call ftpmakedirectoryposupdatea
12717 2E54              __l_850:
12718 2E54              __l_849:
12719 2E54              __l_843:
12720 2E54              __l_841:
12721 2E54              __l_838:
12722 2E54 E1           	pop hl
12723 2E55 C9           	ret
12724 2E56              ; 217             }
12725 2E56              ; 218         }
12726 2E56              ; 219     }
12727 2E56              ; 220 }
12728 2E56              ; 221
12729 2E56              ; 222 uint8_t FtpMakeDirectoryX = 14;
12730 2E56              ftpmakedirectoryx:
12731 2E56 0E           	db 14
12732 2E57              ; 223 uint8_t FtpMakeDirectoryY = 11;
12733 2E57              ftpmakedirectoryy:
12734 2E57 0B           	db 11
12735 2E58              ; 224 uint8_t FtpMakeDirectoryDX = 20;
12736 2E58              ftpmakedirectorydx:
12737 2E58 14           	db 20
12738 2E59              ; 225 uint8_t FtpMakeDirectoryDY = 12;
12739 2E59              ftpmakedirectorydy:
12740 2E59 0C           	db 12
12741 2E5A              ; 226 uint8_t FtpMakeDirectoryColor = 0x70;
12742 2E5A              ftpmakedirectorycolor:
12743 2E5A 70           	db 112
12744 2E5B              ; 227 uint8_t FtpMakeDirectoryInvColor = 0x07;
12745 2E5B              ftpmakedirectoryinvcolor:
12746 2E5B 07           	db 7
12747 2E5C              ; 229 uint8_t FtpMakeDirectoryTitle[] = "Make directory";
12748 2E5C              ftpmakedirectorytitle:
12749 2E5C 4D           	db 77
12750 2E5D 61           	db 97
12751 2E5E 6B           	db 107
12752 2E5F 65           	db 101
12753 2E60 20           	db 32
12754 2E61 64           	db 100
12755 2E62 69           	db 105
12756 2E63 72           	db 114
12757 2E64 65           	db 101
12758 2E65 63           	db 99
12759 2E66 74           	db 116
12760 2E67 6F           	db 111
12761 2E68 72           	db 114
12762 2E69 79           	db 121
12763 2E6A 00           	ds 1
12764 2E6B              ; 230 uint8_t FtpMakeDirectoryValue[16] = "New";
12765 2E6B              ftpmakedirectoryvalue:
12766 2E6B 4E           	db 78
12767 2E6C 65           	db 101
12768 2E6D 77           	db 119
12769 2E6E 00 00 00...  	ds 13
12770 2E7B              ; 232 uint8_t FtpMakeDirectorySelectPos = 0;
12771 2E7B              ftpmakedirectoryselectpos:
12772 2E7B 00           	db 0
12773 2E7C              ; 11 void HelpInfoViewShow() {
12774 2E7C              helpinfoviewshow:
12775 2E7C              ; 12     CurrentViewChangeAndPushIdA(a = HelpInfoViewId);
12776 2E7C 3E 0C        	ld a, 12
12777 2E7E CD 58 0F     	call currentviewchangeandpushida
12778 2E81              ; 13     push_pop(bc, hl, de) {
12779 2E81 C5           	push bc
12780 2E82 E5           	push hl
12781 2E83 D5           	push de
12782 2E84              ; 14         a = HelpInfoViewX;
12783 2E84 3A 72 2F     	ld a, (helpinfoviewx)
12784 2E87              ; 15         h = a;
12785 2E87 67           	ld h, a
12786 2E88              ; 16         a = HelpInfoViewY;
12787 2E88 3A 73 2F     	ld a, (helpinfoviewy)
12788 2E8B              ; 17         l = a;
12789 2E8B 6F           	ld l, a
12790 2E8C              ; 18         a = HelpInfoViewDX;
12791 2E8C 3A 74 2F     	ld a, (helpinfoviewdx)
12792 2E8F              ; 19         d = a;
12793 2E8F 57           	ld d, a
12794 2E90              ; 20         a = HelpInfoViewDY;
12795 2E90 3A 75 2F     	ld a, (helpinfoviewdy)
12796 2E93              ; 21         e = a;
12797 2E93 5F           	ld e, a
12798 2E94              ; 22         a = HelpInfoViewColor;
12799 2E94 3A 76 2F     	ld a, (helpinfoviewcolor)
12800 2E97              ; 23         c = a;
12801 2E97 4F           	ld c, a
12802 2E98              ; 24         a = vboxCLW;
12803 2E98 3E 40        	ld a, 64
12804 2E9A              ; 25         a |= vboxFRM;
12805 2E9A F6 20        	or 32
12806 2E9C              ; 26         a |= vboxSDW;
12807 2E9C F6 10        	or 16
12808 2E9E              ; 27         a |= vboxSAV;
12809 2E9E F6 08        	or 8
12810 2EA0              ; 28         a |= vboxUMP;
12811 2EA0 F6 04        	or 4
12812 2EA2              ; 29         vboxOpenHLDECA();
12813 2EA2 CD 6D 39     	call vboxopenhldeca
12814 2EA5 D1           	pop de
12815 2EA6 E1           	pop hl
12816 2EA7 C1           	pop bc
12817 2EA8              ; 30     }
12818 2EA8              ; 31     // Update HelpInfoViewStringY
12819 2EA8              ; 32     a = HelpInfoViewY;
12820 2EA8 3A 73 2F     	ld a, (helpinfoviewy)
12821 2EAB              ; 33     a += 3;
12822 2EAB C6 03        	add 3
12823 2EAD              ; 34     HelpInfoViewStringY = a;
12824 2EAD 32 77 2F     	ld (helpinfoviewstringy), a
12825 2EB0              ; 35     // Show
12826 2EB0              ; 36     HelpInfoViewShowTitle();
12827 2EB0 CD 16 2F     	call helpinfoviewshowtitle
12828 2EB3              ; 37     HelpInfoViewShowStringHL(hl = HelpInfoViewStrAll);
12829 2EB3 21 8A 2F     	ld hl, helpinfoviewstrall
12830 2EB6 CD 35 2F     	call helpinfoviewshowstringhl
12831 2EB9              ; 38     HelpInfoViewShowStringHL(hl = HelpInfoViewStrAll2);
12832 2EB9 21 AF 2F     	ld hl, helpinfoviewstrall2
12833 2EBC CD 35 2F     	call helpinfoviewshowstringhl
12834 2EBF              ; 39     HelpInfoViewShowNewLine();
12835 2EBF CD 2C 2F     	call helpinfoviewshownewline
12836 2EC2              ; 40     HelpInfoViewShowStringHL(hl = HelpInfoViewDiskHelp1);
12837 2EC2 21 B9 2F     	ld hl, helpinfoviewdiskhelp1
12838 2EC5 CD 35 2F     	call helpinfoviewshowstringhl
12839 2EC8              ; 41     HelpInfoViewShowStringHL(hl = HelpInfoViewDiskHelp2);
12840 2EC8 21 DD 2F     	ld hl, helpinfoviewdiskhelp2
12841 2ECB CD 35 2F     	call helpinfoviewshowstringhl
12842 2ECE              ; 42     HelpInfoViewShowNewLine();
12843 2ECE CD 2C 2F     	call helpinfoviewshownewline
12844 2ED1              ; 43     HelpInfoViewShowStringHL(hl = HelpInfoViewFTPHelp1);
12845 2ED1 21 F7 2F     	ld hl, helpinfoviewftphelp1
12846 2ED4 CD 35 2F     	call helpinfoviewshowstringhl
12847 2ED7              ; 44     HelpInfoViewShowStringHL(hl = HelpInfoViewFTPHelp2);
12848 2ED7 21 15 30     	ld hl, helpinfoviewftphelp2
12849 2EDA CD 35 2F     	call helpinfoviewshowstringhl
12850 2EDD              ; 45     HelpInfoViewShowStringHL(hl = HelpInfoViewFTPHelp3);
12851 2EDD 21 38 30     	ld hl, helpinfoviewftphelp3
12852 2EE0 CD 35 2F     	call helpinfoviewshowstringhl
12853 2EE3              ; 46     HelpInfoViewShowStringHL(hl = HelpInfoViewFTPHelp4);
12854 2EE3 21 5C 30     	ld hl, helpinfoviewftphelp4
12855 2EE6 CD 35 2F     	call helpinfoviewshowstringhl
12856 2EE9              ; 47     HelpInfoViewShowNewLine();
12857 2EE9 CD 2C 2F     	call helpinfoviewshownewline
12858 2EEC              ; 48     HelpInfoViewShowStringHL(hl = HelpInfoViewFooterHelp1);
12859 2EEC 21 7B 30     	ld hl, helpinfoviewfooterhelp1
12860 2EEF CD 35 2F     	call helpinfoviewshowstringhl
12861 2EF2              ; 49     HelpInfoViewShowNewLine();
12862 2EF2 CD 2C 2F     	call helpinfoviewshownewline
12863 2EF5              ; 50     HelpInfoViewShowStringHL(hl = HelpInfoViewFooterHelp2);
12864 2EF5 21 9F 30     	ld hl, helpinfoviewfooterhelp2
12865 2EF8 CD 35 2F     	call helpinfoviewshowstringhl
12866 2EFB              ; 51     HelpInfoViewShowStringHL(hl = HelpInfoViewFooterHelp3);
12867 2EFB 21 C2 30     	ld hl, helpinfoviewfooterhelp3
12868 2EFE CD 35 2F     	call helpinfoviewshowstringhl
12869 2F01              ; 52     HelpInfoViewShowStringHL(hl = HelpInfoViewFooterHelp4);
12870 2F01 21 E2 30     	ld hl, helpinfoviewfooterhelp4
12871 2F04 CD 35 2F     	call helpinfoviewshowstringhl
12872 2F07              ; 53     HelpInfoViewShowStringHL(hl = HelpInfoViewFooterHelp5);
12873 2F07 21 01 31     	ld hl, helpinfoviewfooterhelp5
12874 2F0A CD 35 2F     	call helpinfoviewshowstringhl
12875 2F0D              ; 54     HelpInfoViewShowNewLine();
12876 2F0D CD 2C 2F     	call helpinfoviewshownewline
12877 2F10              ; 55     HelpInfoViewShowStringHL(hl = HelpInfoViewGitHubHelp1);
12878 2F10 21 11 31     	ld hl, helpinfoviewgithubhelp1
12879 2F13 C3 35 2F     	jp helpinfoviewshowstringhl
12880 2F16              ; 56 }
12881 2F16              ; 57
12882 2F16              ; 58 void HelpInfoViewShowTitle() {
12883 2F16              helpinfoviewshowtitle:
12884 2F16              ; 59     a = HelpInfoViewY;
12885 2F16 3A 73 2F     	ld a, (helpinfoviewy)
12886 2F19              ; 60     a += 1;
12887 2F19 C6 01        	add 1
12888 2F1B              ; 61     myCharPosY = a;
12889 2F1B 32 E4 0E     	ld (mycharposy), a
12890 2F1E              ; 62     a = HelpInfoViewX;
12891 2F1E 3A 72 2F     	ld a, (helpinfoviewx)
12892 2F21              ; 63     a += 10;
12893 2F21 C6 0A        	add 10
12894 2F23              ; 64     myCharPosX = a;
12895 2F23 32 E3 0E     	ld (mycharposx), a
12896 2F26              ; 65     printMyHLStr(hl = HelpInfoViewTitle);
12897 2F26 21 78 2F     	ld hl, helpinfoviewtitle
12898 2F29 C3 ED 0C     	jp printmyhlstr
12899 2F2C              ; 66 }
12900 2F2C              ; 67
12901 2F2C              ; 68 void HelpInfoViewShowNewLine() {
12902 2F2C              helpinfoviewshownewline:
12903 2F2C              ; 69     a = HelpInfoViewStringY;
12904 2F2C 3A 77 2F     	ld a, (helpinfoviewstringy)
12905 2F2F              ; 70     a += 1;
12906 2F2F C6 01        	add 1
12907 2F31              ; 71     HelpInfoViewStringY = a;
12908 2F31 32 77 2F     	ld (helpinfoviewstringy), a
12909 2F34 C9           	ret
12910 2F35              ; 72 }
12911 2F35              ; 73
12912 2F35              ; 74 void HelpInfoViewShowStringHL() {
12913 2F35              helpinfoviewshowstringhl:
12914 2F35              ; 75     //Set Y
12915 2F35              ; 76     a = HelpInfoViewStringY;
12916 2F35 3A 77 2F     	ld a, (helpinfoviewstringy)
12917 2F38              ; 77     myCharPosY = a;
12918 2F38 32 E4 0E     	ld (mycharposy), a
12919 2F3B              ; 78     a += 1;
12920 2F3B C6 01        	add 1
12921 2F3D              ; 79     HelpInfoViewStringY = a;
12922 2F3D 32 77 2F     	ld (helpinfoviewstringy), a
12923 2F40              ; 80     //Set X
12924 2F40              ; 81     a = HelpInfoViewX;
12925 2F40 3A 72 2F     	ld a, (helpinfoviewx)
12926 2F43              ; 82     a += 1;
12927 2F43 C6 01        	add 1
12928 2F45              ; 83     myCharPosX = a;
12929 2F45 32 E3 0E     	ld (mycharposx), a
12930 2F48              ; 84     // Str
12931 2F48              ; 85     printMyHLStr();
12932 2F48 C3 ED 0C     	jp printmyhlstr
12933 2F4B              ; 86 }
12934 2F4B              ; 87
12935 2F4B              ; 88 void HelpInfoViewKeyA() {
12936 2F4B              helpinfoviewkeya:
12937 2F4B              ; 89     push_pop(hl) {
12938 2F4B E5           	push hl
12939 2F4C              ; 90         l = a;
12940 2F4C 6F           	ld l, a
12941 2F4D              ; 91         if ((a = CurrentViewId) == HelpInfoViewId) {
12942 2F4D 3A 8F 10     	ld a, (currentviewid)
12943 2F50 FE 0C        	cp 12
12944 2F52 C2 70 2F     	jp nz, __l_852
12945 2F55              ; 92             if ((a = l) == 0x1B) { //ESC выход
12946 2F55 7D           	ld a, l
12947 2F56 FE 1B        	cp 27
12948 2F58 C2 64 2F     	jp nz, __l_854
12949 2F5B              ; 93                 vboxClose();
12950 2F5B CD 86 3A     	call vboxclose
12951 2F5E              ; 94                 CurrentViewReturn();
12952 2F5E CD 4F 10     	call currentviewreturn
12953 2F61 C3 70 2F     	jp __l_855
12954 2F64              __l_854:
12955 2F64              ; 95             } else if ((a = l) == 0x0D) { // Выбор диска
12956 2F64 7D           	ld a, l
12957 2F65 FE 0D        	cp 13
12958 2F67 C2 70 2F     	jp nz, __l_856
12959 2F6A              ; 96                 vboxClose();
12960 2F6A CD 86 3A     	call vboxclose
12961 2F6D              ; 97                 CurrentViewReturn();
12962 2F6D CD 4F 10     	call currentviewreturn
12963 2F70              __l_856:
12964 2F70              __l_855:
12965 2F70              __l_852:
12966 2F70 E1           	pop hl
12967 2F71 C9           	ret
12968 2F72              ; 98             }
12969 2F72              ; 99         }
12970 2F72              ; 100     }
12971 2F72              ; 101 }
12972 2F72              ; 102
12973 2F72              ; 103 uint8_t HelpInfoViewX = 5;
12974 2F72              helpinfoviewx:
12975 2F72 05           	db 5
12976 2F73              ; 104 uint8_t HelpInfoViewY = 5;
12977 2F73              helpinfoviewy:
12978 2F73 05           	db 5
12979 2F74              ; 105 uint8_t HelpInfoViewDX = 38;
12980 2F74              helpinfoviewdx:
12981 2F74 26           	db 38
12982 2F75              ; 106 uint8_t HelpInfoViewDY = 23;
12983 2F75              helpinfoviewdy:
12984 2F75 17           	db 23
12985 2F76              ; 107 uint8_t HelpInfoViewColor = 0x70;
12986 2F76              helpinfoviewcolor:
12987 2F76 70           	db 112
12988 2F77              ; 109 uint8_t HelpInfoViewStringY = 0;
12989 2F77              helpinfoviewstringy:
12990 2F77 00           	db 0
12991 2F78              ; 111 uint8_t HelpInfoViewTitle[] = "kFTP-2 Ver: 0.0.4";
12992 2F78              helpinfoviewtitle:
12993 2F78 6B           	db 107
12994 2F79 46           	db 70
12995 2F7A 54           	db 84
12996 2F7B 50           	db 80
12997 2F7C 2D           	db 45
12998 2F7D 32           	db 50
12999 2F7E 20           	db 32
13000 2F7F 56           	db 86
13001 2F80 65           	db 101
13002 2F81 72           	db 114
13003 2F82 3A           	db 58
13004 2F83 20           	db 32
13005 2F84 30           	db 48
13006 2F85 2E           	db 46
13007 2F86 30           	db 48
13008 2F87 2E           	db 46
13009 2F88 34           	db 52
13010 2F89 00           	ds 1
13011 2F8A              ; 114 uint8_t HelpInfoViewStrAll[] = {0x8E,0xA1,0xE9,0xA5,0xA5,0x3A,0x20,0x8E,0xE2,0xAC,0xA5,0xAD,0xA0,0x20,0xA4,0xA5,0xA9,0xE1,0xE2,0xA8,0xEF,0x2D,0x20,0x45,0x53,0x43,0x2C,0x20,0xE3,0xA4,0xA0,0xAB,0xA5,0xAD,0xA8,0xA5,0x00};
13012 2F8A              helpinfoviewstrall:
13013 2F8A 8E           	db 142
13014 2F8B A1           	db 161
13015 2F8C E9           	db 233
13016 2F8D A5           	db 165
13017 2F8E A5           	db 165
13018 2F8F 3A           	db 58
13019 2F90 20           	db 32
13020 2F91 8E           	db 142
13021 2F92 E2           	db 226
13022 2F93 AC           	db 172
13023 2F94 A5           	db 165
13024 2F95 AD           	db 173
13025 2F96 A0           	db 160
13026 2F97 20           	db 32
13027 2F98 A4           	db 164
13028 2F99 A5           	db 165
13029 2F9A A9           	db 169
13030 2F9B E1           	db 225
13031 2F9C E2           	db 226
13032 2F9D A8           	db 168
13033 2F9E EF           	db 239
13034 2F9F 2D           	db 45
13035 2FA0 20           	db 32
13036 2FA1 45           	db 69
13037 2FA2 53           	db 83
13038 2FA3 43           	db 67
13039 2FA4 2C           	db 44
13040 2FA5 20           	db 32
13041 2FA6 E3           	db 227
13042 2FA7 A4           	db 164
13043 2FA8 A0           	db 160
13044 2FA9 AB           	db 171
13045 2FAA A5           	db 165
13046 2FAB AD           	db 173
13047 2FAC A8           	db 168
13048 2FAD A5           	db 165
13049 2FAE 00           	db 0
13050 2FAF              ; 116 uint8_t HelpInfoViewStrAll2[] = {0xE4,0xA0,0xA9,0xAB,0xA0,0x20,0x2D,0x20,0x45,0x00};
13051 2FAF              helpinfoviewstrall2:
13052 2FAF E4           	db 228
13053 2FB0 A0           	db 160
13054 2FB1 A9           	db 169
13055 2FB2 AB           	db 171
13056 2FB3 A0           	db 160
13057 2FB4 20           	db 32
13058 2FB5 2D           	db 45
13059 2FB6 20           	db 32
13060 2FB7 45           	db 69
13061 2FB8 00           	db 0
13062 2FB9              ; 119 uint8_t HelpInfoViewDiskHelp1[] = {0x84,0xA8,0xE1,0xAA,0x3A,0x20,0x91,0xAC,0xA5,0xAD,0xA0,0x20,0xA4,0xA8,0xE1,0xAA,0xA0,0x20,0x82,0x82,0x8E,0x84,0x20,0xAD,0xA0,0x20,0x2E,0x2E,0x20,0xA8,0xAB,0xA8,0x20,0x44,0x2C,0x00};
13063 2FB9              helpinfoviewdiskhelp1:
13064 2FB9 84           	db 132
13065 2FBA A8           	db 168
13066 2FBB E1           	db 225
13067 2FBC AA           	db 170
13068 2FBD 3A           	db 58
13069 2FBE 20           	db 32
13070 2FBF 91           	db 145
13071 2FC0 AC           	db 172
13072 2FC1 A5           	db 165
13073 2FC2 AD           	db 173
13074 2FC3 A0           	db 160
13075 2FC4 20           	db 32
13076 2FC5 A4           	db 164
13077 2FC6 A8           	db 168
13078 2FC7 E1           	db 225
13079 2FC8 AA           	db 170
13080 2FC9 A0           	db 160
13081 2FCA 20           	db 32
13082 2FCB 82           	db 130
13083 2FCC 82           	db 130
13084 2FCD 8E           	db 142
13085 2FCE 84           	db 132
13086 2FCF 20           	db 32
13087 2FD0 AD           	db 173
13088 2FD1 A0           	db 160
13089 2FD2 20           	db 32
13090 2FD3 2E           	db 46
13091 2FD4 2E           	db 46
13092 2FD5 20           	db 32
13093 2FD6 A8           	db 168
13094 2FD7 AB           	db 171
13095 2FD8 A8           	db 168
13096 2FD9 20           	db 32
13097 2FDA 44           	db 68
13098 2FDB 2C           	db 44
13099 2FDC 00           	db 0
13100 2FDD              ; 122 uint8_t HelpInfoViewDiskHelp2[] = {0xA7,0xA0,0xA3,0xE0,0xE3,0xA7,0xAA,0xA0,0x20,0xE4,0xA0,0xA9,0xAB,0xA0,0x20,0xAD,0xA0,0x20,0x46,0x54,0x50,0x20,0x2D,0x20,0x43,0x00};
13101 2FDD              helpinfoviewdiskhelp2:
13102 2FDD A7           	db 167
13103 2FDE A0           	db 160
13104 2FDF A3           	db 163
13105 2FE0 E0           	db 224
13106 2FE1 E3           	db 227
13107 2FE2 A7           	db 167
13108 2FE3 AA           	db 170
13109 2FE4 A0           	db 160
13110 2FE5 20           	db 32
13111 2FE6 E4           	db 228
13112 2FE7 A0           	db 160
13113 2FE8 A9           	db 169
13114 2FE9 AB           	db 171
13115 2FEA A0           	db 160
13116 2FEB 20           	db 32
13117 2FEC AD           	db 173
13118 2FED A0           	db 160
13119 2FEE 20           	db 32
13120 2FEF 46           	db 70
13121 2FF0 54           	db 84
13122 2FF1 50           	db 80
13123 2FF2 20           	db 32
13124 2FF3 2D           	db 45
13125 2FF4 20           	db 32
13126 2FF5 43           	db 67
13127 2FF6 00           	db 0
13128 2FF7              ; 125 uint8_t HelpInfoViewFTPHelp1[] = {0x46,0x54,0x50,0x3A,0x20,0x91,0xAA,0xA0,0xE7,0xA0,0xE2,0xEC,0x20,0xE4,0xA0,0xA9,0xAB,0x20,0x43,0x20,0xA8,0xAB,0xA8,0x20,0x82,0x82,0x8E,0x84,0x2C,0x00};
13129 2FF7              helpinfoviewftphelp1:
13130 2FF7 46           	db 70
13131 2FF8 54           	db 84
13132 2FF9 50           	db 80
13133 2FFA 3A           	db 58
13134 2FFB 20           	db 32
13135 2FFC 91           	db 145
13136 2FFD AA           	db 170
13137 2FFE A0           	db 160
13138 2FFF E7           	db 231
13139 3000 A0           	db 160
13140 3001 E2           	db 226
13141 3002 EC           	db 236
13142 3003 20           	db 32
13143 3004 E4           	db 228
13144 3005 A0           	db 160
13145 3006 A9           	db 169
13146 3007 AB           	db 171
13147 3008 20           	db 32
13148 3009 43           	db 67
13149 300A 20           	db 32
13150 300B A8           	db 168
13151 300C AB           	db 171
13152 300D A8           	db 168
13153 300E 20           	db 32
13154 300F 82           	db 130
13155 3010 82           	db 130
13156 3011 8E           	db 142
13157 3012 84           	db 132
13158 3013 2C           	db 44
13159 3014 00           	db 0
13160 3015              ; 128 uint8_t HelpInfoViewFTPHelp2[] = {0xAE,0xA1,0xAD,0xAE,0xA2,0xAB,0xA5,0xAD,0xA8,0xA5,0x20,0xE2,0xA5,0xAA,0xE3,0xE9,0xA5,0xA9,0x20,0xA4,0xA8,0xE0,0xA5,0xAA,0xE2,0xAE,0xE0,0xA8,0xA8,0x20,0x2D,0x20,0x52,0x2C,0x00};
13161 3015              helpinfoviewftphelp2:
13162 3015 AE           	db 174
13163 3016 A1           	db 161
13164 3017 AD           	db 173
13165 3018 AE           	db 174
13166 3019 A2           	db 162
13167 301A AB           	db 171
13168 301B A5           	db 165
13169 301C AD           	db 173
13170 301D A8           	db 168
13171 301E A5           	db 165
13172 301F 20           	db 32
13173 3020 E2           	db 226
13174 3021 A5           	db 165
13175 3022 AA           	db 170
13176 3023 E3           	db 227
13177 3024 E9           	db 233
13178 3025 A5           	db 165
13179 3026 A9           	db 169
13180 3027 20           	db 32
13181 3028 A4           	db 164
13182 3029 A8           	db 168
13183 302A E0           	db 224
13184 302B A5           	db 165
13185 302C AA           	db 170
13186 302D E2           	db 226
13187 302E AE           	db 174
13188 302F E0           	db 224
13189 3030 A8           	db 168
13190 3031 A8           	db 168
13191 3032 20           	db 32
13192 3033 2D           	db 45
13193 3034 20           	db 32
13194 3035 52           	db 82
13195 3036 2C           	db 44
13196 3037 00           	db 0
13197 3038              ; 131 uint8_t HelpInfoViewFTPHelp3[] = {0xAF,0xA5,0xE0,0xA5,0xA9,0xE2,0xA8,0x20,0xAD,0xA0,0x20,0xA4,0xAE,0xAC,0xA0,0xE8,0xAD,0xE3,0xEE,0x20,0xA4,0xA8,0xE0,0xA5,0xAA,0xE2,0xAE,0xE0,0xA8,0xEE,0x20,0x2D,0x20,0x48,0x2C,0x00};
13198 3038              helpinfoviewftphelp3:
13199 3038 AF           	db 175
13200 3039 A5           	db 165
13201 303A E0           	db 224
13202 303B A5           	db 165
13203 303C A9           	db 169
13204 303D E2           	db 226
13205 303E A8           	db 168
13206 303F 20           	db 32
13207 3040 AD           	db 173
13208 3041 A0           	db 160
13209 3042 20           	db 32
13210 3043 A4           	db 164
13211 3044 AE           	db 174
13212 3045 AC           	db 172
13213 3046 A0           	db 160
13214 3047 E8           	db 232
13215 3048 AD           	db 173
13216 3049 E3           	db 227
13217 304A EE           	db 238
13218 304B 20           	db 32
13219 304C A4           	db 164
13220 304D A8           	db 168
13221 304E E0           	db 224
13222 304F A5           	db 165
13223 3050 AA           	db 170
13224 3051 E2           	db 226
13225 3052 AE           	db 174
13226 3053 E0           	db 224
13227 3054 A8           	db 168
13228 3055 EE           	db 238
13229 3056 20           	db 32
13230 3057 2D           	db 45
13231 3058 20           	db 32
13232 3059 48           	db 72
13233 305A 2C           	db 44
13234 305B 00           	db 0
13235 305C              ; 134 uint8_t HelpInfoViewFTPHelp4[] = {0xE1,0xAE,0xA7,0xA4,0xA0,0xAD,0xA8,0xA5,0x20,0xAD,0xAE,0xA2,0xAE,0xA9,0x20,0xA4,0xA8,0xE0,0xA5,0xAA,0xE2,0xAE,0xE0,0xA8,0xA8,0x20,0x2D,0x20,0x44,0x2C,0x00};
13236 305C              helpinfoviewftphelp4:
13237 305C E1           	db 225
13238 305D AE           	db 174
13239 305E A7           	db 167
13240 305F A4           	db 164
13241 3060 A0           	db 160
13242 3061 AD           	db 173
13243 3062 A8           	db 168
13244 3063 A5           	db 165
13245 3064 20           	db 32
13246 3065 AD           	db 173
13247 3066 AE           	db 174
13248 3067 A2           	db 162
13249 3068 AE           	db 174
13250 3069 A9           	db 169
13251 306A 20           	db 32
13252 306B A4           	db 164
13253 306C A8           	db 168
13254 306D E0           	db 224
13255 306E A5           	db 165
13256 306F AA           	db 170
13257 3070 E2           	db 226
13258 3071 AE           	db 174
13259 3072 E0           	db 224
13260 3073 A8           	db 168
13261 3074 A8           	db 168
13262 3075 20           	db 32
13263 3076 2D           	db 45
13264 3077 20           	db 32
13265 3078 44           	db 68
13266 3079 2C           	db 44
13267 307A 00           	db 0
13268 307B              ; 137 uint8_t HelpInfoViewFooterHelp1[] = {0x82,0x8D,0x88,0x8C,0x80,0x8D,0x88,0x85,0x21,0x20,0x90,0xE3,0xE1,0xE1,0xAA,0xA8,0xA5,0x20,0xA1,0xE3,0xAA,0xA2,0xEB,0x20,0xAD,0xA5,0x20,0xA2,0xA2,0xAE,0xA4,0xA8,0xE2,0xEC,0x21,0x00};
13269 307B              helpinfoviewfooterhelp1:
13270 307B 82           	db 130
13271 307C 8D           	db 141
13272 307D 88           	db 136
13273 307E 8C           	db 140
13274 307F 80           	db 128
13275 3080 8D           	db 141
13276 3081 88           	db 136
13277 3082 85           	db 133
13278 3083 21           	db 33
13279 3084 20           	db 32
13280 3085 90           	db 144
13281 3086 E3           	db 227
13282 3087 E1           	db 225
13283 3088 E1           	db 225
13284 3089 AA           	db 170
13285 308A A8           	db 168
13286 308B A5           	db 165
13287 308C 20           	db 32
13288 308D A1           	db 161
13289 308E E3           	db 227
13290 308F AA           	db 170
13291 3090 A2           	db 162
13292 3091 EB           	db 235
13293 3092 20           	db 32
13294 3093 AD           	db 173
13295 3094 A5           	db 165
13296 3095 20           	db 32
13297 3096 A2           	db 162
13298 3097 A2           	db 162
13299 3098 AE           	db 174
13300 3099 A4           	db 164
13301 309A A8           	db 168
13302 309B E2           	db 226
13303 309C EC           	db 236
13304 309D 21           	db 33
13305 309E 00           	db 0
13306 309F              ; 140 uint8_t HelpInfoViewFooterHelp2[] = {0x28,0x8F,0xAE,0xA4,0xA4,0xA5,0xE0,0xA6,0xAA,0xA0,0x20,0xE0,0xE3,0xE1,0xE1,0xAA,0xA8,0xE5,0x20,0xA1,0xE3,0xAA,0xA2,0x20,0xE2,0xAE,0xAB,0xEC,0xAA,0xAE,0x20,0xA4,0xAB,0xEF,0x00};
13307 309F              helpinfoviewfooterhelp2:
13308 309F 28           	db 40
13309 30A0 8F           	db 143
13310 30A1 AE           	db 174
13311 30A2 A4           	db 164
13312 30A3 A4           	db 164
13313 30A4 A5           	db 165
13314 30A5 E0           	db 224
13315 30A6 A6           	db 166
13316 30A7 AA           	db 170
13317 30A8 A0           	db 160
13318 30A9 20           	db 32
13319 30AA E0           	db 224
13320 30AB E3           	db 227
13321 30AC E1           	db 225
13322 30AD E1           	db 225
13323 30AE AA           	db 170
13324 30AF A8           	db 168
13325 30B0 E5           	db 229
13326 30B1 20           	db 32
13327 30B2 A1           	db 161
13328 30B3 E3           	db 227
13329 30B4 AA           	db 170
13330 30B5 A2           	db 162
13331 30B6 20           	db 32
13332 30B7 E2           	db 226
13333 30B8 AE           	db 174
13334 30B9 AB           	db 171
13335 30BA EC           	db 236
13336 30BB AA           	db 170
13337 30BC AE           	db 174
13338 30BD 20           	db 32
13339 30BE A4           	db 164
13340 30BF AB           	db 171
13341 30C0 EF           	db 239
13342 30C1 00           	db 0
13343 30C2              ; 143 uint8_t HelpInfoViewFooterHelp3[] = {0xAE,0xE2,0xAE,0xA1,0xE0,0xA0,0xA6,0xA5,0xAD,0xA8,0xEF,0x20,0xA4,0xA8,0xE0,0xA5,0xAA,0xE2,0xAE,0xE0,0xA8,0xA9,0x20,0xA8,0x20,0xE4,0xA0,0xA9,0xAB,0xAE,0xA2,0x00};
13344 30C2              helpinfoviewfooterhelp3:
13345 30C2 AE           	db 174
13346 30C3 E2           	db 226
13347 30C4 AE           	db 174
13348 30C5 A1           	db 161
13349 30C6 E0           	db 224
13350 30C7 A0           	db 160
13351 30C8 A6           	db 166
13352 30C9 A5           	db 165
13353 30CA AD           	db 173
13354 30CB A8           	db 168
13355 30CC EF           	db 239
13356 30CD 20           	db 32
13357 30CE A4           	db 164
13358 30CF A8           	db 168
13359 30D0 E0           	db 224
13360 30D1 A5           	db 165
13361 30D2 AA           	db 170
13362 30D3 E2           	db 226
13363 30D4 AE           	db 174
13364 30D5 E0           	db 224
13365 30D6 A8           	db 168
13366 30D7 A9           	db 169
13367 30D8 20           	db 32
13368 30D9 A8           	db 168
13369 30DA 20           	db 32
13370 30DB E4           	db 228
13371 30DC A0           	db 160
13372 30DD A9           	db 169
13373 30DE AB           	db 171
13374 30DF AE           	db 174
13375 30E0 A2           	db 162
13376 30E1 00           	db 0
13377 30E2              ; 146 uint8_t HelpInfoViewFooterHelp4[] = {0xAD,0xA0,0xE5,0xAE,0xA4,0xEF,0xE9,0xA8,0xE5,0xE1,0xEF,0x20,0xAD,0xA0,0x20,0x46,0x54,0x50,0x2C,0x20,0xAF,0xE0,0xA8,0x20,0xE0,0xA0,0xA1,0xAE,0xE2,0xA5,0x00};
13378 30E2              helpinfoviewfooterhelp4:
13379 30E2 AD           	db 173
13380 30E3 A0           	db 160
13381 30E4 E5           	db 229
13382 30E5 AE           	db 174
13383 30E6 A4           	db 164
13384 30E7 EF           	db 239
13385 30E8 E9           	db 233
13386 30E9 A8           	db 168
13387 30EA E5           	db 229
13388 30EB E1           	db 225
13389 30EC EF           	db 239
13390 30ED 20           	db 32
13391 30EE AD           	db 173
13392 30EF A0           	db 160
13393 30F0 20           	db 32
13394 30F1 46           	db 70
13395 30F2 54           	db 84
13396 30F3 50           	db 80
13397 30F4 2C           	db 44
13398 30F5 20           	db 32
13399 30F6 AF           	db 175
13400 30F7 E0           	db 224
13401 30F8 A8           	db 168
13402 30F9 20           	db 32
13403 30FA E0           	db 224
13404 30FB A0           	db 160
13405 30FC A1           	db 161
13406 30FD AE           	db 174
13407 30FE E2           	db 226
13408 30FF A5           	db 165
13409 3100 00           	db 0
13410 3101              ; 149 uint8_t HelpInfoViewFooterHelp5[] = {0xE1,0xA5,0xE0,0xA2,0xA5,0xE0,0xA0,0x20,0xA2,0x20,0x55,0x54,0x46,0x38,0x29,0x00};
13411 3101              helpinfoviewfooterhelp5:
13412 3101 E1           	db 225
13413 3102 A5           	db 165
13414 3103 E0           	db 224
13415 3104 A2           	db 162
13416 3105 A5           	db 165
13417 3106 E0           	db 224
13418 3107 A0           	db 160
13419 3108 20           	db 32
13420 3109 A2           	db 162
13421 310A 20           	db 32
13422 310B 55           	db 85
13423 310C 54           	db 84
13424 310D 46           	db 70
13425 310E 38           	db 56
13426 310F 29           	db 41
13427 3110 00           	db 0
13428 3111              ; 151 uint8_t HelpInfoViewGitHubHelp1[] = "https://github.com/KhimuninAA/kFTP-2";
13429 3111              helpinfoviewgithubhelp1:
13430 3111 68           	db 104
13431 3112 74           	db 116
13432 3113 74           	db 116
13433 3114 70           	db 112
13434 3115 73           	db 115
13435 3116 3A           	db 58
13436 3117 2F           	db 47
13437 3118 2F           	db 47
13438 3119 67           	db 103
13439 311A 69           	db 105
13440 311B 74           	db 116
13441 311C 68           	db 104
13442 311D 75           	db 117
13443 311E 62           	db 98
13444 311F 2E           	db 46
13445 3120 63           	db 99
13446 3121 6F           	db 111
13447 3122 6D           	db 109
13448 3123 2F           	db 47
13449 3124 4B           	db 75
13450 3125 68           	db 104
13451 3126 69           	db 105
13452 3127 6D           	db 109
13453 3128 75           	db 117
13454 3129 6E           	db 110
13455 312A 69           	db 105
13456 312B 6E           	db 110
13457 312C 41           	db 65
13458 312D 41           	db 65
13459 312E 2F           	db 47
13460 312F 6B           	db 107
13461 3130 46           	db 70
13462 3131 54           	db 84
13463 3132 50           	db 80
13464 3133 2D           	db 45
13465 3134 32           	db 50
13466 3135 00           	ds 1
13467 3136              ; 11 void ESPErrorParserA() {
13468 3136              esperrorparsera:
13469 3136              ; 12     if (a > 0) {
13470 3136 B7           	or a
13471 3137 CA 6A 31     	jp z, __l_858
13472 313A              ; 13         push_pop(bc) {
13473 313A C5           	push bc
13474 313B              ; 14             b = a;
13475 313B 47           	ld b, a
13476 313C              ; 15             if ((a = b) == ESPError_FtpDeleteFileError) {
13477 313C 78           	ld a, b
13478 313D FE 01        	cp 1
13479 313F C2 4B 31     	jp nz, __l_860
13480 3142              ; 16                 AllertOkViewShowHL(hl = StringLocaleNetFtpDeleteFileError);
13481 3142 21 D1 10     	ld hl, stringlocalenetftpdeletefileerro
13482 3145 CD ED 2B     	call allertokviewshowhl
13483 3148 C3 66 31     	jp __l_861
13484 314B              __l_860:
13485 314B              ; 17             } else if ((a = b) == ESPError_FtpConnectError) {
13486 314B 78           	ld a, b
13487 314C FE 02        	cp 2
13488 314E C2 5A 31     	jp nz, __l_862
13489 3151              ; 18                 AllertOkViewShowHL(hl = StringLocaleNetFtpConnectError);
13490 3151 21 E5 10     	ld hl, stringlocalenetftpconnecterror
13491 3154 CD ED 2B     	call allertokviewshowhl
13492 3157 C3 66 31     	jp __l_863
13493 315A              __l_862:
13494 315A              ; 19             } else if ((a = b) == ESPError_WiFiConnectError) {
13495 315A 78           	ld a, b
13496 315B FE 03        	cp 3
13497 315D C2 66 31     	jp nz, __l_864
13498 3160              ; 20                 AllertOkViewShowHL(hl = StringLocaleNetWiFiConnectError);
13499 3160 21 F7 10     	ld hl, stringlocalenetwificonnecterror
13500 3163 CD ED 2B     	call allertokviewshowhl
13501 3166              __l_864:
13502 3166              __l_863:
13503 3166              __l_861:
13504 3166 C1           	pop bc
13505 3167              ; 21             }
13506 3167              ; 22         }
13507 3167              ; 23         // Сброс ошибки
13508 3167              ; 24         NetErrorClear();
13509 3167 CD 97 05     	call neterrorclear
13510 316A              __l_858:
13511 316A C9           	ret
13512 316B              ; 1 unsigned char FONT_8_8_RUS[] = {
13513 316B              font_8_8_rus:
13514 316B 00           	db 0
13515 316C 00           	db 0
13516 316D 00           	db 0
13517 316E 00           	db 0
13518 316F 00           	db 0
13519 3170 00           	db 0
13520 3171 00           	db 0
13521 3172 00           	db 0
13522 3173 7E           	db 126
13523 3174 81           	db 129
13524 3175 A5           	db 165
13525 3176 81           	db 129
13526 3177 BD           	db 189
13527 3178 99           	db 153
13528 3179 81           	db 129
13529 317A 7E           	db 126
13530 317B 7E           	db 126
13531 317C FF           	db 255
13532 317D DB           	db 219
13533 317E FF           	db 255
13534 317F C3           	db 195
13535 3180 E7           	db 231
13536 3181 FF           	db 255
13537 3182 7E           	db 126
13538 3183 6C           	db 108
13539 3184 FE           	db 254
13540 3185 FE           	db 254
13541 3186 FE           	db 254
13542 3187 7C           	db 124
13543 3188 38           	db 56
13544 3189 10           	db 16
13545 318A 00           	db 0
13546 318B 10           	db 16
13547 318C 38           	db 56
13548 318D 7C           	db 124
13549 318E FE           	db 254
13550 318F 7C           	db 124
13551 3190 38           	db 56
13552 3191 10           	db 16
13553 3192 00           	db 0
13554 3193 38           	db 56
13555 3194 7C           	db 124
13556 3195 38           	db 56
13557 3196 FE           	db 254
13558 3197 FE           	db 254
13559 3198 D6           	db 214
13560 3199 10           	db 16
13561 319A 38           	db 56
13562 319B 10           	db 16
13563 319C 10           	db 16
13564 319D 38           	db 56
13565 319E 7C           	db 124
13566 319F FE           	db 254
13567 31A0 7C           	db 124
13568 31A1 10           	db 16
13569 31A2 38           	db 56
13570 31A3 00           	db 0
13571 31A4 00           	db 0
13572 31A5 18           	db 24
13573 31A6 3C           	db 60
13574 31A7 3C           	db 60
13575 31A8 18           	db 24
13576 31A9 00           	db 0
13577 31AA 00           	db 0
13578 31AB FF           	db 255
13579 31AC FF           	db 255
13580 31AD E7           	db 231
13581 31AE C3           	db 195
13582 31AF C3           	db 195
13583 31B0 E7           	db 231
13584 31B1 FF           	db 255
13585 31B2 FF           	db 255
13586 31B3 00           	db 0
13587 31B4 3C           	db 60
13588 31B5 66           	db 102
13589 31B6 42           	db 66
13590 31B7 42           	db 66
13591 31B8 66           	db 102
13592 31B9 3C           	db 60
13593 31BA 00           	db 0
13594 31BB FF           	db 255
13595 31BC C3           	db 195
13596 31BD 99           	db 153
13597 31BE BD           	db 189
13598 31BF BD           	db 189
13599 31C0 99           	db 153
13600 31C1 C3           	db 195
13601 31C2 FF           	db 255
13602 31C3 0F           	db 15
13603 31C4 07           	db 7
13604 31C5 0F           	db 15
13605 31C6 7D           	db 125
13606 31C7 CC           	db 204
13607 31C8 CC           	db 204
13608 31C9 CC           	db 204
13609 31CA 78           	db 120
13610 31CB 3C           	db 60
13611 31CC 66           	db 102
13612 31CD 66           	db 102
13613 31CE 66           	db 102
13614 31CF 3C           	db 60
13615 31D0 18           	db 24
13616 31D1 7E           	db 126
13617 31D2 18           	db 24
13618 31D3 3F           	db 63
13619 31D4 33           	db 51
13620 31D5 3F           	db 63
13621 31D6 30           	db 48
13622 31D7 30           	db 48
13623 31D8 70           	db 112
13624 31D9 F0           	db 240
13625 31DA E0           	db 224
13626 31DB 7F           	db 127
13627 31DC 63           	db 99
13628 31DD 7F           	db 127
13629 31DE 63           	db 99
13630 31DF 63           	db 99
13631 31E0 67           	db 103
13632 31E1 E6           	db 230
13633 31E2 C0           	db 192
13634 31E3 18           	db 24
13635 31E4 DB           	db 219
13636 31E5 3C           	db 60
13637 31E6 E7           	db 231
13638 31E7 E7           	db 231
13639 31E8 3C           	db 60
13640 31E9 DB           	db 219
13641 31EA 18           	db 24
13642 31EB 80           	db 128
13643 31EC E0           	db 224
13644 31ED F8           	db 248
13645 31EE FE           	db 254
13646 31EF F8           	db 248
13647 31F0 E0           	db 224
13648 31F1 80           	db 128
13649 31F2 00           	db 0
13650 31F3 02           	db 2
13651 31F4 0E           	db 14
13652 31F5 3E           	db 62
13653 31F6 FE           	db 254
13654 31F7 3E           	db 62
13655 31F8 0E           	db 14
13656 31F9 02           	db 2
13657 31FA 00           	db 0
13658 31FB 18           	db 24
13659 31FC 3C           	db 60
13660 31FD 7E           	db 126
13661 31FE 18           	db 24
13662 31FF 18           	db 24
13663 3200 7E           	db 126
13664 3201 3C           	db 60
13665 3202 18           	db 24
13666 3203 66           	db 102
13667 3204 66           	db 102
13668 3205 66           	db 102
13669 3206 66           	db 102
13670 3207 66           	db 102
13671 3208 00           	db 0
13672 3209 66           	db 102
13673 320A 00           	db 0
13674 320B 7F           	db 127
13675 320C DB           	db 219
13676 320D DB           	db 219
13677 320E 7B           	db 123
13678 320F 1B           	db 27
13679 3210 1B           	db 27
13680 3211 1B           	db 27
13681 3212 00           	db 0
13682 3213 3C           	db 60
13683 3214 60           	db 96
13684 3215 3C           	db 60
13685 3216 66           	db 102
13686 3217 66           	db 102
13687 3218 3C           	db 60
13688 3219 06           	db 6
13689 321A 3C           	db 60
13690 321B 00           	db 0
13691 321C 00           	db 0
13692 321D 00           	db 0
13693 321E 00           	db 0
13694 321F 7E           	db 126
13695 3220 7E           	db 126
13696 3221 7E           	db 126
13697 3222 00           	db 0
13698 3223 18           	db 24
13699 3224 3C           	db 60
13700 3225 7E           	db 126
13701 3226 18           	db 24
13702 3227 7E           	db 126
13703 3228 3C           	db 60
13704 3229 18           	db 24
13705 322A 7E           	db 126
13706 322B 18           	db 24
13707 322C 3C           	db 60
13708 322D 7E           	db 126
13709 322E 18           	db 24
13710 322F 18           	db 24
13711 3230 18           	db 24
13712 3231 18           	db 24
13713 3232 00           	db 0
13714 3233 18           	db 24
13715 3234 18           	db 24
13716 3235 18           	db 24
13717 3236 18           	db 24
13718 3237 7E           	db 126
13719 3238 3C           	db 60
13720 3239 18           	db 24
13721 323A 00           	db 0
13722 323B 00           	db 0
13723 323C 18           	db 24
13724 323D 0C           	db 12
13725 323E FE           	db 254
13726 323F 0C           	db 12
13727 3240 18           	db 24
13728 3241 00           	db 0
13729 3242 00           	db 0
13730 3243 00           	db 0
13731 3244 30           	db 48
13732 3245 60           	db 96
13733 3246 FE           	db 254
13734 3247 60           	db 96
13735 3248 30           	db 48
13736 3249 00           	db 0
13737 324A 00           	db 0
13738 324B 00           	db 0
13739 324C 00           	db 0
13740 324D C0           	db 192
13741 324E C0           	db 192
13742 324F C0           	db 192
13743 3250 FE           	db 254
13744 3251 00           	db 0
13745 3252 00           	db 0
13746 3253 00           	db 0
13747 3254 24           	db 36
13748 3255 66           	db 102
13749 3256 FF           	db 255
13750 3257 66           	db 102
13751 3258 24           	db 36
13752 3259 00           	db 0
13753 325A 00           	db 0
13754 325B 00           	db 0
13755 325C 10           	db 16
13756 325D 38           	db 56
13757 325E 7C           	db 124
13758 325F FE           	db 254
13759 3260 FE           	db 254
13760 3261 00           	db 0
13761 3262 00           	db 0
13762 3263 00           	db 0
13763 3264 FE           	db 254
13764 3265 FE           	db 254
13765 3266 7C           	db 124
13766 3267 38           	db 56
13767 3268 10           	db 16
13768 3269 00           	db 0
13769 326A 00           	db 0
13770 326B 00           	db 0
13771 326C 00           	db 0
13772 326D 00           	db 0
13773 326E 00           	db 0
13774 326F 00           	db 0
13775 3270 00           	db 0
13776 3271 00           	db 0
13777 3272 00           	db 0
13778 3273 30           	db 48
13779 3274 78           	db 120
13780 3275 78           	db 120
13781 3276 30           	db 48
13782 3277 30           	db 48
13783 3278 00           	db 0
13784 3279 30           	db 48
13785 327A 00           	db 0
13786 327B 66           	db 102
13787 327C 66           	db 102
13788 327D 44           	db 68
13789 327E 00           	db 0
13790 327F 00           	db 0
13791 3280 00           	db 0
13792 3281 00           	db 0
13793 3282 00           	db 0
13794 3283 6C           	db 108
13795 3284 6C           	db 108
13796 3285 FE           	db 254
13797 3286 6C           	db 108
13798 3287 FE           	db 254
13799 3288 6C           	db 108
13800 3289 6C           	db 108
13801 328A 00           	db 0
13802 328B 18           	db 24
13803 328C 3E           	db 62
13804 328D 60           	db 96
13805 328E 3C           	db 60
13806 328F 06           	db 6
13807 3290 7C           	db 124
13808 3291 18           	db 24
13809 3292 00           	db 0
13810 3293 62           	db 98
13811 3294 66           	db 102
13812 3295 0C           	db 12
13813 3296 18           	db 24
13814 3297 30           	db 48
13815 3298 66           	db 102
13816 3299 46           	db 70
13817 329A 00           	db 0
13818 329B 38           	db 56
13819 329C 6C           	db 108
13820 329D 38           	db 56
13821 329E 76           	db 118
13822 329F DC           	db 220
13823 32A0 CC           	db 204
13824 32A1 76           	db 118
13825 32A2 00           	db 0
13826 32A3 30           	db 48
13827 32A4 30           	db 48
13828 32A5 60           	db 96
13829 32A6 00           	db 0
13830 32A7 00           	db 0
13831 32A8 00           	db 0
13832 32A9 00           	db 0
13833 32AA 00           	db 0
13834 32AB 0C           	db 12
13835 32AC 18           	db 24
13836 32AD 30           	db 48
13837 32AE 30           	db 48
13838 32AF 30           	db 48
13839 32B0 18           	db 24
13840 32B1 0C           	db 12
13841 32B2 00           	db 0
13842 32B3 30           	db 48
13843 32B4 18           	db 24
13844 32B5 0C           	db 12
13845 32B6 0C           	db 12
13846 32B7 0C           	db 12
13847 32B8 18           	db 24
13848 32B9 30           	db 48
13849 32BA 00           	db 0
13850 32BB 00           	db 0
13851 32BC 66           	db 102
13852 32BD 3C           	db 60
13853 32BE FF           	db 255
13854 32BF 3C           	db 60
13855 32C0 66           	db 102
13856 32C1 00           	db 0
13857 32C2 00           	db 0
13858 32C3 00           	db 0
13859 32C4 18           	db 24
13860 32C5 18           	db 24
13861 32C6 7E           	db 126
13862 32C7 18           	db 24
13863 32C8 18           	db 24
13864 32C9 00           	db 0
13865 32CA 00           	db 0
13866 32CB 00           	db 0
13867 32CC 00           	db 0
13868 32CD 00           	db 0
13869 32CE 00           	db 0
13870 32CF 00           	db 0
13871 32D0 30           	db 48
13872 32D1 30           	db 48
13873 32D2 60           	db 96
13874 32D3 00           	db 0
13875 32D4 00           	db 0
13876 32D5 00           	db 0
13877 32D6 7E           	db 126
13878 32D7 00           	db 0
13879 32D8 00           	db 0
13880 32D9 00           	db 0
13881 32DA 00           	db 0
13882 32DB 00           	db 0
13883 32DC 00           	db 0
13884 32DD 00           	db 0
13885 32DE 00           	db 0
13886 32DF 00           	db 0
13887 32E0 30           	db 48
13888 32E1 30           	db 48
13889 32E2 00           	db 0
13890 32E3 06           	db 6
13891 32E4 0C           	db 12
13892 32E5 18           	db 24
13893 32E6 30           	db 48
13894 32E7 60           	db 96
13895 32E8 C0           	db 192
13896 32E9 80           	db 128
13897 32EA 00           	db 0
13898 32EB 7C           	db 124
13899 32EC C6           	db 198
13900 32ED CE           	db 206
13901 32EE DE           	db 222
13902 32EF F6           	db 246
13903 32F0 E6           	db 230
13904 32F1 7C           	db 124
13905 32F2 00           	db 0
13906 32F3 18           	db 24
13907 32F4 38           	db 56
13908 32F5 18           	db 24
13909 32F6 18           	db 24
13910 32F7 18           	db 24
13911 32F8 18           	db 24
13912 32F9 7E           	db 126
13913 32FA 00           	db 0
13914 32FB 3C           	db 60
13915 32FC 66           	db 102
13916 32FD 06           	db 6
13917 32FE 1C           	db 28
13918 32FF 30           	db 48
13919 3300 66           	db 102
13920 3301 7E           	db 126
13921 3302 00           	db 0
13922 3303 3C           	db 60
13923 3304 66           	db 102
13924 3305 06           	db 6
13925 3306 1C           	db 28
13926 3307 06           	db 6
13927 3308 66           	db 102
13928 3309 3C           	db 60
13929 330A 00           	db 0
13930 330B 1C           	db 28
13931 330C 3C           	db 60
13932 330D 6C           	db 108
13933 330E CC           	db 204
13934 330F FE           	db 254
13935 3310 0C           	db 12
13936 3311 1E           	db 30
13937 3312 00           	db 0
13938 3313 7E           	db 126
13939 3314 60           	db 96
13940 3315 7C           	db 124
13941 3316 06           	db 6
13942 3317 06           	db 6
13943 3318 66           	db 102
13944 3319 3C           	db 60
13945 331A 00           	db 0
13946 331B 1C           	db 28
13947 331C 30           	db 48
13948 331D 60           	db 96
13949 331E 7C           	db 124
13950 331F 66           	db 102
13951 3320 66           	db 102
13952 3321 3C           	db 60
13953 3322 00           	db 0
13954 3323 7E           	db 126
13955 3324 66           	db 102
13956 3325 06           	db 6
13957 3326 0C           	db 12
13958 3327 18           	db 24
13959 3328 18           	db 24
13960 3329 18           	db 24
13961 332A 00           	db 0
13962 332B 3C           	db 60
13963 332C 66           	db 102
13964 332D 66           	db 102
13965 332E 3C           	db 60
13966 332F 66           	db 102
13967 3330 66           	db 102
13968 3331 3C           	db 60
13969 3332 00           	db 0
13970 3333 3C           	db 60
13971 3334 66           	db 102
13972 3335 66           	db 102
13973 3336 3E           	db 62
13974 3337 06           	db 6
13975 3338 0C           	db 12
13976 3339 38           	db 56
13977 333A 00           	db 0
13978 333B 00           	db 0
13979 333C 30           	db 48
13980 333D 30           	db 48
13981 333E 00           	db 0
13982 333F 00           	db 0
13983 3340 30           	db 48
13984 3341 30           	db 48
13985 3342 00           	db 0
13986 3343 00           	db 0
13987 3344 30           	db 48
13988 3345 30           	db 48
13989 3346 00           	db 0
13990 3347 00           	db 0
13991 3348 30           	db 48
13992 3349 30           	db 48
13993 334A 60           	db 96
13994 334B 0C           	db 12
13995 334C 18           	db 24
13996 334D 30           	db 48
13997 334E 60           	db 96
13998 334F 30           	db 48
13999 3350 18           	db 24
14000 3351 0C           	db 12
14001 3352 00           	db 0
14002 3353 00           	db 0
14003 3354 00           	db 0
14004 3355 7E           	db 126
14005 3356 00           	db 0
14006 3357 00           	db 0
14007 3358 7E           	db 126
14008 3359 00           	db 0
14009 335A 00           	db 0
14010 335B 60           	db 96
14011 335C 30           	db 48
14012 335D 18           	db 24
14013 335E 0C           	db 12
14014 335F 18           	db 24
14015 3360 30           	db 48
14016 3361 60           	db 96
14017 3362 00           	db 0
14018 3363 3C           	db 60
14019 3364 66           	db 102
14020 3365 06           	db 6
14021 3366 0C           	db 12
14022 3367 18           	db 24
14023 3368 00           	db 0
14024 3369 18           	db 24
14025 336A 00           	db 0
14026 336B 7C           	db 124
14027 336C C6           	db 198
14028 336D DE           	db 222
14029 336E DE           	db 222
14030 336F DE           	db 222
14031 3370 C0           	db 192
14032 3371 78           	db 120
14033 3372 00           	db 0
14034 3373 18           	db 24
14035 3374 3C           	db 60
14036 3375 66           	db 102
14037 3376 66           	db 102
14038 3377 7E           	db 126
14039 3378 66           	db 102
14040 3379 66           	db 102
14041 337A 00           	db 0
14042 337B FC           	db 252
14043 337C 66           	db 102
14044 337D 66           	db 102
14045 337E 7C           	db 124
14046 337F 66           	db 102
14047 3380 66           	db 102
14048 3381 FC           	db 252
14049 3382 00           	db 0
14050 3383 3C           	db 60
14051 3384 66           	db 102
14052 3385 C0           	db 192
14053 3386 C0           	db 192
14054 3387 C0           	db 192
14055 3388 66           	db 102
14056 3389 3C           	db 60
14057 338A 00           	db 0
14058 338B F8           	db 248
14059 338C 6C           	db 108
14060 338D 66           	db 102
14061 338E 66           	db 102
14062 338F 66           	db 102
14063 3390 6C           	db 108
14064 3391 F8           	db 248
14065 3392 00           	db 0
14066 3393 FE           	db 254
14067 3394 62           	db 98
14068 3395 68           	db 104
14069 3396 78           	db 120
14070 3397 68           	db 104
14071 3398 62           	db 98
14072 3399 FE           	db 254
14073 339A 00           	db 0
14074 339B FE           	db 254
14075 339C 62           	db 98
14076 339D 68           	db 104
14077 339E 78           	db 120
14078 339F 68           	db 104
14079 33A0 60           	db 96
14080 33A1 F0           	db 240
14081 33A2 00           	db 0
14082 33A3 3C           	db 60
14083 33A4 66           	db 102
14084 33A5 C0           	db 192
14085 33A6 C0           	db 192
14086 33A7 CE           	db 206
14087 33A8 66           	db 102
14088 33A9 3E           	db 62
14089 33AA 00           	db 0
14090 33AB 66           	db 102
14091 33AC 66           	db 102
14092 33AD 66           	db 102
14093 33AE 7E           	db 126
14094 33AF 66           	db 102
14095 33B0 66           	db 102
14096 33B1 66           	db 102
14097 33B2 00           	db 0
14098 33B3 3C           	db 60
14099 33B4 18           	db 24
14100 33B5 18           	db 24
14101 33B6 18           	db 24
14102 33B7 18           	db 24
14103 33B8 18           	db 24
14104 33B9 3C           	db 60
14105 33BA 00           	db 0
14106 33BB 1E           	db 30
14107 33BC 0C           	db 12
14108 33BD 0C           	db 12
14109 33BE 0C           	db 12
14110 33BF CC           	db 204
14111 33C0 CC           	db 204
14112 33C1 78           	db 120
14113 33C2 00           	db 0
14114 33C3 E6           	db 230
14115 33C4 66           	db 102
14116 33C5 6C           	db 108
14117 33C6 78           	db 120
14118 33C7 6C           	db 108
14119 33C8 66           	db 102
14120 33C9 E6           	db 230
14121 33CA 00           	db 0
14122 33CB F0           	db 240
14123 33CC 60           	db 96
14124 33CD 60           	db 96
14125 33CE 60           	db 96
14126 33CF 62           	db 98
14127 33D0 66           	db 102
14128 33D1 FE           	db 254
14129 33D2 00           	db 0
14130 33D3 C6           	db 198
14131 33D4 EE           	db 238
14132 33D5 FE           	db 254
14133 33D6 FE           	db 254
14134 33D7 D6           	db 214
14135 33D8 C6           	db 198
14136 33D9 C6           	db 198
14137 33DA 00           	db 0
14138 33DB C6           	db 198
14139 33DC E6           	db 230
14140 33DD F6           	db 246
14141 33DE DE           	db 222
14142 33DF CE           	db 206
14143 33E0 C6           	db 198
14144 33E1 C6           	db 198
14145 33E2 00           	db 0
14146 33E3 38           	db 56
14147 33E4 6C           	db 108
14148 33E5 C6           	db 198
14149 33E6 C6           	db 198
14150 33E7 C6           	db 198
14151 33E8 6C           	db 108
14152 33E9 38           	db 56
14153 33EA 00           	db 0
14154 33EB FC           	db 252
14155 33EC 66           	db 102
14156 33ED 66           	db 102
14157 33EE 7C           	db 124
14158 33EF 60           	db 96
14159 33F0 60           	db 96
14160 33F1 F0           	db 240
14161 33F2 00           	db 0
14162 33F3 3C           	db 60
14163 33F4 66           	db 102
14164 33F5 66           	db 102
14165 33F6 66           	db 102
14166 33F7 6E           	db 110
14167 33F8 3C           	db 60
14168 33F9 0E           	db 14
14169 33FA 00           	db 0
14170 33FB FC           	db 252
14171 33FC 66           	db 102
14172 33FD 66           	db 102
14173 33FE 7C           	db 124
14174 33FF 6C           	db 108
14175 3400 66           	db 102
14176 3401 E6           	db 230
14177 3402 00           	db 0
14178 3403 3C           	db 60
14179 3404 66           	db 102
14180 3405 30           	db 48
14181 3406 18           	db 24
14182 3407 0C           	db 12
14183 3408 66           	db 102
14184 3409 3C           	db 60
14185 340A 00           	db 0
14186 340B 7E           	db 126
14187 340C 5A           	db 90
14188 340D 18           	db 24
14189 340E 18           	db 24
14190 340F 18           	db 24
14191 3410 18           	db 24
14192 3411 3C           	db 60
14193 3412 00           	db 0
14194 3413 66           	db 102
14195 3414 66           	db 102
14196 3415 66           	db 102
14197 3416 66           	db 102
14198 3417 66           	db 102
14199 3418 66           	db 102
14200 3419 3C           	db 60
14201 341A 00           	db 0
14202 341B 66           	db 102
14203 341C 66           	db 102
14204 341D 66           	db 102
14205 341E 66           	db 102
14206 341F 66           	db 102
14207 3420 3C           	db 60
14208 3421 18           	db 24
14209 3422 00           	db 0
14210 3423 C6           	db 198
14211 3424 C6           	db 198
14212 3425 C6           	db 198
14213 3426 D6           	db 214
14214 3427 FE           	db 254
14215 3428 EE           	db 238
14216 3429 C6           	db 198
14217 342A 00           	db 0
14218 342B C6           	db 198
14219 342C C6           	db 198
14220 342D 6C           	db 108
14221 342E 38           	db 56
14222 342F 38           	db 56
14223 3430 6C           	db 108
14224 3431 C6           	db 198
14225 3432 00           	db 0
14226 3433 66           	db 102
14227 3434 66           	db 102
14228 3435 66           	db 102
14229 3436 3C           	db 60
14230 3437 18           	db 24
14231 3438 18           	db 24
14232 3439 3C           	db 60
14233 343A 00           	db 0
14234 343B FE           	db 254
14235 343C C6           	db 198
14236 343D 8C           	db 140
14237 343E 18           	db 24
14238 343F 32           	db 50
14239 3440 66           	db 102
14240 3441 FE           	db 254
14241 3442 00           	db 0
14242 3443 3C           	db 60
14243 3444 30           	db 48
14244 3445 30           	db 48
14245 3446 30           	db 48
14246 3447 30           	db 48
14247 3448 30           	db 48
14248 3449 3C           	db 60
14249 344A 00           	db 0
14250 344B C0           	db 192
14251 344C 60           	db 96
14252 344D 30           	db 48
14253 344E 18           	db 24
14254 344F 0C           	db 12
14255 3450 06           	db 6
14256 3451 02           	db 2
14257 3452 00           	db 0
14258 3453 3C           	db 60
14259 3454 0C           	db 12
14260 3455 0C           	db 12
14261 3456 0C           	db 12
14262 3457 0C           	db 12
14263 3458 0C           	db 12
14264 3459 3C           	db 60
14265 345A 00           	db 0
14266 345B 10           	db 16
14267 345C 38           	db 56
14268 345D 6C           	db 108
14269 345E C6           	db 198
14270 345F 00           	db 0
14271 3460 00           	db 0
14272 3461 00           	db 0
14273 3462 00           	db 0
14274 3463 00           	db 0
14275 3464 00           	db 0
14276 3465 00           	db 0
14277 3466 00           	db 0
14278 3467 00           	db 0
14279 3468 00           	db 0
14280 3469 00           	db 0
14281 346A FF           	db 255
14282 346B 30           	db 48
14283 346C 30           	db 48
14284 346D 18           	db 24
14285 346E 00           	db 0
14286 346F 00           	db 0
14287 3470 00           	db 0
14288 3471 00           	db 0
14289 3472 00           	db 0
14290 3473 00           	db 0
14291 3474 00           	db 0
14292 3475 78           	db 120
14293 3476 0C           	db 12
14294 3477 7C           	db 124
14295 3478 CC           	db 204
14296 3479 76           	db 118
14297 347A 00           	db 0
14298 347B E0           	db 224
14299 347C 60           	db 96
14300 347D 60           	db 96
14301 347E 7C           	db 124
14302 347F 66           	db 102
14303 3480 66           	db 102
14304 3481 DC           	db 220
14305 3482 00           	db 0
14306 3483 00           	db 0
14307 3484 00           	db 0
14308 3485 3C           	db 60
14309 3486 60           	db 96
14310 3487 60           	db 96
14311 3488 60           	db 96
14312 3489 3C           	db 60
14313 348A 00           	db 0
14314 348B 1C           	db 28
14315 348C 0C           	db 12
14316 348D 0C           	db 12
14317 348E 7C           	db 124
14318 348F CC           	db 204
14319 3490 CC           	db 204
14320 3491 76           	db 118
14321 3492 00           	db 0
14322 3493 00           	db 0
14323 3494 00           	db 0
14324 3495 3C           	db 60
14325 3496 66           	db 102
14326 3497 7E           	db 126
14327 3498 60           	db 96
14328 3499 3C           	db 60
14329 349A 00           	db 0
14330 349B 1C           	db 28
14331 349C 36           	db 54
14332 349D 30           	db 48
14333 349E 78           	db 120
14334 349F 30           	db 48
14335 34A0 30           	db 48
14336 34A1 78           	db 120
14337 34A2 00           	db 0
14338 34A3 00           	db 0
14339 34A4 00           	db 0
14340 34A5 76           	db 118
14341 34A6 CC           	db 204
14342 34A7 CC           	db 204
14343 34A8 7C           	db 124
14344 34A9 0C           	db 12
14345 34AA F8           	db 248
14346 34AB E0           	db 224
14347 34AC 60           	db 96
14348 34AD 6C           	db 108
14349 34AE 76           	db 118
14350 34AF 66           	db 102
14351 34B0 66           	db 102
14352 34B1 E6           	db 230
14353 34B2 00           	db 0
14354 34B3 18           	db 24
14355 34B4 00           	db 0
14356 34B5 38           	db 56
14357 34B6 18           	db 24
14358 34B7 18           	db 24
14359 34B8 18           	db 24
14360 34B9 3C           	db 60
14361 34BA 00           	db 0
14362 34BB 06           	db 6
14363 34BC 00           	db 0
14364 34BD 06           	db 6
14365 34BE 06           	db 6
14366 34BF 06           	db 6
14367 34C0 66           	db 102
14368 34C1 66           	db 102
14369 34C2 3C           	db 60
14370 34C3 E0           	db 224
14371 34C4 60           	db 96
14372 34C5 66           	db 102
14373 34C6 6C           	db 108
14374 34C7 78           	db 120
14375 34C8 6C           	db 108
14376 34C9 E6           	db 230
14377 34CA 00           	db 0
14378 34CB 38           	db 56
14379 34CC 18           	db 24
14380 34CD 18           	db 24
14381 34CE 18           	db 24
14382 34CF 18           	db 24
14383 34D0 18           	db 24
14384 34D1 3C           	db 60
14385 34D2 00           	db 0
14386 34D3 00           	db 0
14387 34D4 00           	db 0
14388 34D5 CC           	db 204
14389 34D6 FE           	db 254
14390 34D7 FE           	db 254
14391 34D8 D6           	db 214
14392 34D9 C6           	db 198
14393 34DA 00           	db 0
14394 34DB 00           	db 0
14395 34DC 00           	db 0
14396 34DD DC           	db 220
14397 34DE 66           	db 102
14398 34DF 66           	db 102
14399 34E0 66           	db 102
14400 34E1 66           	db 102
14401 34E2 00           	db 0
14402 34E3 00           	db 0
14403 34E4 00           	db 0
14404 34E5 3C           	db 60
14405 34E6 66           	db 102
14406 34E7 66           	db 102
14407 34E8 66           	db 102
14408 34E9 3C           	db 60
14409 34EA 00           	db 0
14410 34EB 00           	db 0
14411 34EC 00           	db 0
14412 34ED DC           	db 220
14413 34EE 66           	db 102
14414 34EF 66           	db 102
14415 34F0 7C           	db 124
14416 34F1 60           	db 96
14417 34F2 F0           	db 240
14418 34F3 00           	db 0
14419 34F4 00           	db 0
14420 34F5 76           	db 118
14421 34F6 CC           	db 204
14422 34F7 CC           	db 204
14423 34F8 7C           	db 124
14424 34F9 0C           	db 12
14425 34FA 1E           	db 30
14426 34FB 00           	db 0
14427 34FC 00           	db 0
14428 34FD DC           	db 220
14429 34FE 76           	db 118
14430 34FF 66           	db 102
14431 3500 60           	db 96
14432 3501 F0           	db 240
14433 3502 00           	db 0
14434 3503 00           	db 0
14435 3504 00           	db 0
14436 3505 3E           	db 62
14437 3506 60           	db 96
14438 3507 3C           	db 60
14439 3508 06           	db 6
14440 3509 7C           	db 124
14441 350A 00           	db 0
14442 350B 10           	db 16
14443 350C 30           	db 48
14444 350D 7C           	db 124
14445 350E 30           	db 48
14446 350F 30           	db 48
14447 3510 36           	db 54
14448 3511 1C           	db 28
14449 3512 00           	db 0
14450 3513 00           	db 0
14451 3514 00           	db 0
14452 3515 CC           	db 204
14453 3516 CC           	db 204
14454 3517 CC           	db 204
14455 3518 CC           	db 204
14456 3519 76           	db 118
14457 351A 00           	db 0
14458 351B 00           	db 0
14459 351C 00           	db 0
14460 351D 66           	db 102
14461 351E 66           	db 102
14462 351F 66           	db 102
14463 3520 3C           	db 60
14464 3521 18           	db 24
14465 3522 00           	db 0
14466 3523 00           	db 0
14467 3524 00           	db 0
14468 3525 C6           	db 198
14469 3526 D6           	db 214
14470 3527 FE           	db 254
14471 3528 FE           	db 254
14472 3529 6C           	db 108
14473 352A 00           	db 0
14474 352B 00           	db 0
14475 352C 00           	db 0
14476 352D C6           	db 198
14477 352E 6C           	db 108
14478 352F 38           	db 56
14479 3530 6C           	db 108
14480 3531 C6           	db 198
14481 3532 00           	db 0
14482 3533 00           	db 0
14483 3534 00           	db 0
14484 3535 66           	db 102
14485 3536 66           	db 102
14486 3537 66           	db 102
14487 3538 3E           	db 62
14488 3539 06           	db 6
14489 353A 7C           	db 124
14490 353B 00           	db 0
14491 353C 00           	db 0
14492 353D 7E           	db 126
14493 353E 4C           	db 76
14494 353F 18           	db 24
14495 3540 32           	db 50
14496 3541 7E           	db 126
14497 3542 00           	db 0
14498 3543 0E           	db 14
14499 3544 18           	db 24
14500 3545 18           	db 24
14501 3546 70           	db 112
14502 3547 18           	db 24
14503 3548 18           	db 24
14504 3549 0E           	db 14
14505 354A 00           	db 0
14506 354B 18           	db 24
14507 354C 18           	db 24
14508 354D 18           	db 24
14509 354E 00           	db 0
14510 354F 18           	db 24
14511 3550 18           	db 24
14512 3551 18           	db 24
14513 3552 00           	db 0
14514 3553 70           	db 112
14515 3554 18           	db 24
14516 3555 18           	db 24
14517 3556 0E           	db 14
14518 3557 18           	db 24
14519 3558 18           	db 24
14520 3559 70           	db 112
14521 355A 00           	db 0
14522 355B 76           	db 118
14523 355C DC           	db 220
14524 355D 00           	db 0
14525 355E 00           	db 0
14526 355F 00           	db 0
14527 3560 00           	db 0
14528 3561 00           	db 0
14529 3562 00           	db 0
14530 3563 00           	db 0
14531 3564 10           	db 16
14532 3565 38           	db 56
14533 3566 6C           	db 108
14534 3567 C6           	db 198
14535 3568 C6           	db 198
14536 3569 FE           	db 254
14537 356A 00           	db 0
14538 356B 1E           	db 30
14539 356C 36           	db 54
14540 356D 66           	db 102
14541 356E C6           	db 198
14542 356F FE           	db 254
14543 3570 C6           	db 198
14544 3571 C6           	db 198
14545 3572 00           	db 0
14546 3573 FC           	db 252
14547 3574 C0           	db 192
14548 3575 C0           	db 192
14549 3576 FC           	db 252
14550 3577 C6           	db 198
14551 3578 C6           	db 198
14552 3579 FC           	db 252
14553 357A 00           	db 0
14554 357B F8           	db 248
14555 357C CC           	db 204
14556 357D CC           	db 204
14557 357E FC           	db 252
14558 357F C6           	db 198
14559 3580 C6           	db 198
14560 3581 FC           	db 252
14561 3582 00           	db 0
14562 3583 7E           	db 126
14563 3584 60           	db 96
14564 3585 60           	db 96
14565 3586 60           	db 96
14566 3587 60           	db 96
14567 3588 60           	db 96
14568 3589 60           	db 96
14569 358A 00           	db 0
14570 358B 1E           	db 30
14571 358C 36           	db 54
14572 358D 66           	db 102
14573 358E 66           	db 102
14574 358F 66           	db 102
14575 3590 66           	db 102
14576 3591 FF           	db 255
14577 3592 C3           	db 195
14578 3593 FC           	db 252
14579 3594 C0           	db 192
14580 3595 C0           	db 192
14581 3596 F8           	db 248
14582 3597 C0           	db 192
14583 3598 C0           	db 192
14584 3599 FE           	db 254
14585 359A 00           	db 0
14586 359B DB           	db 219
14587 359C DB           	db 219
14588 359D 7E           	db 126
14589 359E 3C           	db 60
14590 359F 7E           	db 126
14591 35A0 DB           	db 219
14592 35A1 DB           	db 219
14593 35A2 00           	db 0
14594 35A3 3C           	db 60
14595 35A4 66           	db 102
14596 35A5 06           	db 6
14597 35A6 3C           	db 60
14598 35A7 06           	db 6
14599 35A8 C6           	db 198
14600 35A9 7C           	db 124
14601 35AA 00           	db 0
14602 35AB C6           	db 198
14603 35AC C6           	db 198
14604 35AD CE           	db 206
14605 35AE DE           	db 222
14606 35AF F6           	db 246
14607 35B0 E6           	db 230
14608 35B1 C6           	db 198
14609 35B2 00           	db 0
14610 35B3 BA           	db 186
14611 35B4 C6           	db 198
14612 35B5 CE           	db 206
14613 35B6 DE           	db 222
14614 35B7 F6           	db 246
14615 35B8 E6           	db 230
14616 35B9 C6           	db 198
14617 35BA 00           	db 0
14618 35BB C6           	db 198
14619 35BC CC           	db 204
14620 35BD D8           	db 216
14621 35BE F8           	db 248
14622 35BF CC           	db 204
14623 35C0 C6           	db 198
14624 35C1 C6           	db 198
14625 35C2 00           	db 0
14626 35C3 1E           	db 30
14627 35C4 36           	db 54
14628 35C5 66           	db 102
14629 35C6 66           	db 102
14630 35C7 66           	db 102
14631 35C8 66           	db 102
14632 35C9 E6           	db 230
14633 35CA 00           	db 0
14634 35CB C6           	db 198
14635 35CC EE           	db 238
14636 35CD FE           	db 254
14637 35CE D6           	db 214
14638 35CF C6           	db 198
14639 35D0 C6           	db 198
14640 35D1 C6           	db 198
14641 35D2 00           	db 0
14642 35D3 C6           	db 198
14643 35D4 C6           	db 198
14644 35D5 C6           	db 198
14645 35D6 FE           	db 254
14646 35D7 C6           	db 198
14647 35D8 C6           	db 198
14648 35D9 C6           	db 198
14649 35DA 00           	db 0
14650 35DB 7C           	db 124
14651 35DC C6           	db 198
14652 35DD C6           	db 198
14653 35DE C6           	db 198
14654 35DF C6           	db 198
14655 35E0 C6           	db 198
14656 35E1 7C           	db 124
14657 35E2 00           	db 0
14658 35E3 FE           	db 254
14659 35E4 C6           	db 198
14660 35E5 C6           	db 198
14661 35E6 C6           	db 198
14662 35E7 C6           	db 198
14663 35E8 C6           	db 198
14664 35E9 C6           	db 198
14665 35EA 00           	db 0
14666 35EB FC           	db 252
14667 35EC C6           	db 198
14668 35ED C6           	db 198
14669 35EE FC           	db 252
14670 35EF C0           	db 192
14671 35F0 C0           	db 192
14672 35F1 C0           	db 192
14673 35F2 00           	db 0
14674 35F3 7C           	db 124
14675 35F4 C6           	db 198
14676 35F5 C0           	db 192
14677 35F6 C0           	db 192
14678 35F7 C0           	db 192
14679 35F8 C6           	db 198
14680 35F9 7C           	db 124
14681 35FA 00           	db 0
14682 35FB 7E           	db 126
14683 35FC 18           	db 24
14684 35FD 18           	db 24
14685 35FE 18           	db 24
14686 35FF 18           	db 24
14687 3600 18           	db 24
14688 3601 18           	db 24
14689 3602 00           	db 0
14690 3603 C6           	db 198
14691 3604 C6           	db 198
14692 3605 C6           	db 198
14693 3606 7E           	db 126
14694 3607 06           	db 6
14695 3608 C6           	db 198
14696 3609 7C           	db 124
14697 360A 00           	db 0
14698 360B 18           	db 24
14699 360C 7E           	db 126
14700 360D DB           	db 219
14701 360E DB           	db 219
14702 360F DB           	db 219
14703 3610 7E           	db 126
14704 3611 18           	db 24
14705 3612 00           	db 0
14706 3613 C6           	db 198
14707 3614 6C           	db 108
14708 3615 38           	db 56
14709 3616 38           	db 56
14710 3617 6C           	db 108
14711 3618 C6           	db 198
14712 3619 C6           	db 198
14713 361A 00           	db 0
14714 361B CC           	db 204
14715 361C CC           	db 204
14716 361D CC           	db 204
14717 361E CC           	db 204
14718 361F CC           	db 204
14719 3620 CC           	db 204
14720 3621 FE           	db 254
14721 3622 06           	db 6
14722 3623 C6           	db 198
14723 3624 C6           	db 198
14724 3625 C6           	db 198
14725 3626 7E           	db 126
14726 3627 06           	db 6
14727 3628 06           	db 6
14728 3629 06           	db 6
14729 362A 00           	db 0
14730 362B D6           	db 214
14731 362C D6           	db 214
14732 362D D6           	db 214
14733 362E D6           	db 214
14734 362F D6           	db 214
14735 3630 D6           	db 214
14736 3631 FE           	db 254
14737 3632 00           	db 0
14738 3633 D6           	db 214
14739 3634 D6           	db 214
14740 3635 D6           	db 214
14741 3636 D6           	db 214
14742 3637 D6           	db 214
14743 3638 D6           	db 214
14744 3639 FF           	db 255
14745 363A 03           	db 3
14746 363B F0           	db 240
14747 363C 30           	db 48
14748 363D 30           	db 48
14749 363E 3E           	db 62
14750 363F 33           	db 51
14751 3640 33           	db 51
14752 3641 3E           	db 62
14753 3642 00           	db 0
14754 3643 C6           	db 198
14755 3644 C6           	db 198
14756 3645 C6           	db 198
14757 3646 F6           	db 246
14758 3647 DA           	db 218
14759 3648 DA           	db 218
14760 3649 F6           	db 246
14761 364A 00           	db 0
14762 364B C0           	db 192
14763 364C C0           	db 192
14764 364D C0           	db 192
14765 364E FC           	db 252
14766 364F C6           	db 198
14767 3650 C6           	db 198
14768 3651 FC           	db 252
14769 3652 00           	db 0
14770 3653 7C           	db 124
14771 3654 C6           	db 198
14772 3655 06           	db 6
14773 3656 1E           	db 30
14774 3657 06           	db 6
14775 3658 C6           	db 198
14776 3659 7C           	db 124
14777 365A 00           	db 0
14778 365B CC           	db 204
14779 365C DE           	db 222
14780 365D B6           	db 182
14781 365E F6           	db 246
14782 365F B6           	db 182
14783 3660 DE           	db 222
14784 3661 CC           	db 204
14785 3662 00           	db 0
14786 3663 7E           	db 126
14787 3664 C6           	db 198
14788 3665 C6           	db 198
14789 3666 7E           	db 126
14790 3667 36           	db 54
14791 3668 66           	db 102
14792 3669 C6           	db 198
14793 366A 00           	db 0
14794 366B 00           	db 0
14795 366C 00           	db 0
14796 366D 78           	db 120
14797 366E 0C           	db 12
14798 366F 7C           	db 124
14799 3670 CC           	db 204
14800 3671 7E           	db 126
14801 3672 00           	db 0
14802 3673 06           	db 6
14803 3674 3C           	db 60
14804 3675 60           	db 96
14805 3676 7C           	db 124
14806 3677 66           	db 102
14807 3678 66           	db 102
14808 3679 3C           	db 60
14809 367A 00           	db 0
14810 367B 00           	db 0
14811 367C 00           	db 0
14812 367D F8           	db 248
14813 367E CC           	db 204
14814 367F F8           	db 248
14815 3680 C6           	db 198
14816 3681 FC           	db 252
14817 3682 00           	db 0
14818 3683 00           	db 0
14819 3684 00           	db 0
14820 3685 7E           	db 126
14821 3686 60           	db 96
14822 3687 60           	db 96
14823 3688 60           	db 96
14824 3689 60           	db 96
14825 368A 00           	db 0
14826 368B 00           	db 0
14827 368C 00           	db 0
14828 368D 1E           	db 30
14829 368E 36           	db 54
14830 368F 66           	db 102
14831 3690 66           	db 102
14832 3691 FF           	db 255
14833 3692 C3           	db 195
14834 3693 00           	db 0
14835 3694 00           	db 0
14836 3695 3C           	db 60
14837 3696 66           	db 102
14838 3697 7E           	db 126
14839 3698 60           	db 96
14840 3699 3E           	db 62
14841 369A 00           	db 0
14842 369B 00           	db 0
14843 369C 00           	db 0
14844 369D DB           	db 219
14845 369E 7E           	db 126
14846 369F 3C           	db 60
14847 36A0 7E           	db 126
14848 36A1 DB           	db 219
14849 36A2 00           	db 0
14850 36A3 00           	db 0
14851 36A4 00           	db 0
14852 36A5 3C           	db 60
14853 36A6 66           	db 102
14854 36A7 0C           	db 12
14855 36A8 66           	db 102
14856 36A9 3C           	db 60
14857 36AA 00           	db 0
14858 36AB 00           	db 0
14859 36AC 00           	db 0
14860 36AD 66           	db 102
14861 36AE 6E           	db 110
14862 36AF 7E           	db 126
14863 36B0 76           	db 118
14864 36B1 66           	db 102
14865 36B2 00           	db 0
14866 36B3 18           	db 24
14867 36B4 00           	db 0
14868 36B5 66           	db 102
14869 36B6 6E           	db 110
14870 36B7 7E           	db 126
14871 36B8 76           	db 118
14872 36B9 66           	db 102
14873 36BA 00           	db 0
14874 36BB 00           	db 0
14875 36BC 00           	db 0
14876 36BD 66           	db 102
14877 36BE 6C           	db 108
14878 36BF 78           	db 120
14879 36C0 6C           	db 108
14880 36C1 66           	db 102
14881 36C2 00           	db 0
14882 36C3 00           	db 0
14883 36C4 00           	db 0
14884 36C5 1E           	db 30
14885 36C6 36           	db 54
14886 36C7 66           	db 102
14887 36C8 66           	db 102
14888 36C9 E6           	db 230
14889 36CA 00           	db 0
14890 36CB 00           	db 0
14891 36CC 00           	db 0
14892 36CD C6           	db 198
14893 36CE EE           	db 238
14894 36CF FE           	db 254
14895 36D0 D6           	db 214
14896 36D1 C6           	db 198
14897 36D2 00           	db 0
14898 36D3 00           	db 0
14899 36D4 00           	db 0
14900 36D5 66           	db 102
14901 36D6 66           	db 102
14902 36D7 7E           	db 126
14903 36D8 66           	db 102
14904 36D9 66           	db 102
14905 36DA 00           	db 0
14906 36DB 00           	db 0
14907 36DC 00           	db 0
14908 36DD 3C           	db 60
14909 36DE 66           	db 102
14910 36DF 66           	db 102
14911 36E0 66           	db 102
14912 36E1 3C           	db 60
14913 36E2 00           	db 0
14914 36E3 00           	db 0
14915 36E4 00           	db 0
14916 36E5 7E           	db 126
14917 36E6 66           	db 102
14918 36E7 66           	db 102
14919 36E8 66           	db 102
14920 36E9 66           	db 102
14921 36EA 00           	db 0
14922 36EB 22           	db 34
14923 36EC 88           	db 136
14924 36ED 22           	db 34
14925 36EE 88           	db 136
14926 36EF 22           	db 34
14927 36F0 88           	db 136
14928 36F1 22           	db 34
14929 36F2 88           	db 136
14930 36F3 55           	db 85
14931 36F4 AA           	db 170
14932 36F5 55           	db 85
14933 36F6 AA           	db 170
14934 36F7 55           	db 85
14935 36F8 AA           	db 170
14936 36F9 55           	db 85
14937 36FA AA           	db 170
14938 36FB DB           	db 219
14939 36FC 77           	db 119
14940 36FD DB           	db 219
14941 36FE EE           	db 238
14942 36FF DB           	db 219
14943 3700 77           	db 119
14944 3701 DB           	db 219
14945 3702 EE           	db 238
14946 3703 18           	db 24
14947 3704 18           	db 24
14948 3705 18           	db 24
14949 3706 18           	db 24
14950 3707 18           	db 24
14951 3708 18           	db 24
14952 3709 18           	db 24
14953 370A 18           	db 24
14954 370B 18           	db 24
14955 370C 18           	db 24
14956 370D 18           	db 24
14957 370E F8           	db 248
14958 370F 18           	db 24
14959 3710 18           	db 24
14960 3711 18           	db 24
14961 3712 18           	db 24
14962 3713 18           	db 24
14963 3714 18           	db 24
14964 3715 F8           	db 248
14965 3716 18           	db 24
14966 3717 F8           	db 248
14967 3718 18           	db 24
14968 3719 18           	db 24
14969 371A 18           	db 24
14970 371B 6C           	db 108
14971 371C 6C           	db 108
14972 371D 6C           	db 108
14973 371E EC           	db 236
14974 371F 6C           	db 108
14975 3720 6C           	db 108
14976 3721 6C           	db 108
14977 3722 6C           	db 108
14978 3723 00           	db 0
14979 3724 00           	db 0
14980 3725 00           	db 0
14981 3726 FC           	db 252
14982 3727 6C           	db 108
14983 3728 6C           	db 108
14984 3729 6C           	db 108
14985 372A 6C           	db 108
14986 372B 00           	db 0
14987 372C 00           	db 0
14988 372D F8           	db 248
14989 372E 18           	db 24
14990 372F F8           	db 248
14991 3730 18           	db 24
14992 3731 18           	db 24
14993 3732 18           	db 24
14994 3733 6C           	db 108
14995 3734 6C           	db 108
14996 3735 EC           	db 236
14997 3736 0C           	db 12
14998 3737 EC           	db 236
14999 3738 6C           	db 108
15000 3739 6C           	db 108
15001 373A 6C           	db 108
15002 373B 6C           	db 108
15003 373C 6C           	db 108
15004 373D 6C           	db 108
15005 373E 6C           	db 108
15006 373F 6C           	db 108
15007 3740 6C           	db 108
15008 3741 6C           	db 108
15009 3742 6C           	db 108
15010 3743 00           	db 0
15011 3744 00           	db 0
15012 3745 FC           	db 252
15013 3746 0C           	db 12
15014 3747 EC           	db 236
15015 3748 6C           	db 108
15016 3749 6C           	db 108
15017 374A 6C           	db 108
15018 374B 6C           	db 108
15019 374C 6C           	db 108
15020 374D EC           	db 236
15021 374E 0C           	db 12
15022 374F FC           	db 252
15023 3750 00           	db 0
15024 3751 00           	db 0
15025 3752 00           	db 0
15026 3753 6C           	db 108
15027 3754 6C           	db 108
15028 3755 6C           	db 108
15029 3756 FC           	db 252
15030 3757 00           	db 0
15031 3758 00           	db 0
15032 3759 00           	db 0
15033 375A 00           	db 0
15034 375B 18           	db 24
15035 375C 18           	db 24
15036 375D F8           	db 248
15037 375E 18           	db 24
15038 375F F8           	db 248
15039 3760 00           	db 0
15040 3761 00           	db 0
15041 3762 00           	db 0
15042 3763 00           	db 0
15043 3764 00           	db 0
15044 3765 00           	db 0
15045 3766 F8           	db 248
15046 3767 18           	db 24
15047 3768 18           	db 24
15048 3769 18           	db 24
15049 376A 18           	db 24
15050 376B 18           	db 24
15051 376C 18           	db 24
15052 376D 18           	db 24
15053 376E 1F           	db 31
15054 376F 00           	db 0
15055 3770 00           	db 0
15056 3771 00           	db 0
15057 3772 00           	db 0
15058 3773 18           	db 24
15059 3774 18           	db 24
15060 3775 18           	db 24
15061 3776 FF           	db 255
15062 3777 00           	db 0
15063 3778 00           	db 0
15064 3779 00           	db 0
15065 377A 00           	db 0
15066 377B 00           	db 0
15067 377C 00           	db 0
15068 377D 00           	db 0
15069 377E FF           	db 255
15070 377F 18           	db 24
15071 3780 18           	db 24
15072 3781 18           	db 24
15073 3782 18           	db 24
15074 3783 18           	db 24
15075 3784 18           	db 24
15076 3785 18           	db 24
15077 3786 1F           	db 31
15078 3787 18           	db 24
15079 3788 18           	db 24
15080 3789 18           	db 24
15081 378A 18           	db 24
15082 378B 00           	db 0
15083 378C 00           	db 0
15084 378D 00           	db 0
15085 378E FF           	db 255
15086 378F 00           	db 0
15087 3790 00           	db 0
15088 3791 00           	db 0
15089 3792 00           	db 0
15090 3793 18           	db 24
15091 3794 18           	db 24
15092 3795 18           	db 24
15093 3796 FF           	db 255
15094 3797 18           	db 24
15095 3798 18           	db 24
15096 3799 18           	db 24
15097 379A 18           	db 24
15098 379B 18           	db 24
15099 379C 18           	db 24
15100 379D 1F           	db 31
15101 379E 18           	db 24
15102 379F 1F           	db 31
15103 37A0 18           	db 24
15104 37A1 18           	db 24
15105 37A2 18           	db 24
15106 37A3 6C           	db 108
15107 37A4 6C           	db 108
15108 37A5 6C           	db 108
15109 37A6 6F           	db 111
15110 37A7 6C           	db 108
15111 37A8 6C           	db 108
15112 37A9 6C           	db 108
15113 37AA 6C           	db 108
15114 37AB 6C           	db 108
15115 37AC 6C           	db 108
15116 37AD 6F           	db 111
15117 37AE 60           	db 96
15118 37AF 7F           	db 127
15119 37B0 00           	db 0
15120 37B1 00           	db 0
15121 37B2 00           	db 0
15122 37B3 00           	db 0
15123 37B4 00           	db 0
15124 37B5 7F           	db 127
15125 37B6 60           	db 96
15126 37B7 6F           	db 111
15127 37B8 6C           	db 108
15128 37B9 6C           	db 108
15129 37BA 6C           	db 108
15130 37BB 6C           	db 108
15131 37BC 6C           	db 108
15132 37BD EF           	db 239
15133 37BE 00           	db 0
15134 37BF FF           	db 255
15135 37C0 00           	db 0
15136 37C1 00           	db 0
15137 37C2 00           	db 0
15138 37C3 00           	db 0
15139 37C4 00           	db 0
15140 37C5 FF           	db 255
15141 37C6 00           	db 0
15142 37C7 EF           	db 239
15143 37C8 6C           	db 108
15144 37C9 6C           	db 108
15145 37CA 6C           	db 108
15146 37CB 6C           	db 108
15147 37CC 6C           	db 108
15148 37CD 6F           	db 111
15149 37CE 60           	db 96
15150 37CF 6F           	db 111
15151 37D0 6C           	db 108
15152 37D1 6C           	db 108
15153 37D2 6C           	db 108
15154 37D3 00           	db 0
15155 37D4 00           	db 0
15156 37D5 FF           	db 255
15157 37D6 00           	db 0
15158 37D7 FF           	db 255
15159 37D8 00           	db 0
15160 37D9 00           	db 0
15161 37DA 00           	db 0
15162 37DB 6C           	db 108
15163 37DC 6C           	db 108
15164 37DD EF           	db 239
15165 37DE 00           	db 0
15166 37DF EF           	db 239
15167 37E0 6C           	db 108
15168 37E1 6C           	db 108
15169 37E2 6C           	db 108
15170 37E3 18           	db 24
15171 37E4 18           	db 24
15172 37E5 FF           	db 255
15173 37E6 00           	db 0
15174 37E7 FF           	db 255
15175 37E8 00           	db 0
15176 37E9 00           	db 0
15177 37EA 00           	db 0
15178 37EB 6C           	db 108
15179 37EC 6C           	db 108
15180 37ED 6C           	db 108
15181 37EE FF           	db 255
15182 37EF 00           	db 0
15183 37F0 00           	db 0
15184 37F1 00           	db 0
15185 37F2 00           	db 0
15186 37F3 00           	db 0
15187 37F4 00           	db 0
15188 37F5 FF           	db 255
15189 37F6 00           	db 0
15190 37F7 FF           	db 255
15191 37F8 18           	db 24
15192 37F9 18           	db 24
15193 37FA 18           	db 24
15194 37FB 00           	db 0
15195 37FC 00           	db 0
15196 37FD 00           	db 0
15197 37FE FF           	db 255
15198 37FF 6C           	db 108
15199 3800 6C           	db 108
15200 3801 6C           	db 108
15201 3802 6C           	db 108
15202 3803 6C           	db 108
15203 3804 6C           	db 108
15204 3805 6C           	db 108
15205 3806 7F           	db 127
15206 3807 00           	db 0
15207 3808 00           	db 0
15208 3809 00           	db 0
15209 380A 00           	db 0
15210 380B 18           	db 24
15211 380C 18           	db 24
15212 380D 1F           	db 31
15213 380E 18           	db 24
15214 380F 1F           	db 31
15215 3810 00           	db 0
15216 3811 00           	db 0
15217 3812 00           	db 0
15218 3813 00           	db 0
15219 3814 00           	db 0
15220 3815 1F           	db 31
15221 3816 18           	db 24
15222 3817 1F           	db 31
15223 3818 18           	db 24
15224 3819 18           	db 24
15225 381A 18           	db 24
15226 381B 00           	db 0
15227 381C 00           	db 0
15228 381D 00           	db 0
15229 381E 7F           	db 127
15230 381F 6C           	db 108
15231 3820 6C           	db 108
15232 3821 6C           	db 108
15233 3822 6C           	db 108
15234 3823 6C           	db 108
15235 3824 6C           	db 108
15236 3825 6C           	db 108
15237 3826 FF           	db 255
15238 3827 6C           	db 108
15239 3828 6C           	db 108
15240 3829 6C           	db 108
15241 382A 6C           	db 108
15242 382B 18           	db 24
15243 382C 18           	db 24
15244 382D FF           	db 255
15245 382E 18           	db 24
15246 382F FF           	db 255
15247 3830 18           	db 24
15248 3831 18           	db 24
15249 3832 18           	db 24
15250 3833 18           	db 24
15251 3834 18           	db 24
15252 3835 18           	db 24
15253 3836 F8           	db 248
15254 3837 00           	db 0
15255 3838 00           	db 0
15256 3839 00           	db 0
15257 383A 00           	db 0
15258 383B 00           	db 0
15259 383C 00           	db 0
15260 383D 00           	db 0
15261 383E 1F           	db 31
15262 383F 18           	db 24
15263 3840 18           	db 24
15264 3841 18           	db 24
15265 3842 18           	db 24
15266 3843 FF           	db 255
15267 3844 FF           	db 255
15268 3845 FF           	db 255
15269 3846 FF           	db 255
15270 3847 FF           	db 255
15271 3848 FF           	db 255
15272 3849 FF           	db 255
15273 384A FF           	db 255
15274 384B 00           	db 0
15275 384C 00           	db 0
15276 384D 00           	db 0
15277 384E 00           	db 0
15278 384F FF           	db 255
15279 3850 FF           	db 255
15280 3851 FF           	db 255
15281 3852 FF           	db 255
15282 3853 F0           	db 240
15283 3854 F0           	db 240
15284 3855 F0           	db 240
15285 3856 F0           	db 240
15286 3857 F0           	db 240
15287 3858 F0           	db 240
15288 3859 F0           	db 240
15289 385A F0           	db 240
15290 385B 0F           	db 15
15291 385C 0F           	db 15
15292 385D 0F           	db 15
15293 385E 0F           	db 15
15294 385F 0F           	db 15
15295 3860 0F           	db 15
15296 3861 0F           	db 15
15297 3862 0F           	db 15
15298 3863 FF           	db 255
15299 3864 FF           	db 255
15300 3865 FF           	db 255
15301 3866 FF           	db 255
15302 3867 00           	db 0
15303 3868 00           	db 0
15304 3869 00           	db 0
15305 386A 00           	db 0
15306 386B 00           	db 0
15307 386C 00           	db 0
15308 386D 7C           	db 124
15309 386E 66           	db 102
15310 386F 66           	db 102
15311 3870 7C           	db 124
15312 3871 60           	db 96
15313 3872 60           	db 96
15314 3873 00           	db 0
15315 3874 00           	db 0
15316 3875 3C           	db 60
15317 3876 66           	db 102
15318 3877 60           	db 96
15319 3878 66           	db 102
15320 3879 3C           	db 60
15321 387A 00           	db 0
15322 387B 00           	db 0
15323 387C 00           	db 0
15324 387D 7E           	db 126
15325 387E 18           	db 24
15326 387F 18           	db 24
15327 3880 18           	db 24
15328 3881 18           	db 24
15329 3882 00           	db 0
15330 3883 00           	db 0
15331 3884 00           	db 0
15332 3885 66           	db 102
15333 3886 66           	db 102
15334 3887 3E           	db 62
15335 3888 06           	db 6
15336 3889 66           	db 102
15337 388A 3C           	db 60
15338 388B 00           	db 0
15339 388C 18           	db 24
15340 388D 7E           	db 126
15341 388E DB           	db 219
15342 388F DB           	db 219
15343 3890 7E           	db 126
15344 3891 18           	db 24
15345 3892 18           	db 24
15346 3893 00           	db 0
15347 3894 00           	db 0
15348 3895 C6           	db 198
15349 3896 6C           	db 108
15350 3897 38           	db 56
15351 3898 6C           	db 108
15352 3899 C6           	db 198
15353 389A 00           	db 0
15354 389B 00           	db 0
15355 389C 00           	db 0
15356 389D CC           	db 204
15357 389E CC           	db 204
15358 389F CC           	db 204
15359 38A0 CC           	db 204
15360 38A1 FE           	db 254
15361 38A2 06           	db 6
15362 38A3 00           	db 0
15363 38A4 00           	db 0
15364 38A5 66           	db 102
15365 38A6 66           	db 102
15366 38A7 3E           	db 62
15367 38A8 06           	db 6
15368 38A9 06           	db 6
15369 38AA 00           	db 0
15370 38AB 00           	db 0
15371 38AC 00           	db 0
15372 38AD D6           	db 214
15373 38AE D6           	db 214
15374 38AF D6           	db 214
15375 38B0 D6           	db 214
15376 38B1 FE           	db 254
15377 38B2 00           	db 0
15378 38B3 00           	db 0
15379 38B4 00           	db 0
15380 38B5 D6           	db 214
15381 38B6 D6           	db 214
15382 38B7 D6           	db 214
15383 38B8 D6           	db 214
15384 38B9 FF           	db 255
15385 38BA 03           	db 3
15386 38BB 00           	db 0
15387 38BC 00           	db 0
15388 38BD F0           	db 240
15389 38BE 30           	db 48
15390 38BF 3E           	db 62
15391 38C0 33           	db 51
15392 38C1 3E           	db 62
15393 38C2 00           	db 0
15394 38C3 00           	db 0
15395 38C4 00           	db 0
15396 38C5 C6           	db 198
15397 38C6 C6           	db 198
15398 38C7 F6           	db 246
15399 38C8 DA           	db 218
15400 38C9 F6           	db 246
15401 38CA 00           	db 0
15402 38CB 00           	db 0
15403 38CC 00           	db 0
15404 38CD 60           	db 96
15405 38CE 60           	db 96
15406 38CF 7C           	db 124
15407 38D0 66           	db 102
15408 38D1 7C           	db 124
15409 38D2 00           	db 0
15410 38D3 00           	db 0
15411 38D4 00           	db 0
15412 38D5 7C           	db 124
15413 38D6 C6           	db 198
15414 38D7 1E           	db 30
15415 38D8 C6           	db 198
15416 38D9 7C           	db 124
15417 38DA 00           	db 0
15418 38DB 00           	db 0
15419 38DC 00           	db 0
15420 38DD DC           	db 220
15421 38DE B6           	db 182
15422 38DF F6           	db 246
15423 38E0 B6           	db 182
15424 38E1 DC           	db 220
15425 38E2 00           	db 0
15426 38E3 00           	db 0
15427 38E4 00           	db 0
15428 38E5 3E           	db 62
15429 38E6 66           	db 102
15430 38E7 3E           	db 62
15431 38E8 36           	db 54
15432 38E9 66           	db 102
15433 38EA 00           	db 0
15434 38EB 00           	db 0
15435 38EC FE           	db 254
15436 38ED 00           	db 0
15437 38EE FE           	db 254
15438 38EF 00           	db 0
15439 38F0 FE           	db 254
15440 38F1 00           	db 0
15441 38F2 00           	db 0
15442 38F3 18           	db 24
15443 38F4 18           	db 24
15444 38F5 7E           	db 126
15445 38F6 18           	db 24
15446 38F7 18           	db 24
15447 38F8 00           	db 0
15448 38F9 7E           	db 126
15449 38FA 00           	db 0
15450 38FB 30           	db 48
15451 38FC 18           	db 24
15452 38FD 0C           	db 12
15453 38FE 18           	db 24
15454 38FF 30           	db 48
15455 3900 00           	db 0
15456 3901 7E           	db 126
15457 3902 00           	db 0
15458 3903 0C           	db 12
15459 3904 18           	db 24
15460 3905 30           	db 48
15461 3906 18           	db 24
15462 3907 0C           	db 12
15463 3908 00           	db 0
15464 3909 7E           	db 126
15465 390A 00           	db 0
15466 390B 0C           	db 12
15467 390C 1E           	db 30
15468 390D 18           	db 24
15469 390E 18           	db 24
15470 390F 18           	db 24
15471 3910 18           	db 24
15472 3911 18           	db 24
15473 3912 18           	db 24
15474 3913 18           	db 24
15475 3914 18           	db 24
15476 3915 18           	db 24
15477 3916 18           	db 24
15478 3917 18           	db 24
15479 3918 78           	db 120
15480 3919 30           	db 48
15481 391A 00           	db 0
15482 391B 00           	db 0
15483 391C 00           	db 0
15484 391D 18           	db 24
15485 391E 00           	db 0
15486 391F 7E           	db 126
15487 3920 00           	db 0
15488 3921 18           	db 24
15489 3922 00           	db 0
15490 3923 00           	db 0
15491 3924 76           	db 118
15492 3925 DC           	db 220
15493 3926 00           	db 0
15494 3927 76           	db 118
15495 3928 DC           	db 220
15496 3929 00           	db 0
15497 392A 00           	db 0
15498 392B 78           	db 120
15499 392C CC           	db 204
15500 392D CC           	db 204
15501 392E 78           	db 120
15502 392F 00           	db 0
15503 3930 00           	db 0
15504 3931 00           	db 0
15505 3932 00           	db 0
15506 3933 00           	db 0
15507 3934 00           	db 0
15508 3935 00           	db 0
15509 3936 18           	db 24
15510 3937 18           	db 24
15511 3938 00           	db 0
15512 3939 00           	db 0
15513 393A 00           	db 0
15514 393B 00           	db 0
15515 393C 00           	db 0
15516 393D 00           	db 0
15517 393E 00           	db 0
15518 393F 18           	db 24
15519 3940 00           	db 0
15520 3941 00           	db 0
15521 3942 00           	db 0
15522 3943 1F           	db 31
15523 3944 18           	db 24
15524 3945 18           	db 24
15525 3946 18           	db 24
15526 3947 F8           	db 248
15527 3948 38           	db 56
15528 3949 18           	db 24
15529 394A 00           	db 0
15530 394B D8           	db 216
15531 394C 6C           	db 108
15532 394D 6C           	db 108
15533 394E 6C           	db 108
15534 394F 00           	db 0
15535 3950 00           	db 0
15536 3951 00           	db 0
15537 3952 00           	db 0
15538 3953 70           	db 112
15539 3954 D8           	db 216
15540 3955 30           	db 48
15541 3956 F8           	db 248
15542 3957 00           	db 0
15543 3958 00           	db 0
15544 3959 00           	db 0
15545 395A 00           	db 0
15546 395B 00           	db 0
15547 395C 00           	db 0
15548 395D 3C           	db 60
15549 395E 3C           	db 60
15550 395F 3C           	db 60
15551 3960 3C           	db 60
15552 3961 00           	db 0
15553 3962 00           	db 0
15554 3963 00           	db 0
15555 3964 00           	db 0
15556 3965 00           	db 0
15557 3966 00           	db 0
15558 3967 00           	db 0
15559 3968 00           	db 0
15560 3969 00           	db 0
15561 396A 00           	db 0
15562 396B              ; 11 uint8_t vboxOpenHLDEColor = 0;
15563 396B              vboxopenhldecolor:
15564 396B 00           	db 0
15565 396C              ; 12 uint8_t vboxOpenHLDEAccum = 0;
15566 396C              vboxopenhldeaccum:
15567 396C 00           	db 0
15568 396D              ; 18 void vboxOpenHLDECA() {
15569 396D              vboxopenhldeca:
15570 396D              ; 19     push_pop(bc, de, hl) {
15571 396D C5           	push bc
15572 396E D5           	push de
15573 396F E5           	push hl
15574 3970              ; 20     //push_pop(hl, de, bc, a) {
15575 3970              ; 21         vboxOpenHLDEAccum = a;
15576 3970 32 6C 39     	ld (vboxopenhldeaccum), a
15577 3973              ; 22         a = c;
15578 3973 79           	ld a, c
15579 3974              ; 23         vboxOpenHLDEColor = a;
15580 3974 32 6B 39     	ld (vboxopenhldecolor), a
15581 3977              ; 24         //HL Начальный адрес
15582 3977              ; 25         a = l;
15583 3977 7D           	ld a, l
15584 3978              ; 26         a &= 0x1F;
15585 3978 E6 1F        	and 31
15586 397A              ; 27         cyclic_rotate_left(a, 3);
15587 397A 07           	rlca
15588 397B 07           	rlca
15589 397C 07           	rlca
15590 397D              ; 28         l = a;
15591 397D 6F           	ld l, a
15592 397E              ; 29         a = h;
15593 397E 7C           	ld a, h
15594 397F              ; 30         a += 0xC0;
15595 397F C6 C0        	add 192
15596 3981              ; 31         h = a;
15597 3981 67           	ld h, a
15598 3982              ; 32         //BC Размер
15599 3982              ; 33         b = d;
15600 3982 42           	ld b, d
15601 3983              ; 34         a = e;
15602 3983 7B           	ld a, e
15603 3984              ; 35         cyclic_rotate_left(a, 3);
15604 3984 07           	rlca
15605 3985 07           	rlca
15606 3986 07           	rlca
15607 3987              ; 36         c = a;
15608 3987 4F           	ld c, a
15609 3988              ; 37         //DE цвет
15610 3988              ; 38         d = 0x07; //0x00; //Тень
15611 3988 16 07        	ld d, 7
15612 398A              ; 39         a = vboxOpenHLDEColor;
15613 398A 3A 6B 39     	ld a, (vboxopenhldecolor)
15614 398D              ; 40         e = a;
15615 398D 5F           	ld e, a
15616 398E              ; 41         a = vboxOpenHLDEAccum;
15617 398E 3A 6C 39     	ld a, (vboxopenhldeaccum)
15618 3991              ; 42         vboxOpen();
15619 3991 CD 81 3A     	call vboxopen
15620 3994 E1           	pop hl
15621 3995 D1           	pop de
15622 3996 C1           	pop bc
15623 3997 C9           	ret
15624 3998              ; 43     }
15625 3998              ; 44 }
15626 3998              ; 45
15627 3998              ; 46 void vboxClearCash() {
15628 3998              vboxclearcash:
15629 3998              ; 47     push_pop(a) {
15630 3998 F5           	push af
15631 3999              ; 48         do {
15632 3999              __l_866:
15633 3999              ; 49             a = vboxBLW;
15634 3999 3E 10        	ld a, 16
15635 399B              ; 50             a |= vboxERA;
15636 399B F6 08        	or 8
15637 399D              ; 51             a |= vboxUMP;
15638 399D F6 04        	or 4
15639 399F              ; 52             vboxCall();
15640 399F CD 90 3A     	call vboxcall
15641 39A2              __l_867:
15642 39A2              ; 53         } while (a == 0x00);
15643 39A2 B7           	or a
15644 39A3 CA 99 39     	jp z, __l_866
15645 39A6 F1           	pop af
15646 39A7 C9           	ret
15647 39A8              ; 54     }
15648 39A8              ; 55 }
15649 39A8              ; 56
15650 39A8              ; 57 /// HL верхний левый угол
15651 39A8              ; 58 /// DE нижний правый
15652 39A8              ; 59 void vboxBorderHLDE() {
15653 39A8              vboxborderhlde:
15654 39A8              ; 60     push_pop(bc) {
15655 39A8 C5           	push bc
15656 39A9              ; 61         //Верхняя линия
15657 39A9              ; 62         push_pop(hl, de) {
15658 39A9 E5           	push hl
15659 39AA D5           	push de
15660 39AB              ; 63             a = h;
15661 39AB 7C           	ld a, h
15662 39AC              ; 64             myCharPosX = a;
15663 39AC 32 E3 0E     	ld (mycharposx), a
15664 39AF              ; 65             a = l;
15665 39AF 7D           	ld a, l
15666 39B0              ; 66             myCharPosY = a;
15667 39B0 32 E4 0E     	ld (mycharposy), a
15668 39B3              ; 67             printMyCharA(a = 0xC9);
15669 39B3 3E C9        	ld a, 201
15670 39B5 CD 4E 0D     	call printmychara
15671 39B8              ; 68             b = 2;
15672 39B8 06 02        	ld b, 2
15673 39BA              ; 69             do {
15674 39BA              __l_869:
15675 39BA              ; 70                 printMyCharA(a = 0xCD);
15676 39BA 3E CD        	ld a, 205
15677 39BC CD 4E 0D     	call printmychara
15678 39BF              ; 71                 b++;
15679 39BF 04           	inc b
15680 39C0              __l_870:
15681 39C0              ; 72             } while ((a = b) < d);
15682 39C0 78           	ld a, b
15683 39C1 BA           	cp d
15684 39C2 DA BA 39     	jp c, __l_869
15685 39C5              ; 73             printMyCharA(a = 0xBB);
15686 39C5 3E BB        	ld a, 187
15687 39C7 CD 4E 0D     	call printmychara
15688 39CA D1           	pop de
15689 39CB E1           	pop hl
15690 39CC              ; 74         }
15691 39CC              ; 75         // Нижняя линия
15692 39CC              ; 76         push_pop(hl, de) {
15693 39CC E5           	push hl
15694 39CD D5           	push de
15695 39CE              ; 77             a = h;
15696 39CE 7C           	ld a, h
15697 39CF              ; 78             myCharPosX = a;
15698 39CF 32 E3 0E     	ld (mycharposx), a
15699 39D2              ; 79             a = l;
15700 39D2 7D           	ld a, l
15701 39D3              ; 80             a += e;
15702 39D3 83           	add e
15703 39D4              ; 81             a--;
15704 39D4 3D           	dec a
15705 39D5              ; 82             myCharPosY = a;
15706 39D5 32 E4 0E     	ld (mycharposy), a
15707 39D8              ; 83             printMyCharA(a = 0xC8);
15708 39D8 3E C8        	ld a, 200
15709 39DA CD 4E 0D     	call printmychara
15710 39DD              ; 84             b = 2;
15711 39DD 06 02        	ld b, 2
15712 39DF              ; 85             do {
15713 39DF              __l_872:
15714 39DF              ; 86                 printMyCharA(a = 0xCD);
15715 39DF 3E CD        	ld a, 205
15716 39E1 CD 4E 0D     	call printmychara
15717 39E4              ; 87                 b++;
15718 39E4 04           	inc b
15719 39E5              __l_873:
15720 39E5              ; 88             } while ((a = b) < d);
15721 39E5 78           	ld a, b
15722 39E6 BA           	cp d
15723 39E7 DA DF 39     	jp c, __l_872
15724 39EA              ; 89             printMyCharA(a = 0xBC);
15725 39EA 3E BC        	ld a, 188
15726 39EC CD 4E 0D     	call printmychara
15727 39EF D1           	pop de
15728 39F0 E1           	pop hl
15729 39F1              ; 90         }
15730 39F1              ; 91         // Левая горизонтальная
15731 39F1              ; 92         push_pop(hl, de) {
15732 39F1 E5           	push hl
15733 39F2 D5           	push de
15734 39F3              ; 93             a = h;
15735 39F3 7C           	ld a, h
15736 39F4              ; 94             myCharPosX = a;
15737 39F4 32 E3 0E     	ld (mycharposx), a
15738 39F7              ; 95             a = l;
15739 39F7 7D           	ld a, l
15740 39F8              ; 96             a++;
15741 39F8 3C           	inc a
15742 39F9              ; 97             myCharPosY = a;
15743 39F9 32 E4 0E     	ld (mycharposy), a
15744 39FC              ; 98             b = 2;
15745 39FC 06 02        	ld b, 2
15746 39FE              ; 99             do {
15747 39FE              __l_875:
15748 39FE              ; 100                 printMyCharA(a = 0xBA);
15749 39FE 3E BA        	ld a, 186
15750 3A00 CD 4E 0D     	call printmychara
15751 3A03              ; 101                 a = h;
15752 3A03 7C           	ld a, h
15753 3A04              ; 102                 myCharPosX = a;
15754 3A04 32 E3 0E     	ld (mycharposx), a
15755 3A07              ; 103                 a = l;
15756 3A07 7D           	ld a, l
15757 3A08              ; 104                 a += b;
15758 3A08 80           	add b
15759 3A09              ; 105                 myCharPosY = a;
15760 3A09 32 E4 0E     	ld (mycharposy), a
15761 3A0C              ; 106                 b++;
15762 3A0C 04           	inc b
15763 3A0D              __l_876:
15764 3A0D              ; 107             } while ((a = b) < e);
15765 3A0D 78           	ld a, b
15766 3A0E BB           	cp e
15767 3A0F DA FE 39     	jp c, __l_875
15768 3A12 D1           	pop de
15769 3A13 E1           	pop hl
15770 3A14              ; 108         }
15771 3A14              ; 109         // Правая горизонтальная
15772 3A14              ; 110         push_pop(hl, de) {
15773 3A14 E5           	push hl
15774 3A15 D5           	push de
15775 3A16              ; 111             a = h;
15776 3A16 7C           	ld a, h
15777 3A17              ; 112             a += d;
15778 3A17 82           	add d
15779 3A18              ; 113             a--;
15780 3A18 3D           	dec a
15781 3A19              ; 114             c = a;
15782 3A19 4F           	ld c, a
15783 3A1A              ; 115             myCharPosX = a;
15784 3A1A 32 E3 0E     	ld (mycharposx), a
15785 3A1D              ; 116             a = l;
15786 3A1D 7D           	ld a, l
15787 3A1E              ; 117             a++;
15788 3A1E 3C           	inc a
15789 3A1F              ; 118             myCharPosY = a;
15790 3A1F 32 E4 0E     	ld (mycharposy), a
15791 3A22              ; 119             b = 2;
15792 3A22 06 02        	ld b, 2
15793 3A24              ; 120             do {
15794 3A24              __l_878:
15795 3A24              ; 121                 printMyCharA(a = 0xBA);
15796 3A24 3E BA        	ld a, 186
15797 3A26 CD 4E 0D     	call printmychara
15798 3A29              ; 122                 a = c;
15799 3A29 79           	ld a, c
15800 3A2A              ; 123                 myCharPosX = a;
15801 3A2A 32 E3 0E     	ld (mycharposx), a
15802 3A2D              ; 124                 a = l;
15803 3A2D 7D           	ld a, l
15804 3A2E              ; 125                 a += b;
15805 3A2E 80           	add b
15806 3A2F              ; 126                 myCharPosY = a;
15807 3A2F 32 E4 0E     	ld (mycharposy), a
15808 3A32              ; 127                 b++;
15809 3A32 04           	inc b
15810 3A33              __l_879:
15811 3A33              ; 128             } while ((a = b) < e);
15812 3A33 78           	ld a, b
15813 3A34 BB           	cp e
15814 3A35 DA 24 3A     	jp c, __l_878
15815 3A38 D1           	pop de
15816 3A39 E1           	pop hl
15817 3A3A C1           	pop bc
15818 3A3B C9           	ret
15819 3A3C              ; 129         }
15820 3A3C              ; 130     }
15821 3A3C              ; 131 }
15822 3A3C              ; 132
15823 3A3C              ; 133 void vboxOpenHLDE() {
15824 3A3C              vboxopenhlde:
15825 3A3C              ; 134     c = a;
15826 3A3C 4F           	ld c, a
15827 3A3D              ; 135     a = vboxCLW;
15828 3A3D 3E 40        	ld a, 64
15829 3A3F              ; 136     a |= vboxUMP;
15830 3A3F F6 04        	or 4
15831 3A41              ; 137     vboxOpenHLDECA();
15832 3A41 C3 6D 39     	jp vboxopenhldeca
15833 3A44              ; 138 }
15834 3A44              ; 139
15835 3A44              ; 140 /// Загрузка драйвера VBOX, если не загружен
15836 3A44              ; 141 void validVBOX() {
15837 3A44              validvbox:
15838 3A44              ; 142     a = vboxAddr; // 0 - если там знакогенератор
15839 3A44 3A AE 3A     	ld a, (vboxaddr)
15840 3A47              ; 143     a |= a;
15841 3A47 B7           	or a
15842 3A48              ; 144     if (a == 0) {
15843 3A48 B7           	or a
15844 3A49 C2 79 3A     	jp nz, __l_881
15845 3A4C              ; 145         push_pop(bc, hl) {
15846 3A4C C5           	push bc
15847 3A4D E5           	push hl
15848 3A4E              ; 146             ordos_sdma(hl = vboxFL);
15849 3A4E 21 A8 3A     	ld hl, vboxfl
15850 3A51 CD D0 BF     	call ordos_sdma
15851 3A54              ; 147             b = 0;
15852 3A54 06 00        	ld b, 0
15853 3A56              ; 148             do {
15854 3A56              __l_883:
15855 3A56              ; 149                 a = 'A';
15856 3A56 3E 41        	ld a, 65
15857 3A58              ; 150                 a += b;
15858 3A58 80           	add b
15859 3A59              ; 151                 ordos_wnd(); // A = Disk
15860 3A59 CD D6 BF     	call ordos_wnd
15861 3A5C              ; 152                 ordos_pscf();
15862 3A5C CD E5 BF     	call ordos_pscf
15863 3A5F              ; 153                 c = a;
15864 3A5F 4F           	ld c, a
15865 3A60              ; 154                 b++;
15866 3A60 04           	inc b
15867 3A61              ; 155                 if ((a = b) == 4) {
15868 3A61 78           	ld a, b
15869 3A62 FE 04        	cp 4
15870 3A64 C2 69 3A     	jp nz, __l_886
15871 3A67              ; 156                     c = 1;
15872 3A67 0E 01        	ld c, 1
15873 3A69              __l_886:
15874 3A69              __l_884:
15875 3A69              ; 157                 }
15876 3A69              ; 158             } while ((a = c) == 0);
15877 3A69 79           	ld a, c
15878 3A6A B7           	or a
15879 3A6B CA 56 3A     	jp z, __l_883
15880 3A6E              ; 159             if ((a = c) == 0xFF) {
15881 3A6E 79           	ld a, c
15882 3A6F FE FF        	cp 255
15883 3A71 C2 77 3A     	jp nz, __l_888
15884 3A74              ; 160                 loadVBOX();
15885 3A74 CD 7A 3A     	call loadvbox
15886 3A77              __l_888:
15887 3A77 E1           	pop hl
15888 3A78 C1           	pop bc
15889 3A79              __l_881:
15890 3A79 C9           	ret
15891 3A7A              ; 161             }
15892 3A7A              ; 162         }
15893 3A7A              ; 163     }
15894 3A7A              ; 164 }
15895 3A7A              ; 165
15896 3A7A              ; 166 /// Загрузка
15897 3A7A              ; 167 void loadVBOX() {
15898 3A7A              loadvbox:
15899 3A7A              ; 168     ordos_rfile();
15900 3A7A CD FA BF     	call ordos_rfile
15901 3A7D              ; 169     startVboxAddr = hl;
15902 3A7D 22 07 01     	ld (startvboxaddr), hl
15903 3A80 C9           	ret
15904 3A81              ; 170 }
15905 3A81              ; 171
15906 3A81              ; 172 void vboxOpen() {
15907 3A81              vboxopen:
15908 3A81              ; 173     a |= vboxOPN;
15909 3A81 F6 80        	or 128
15910 3A83              ; 174     vboxCall();
15911 3A83 C3 90 3A     	jp vboxcall
15912 3A86              ; 175 }
15913 3A86              ; 176
15914 3A86              ; 177 void vboxClose() {
15915 3A86              vboxclose:
15916 3A86              ; 178     push_pop(a) {
15917 3A86 F5           	push af
15918 3A87              ; 179         a = vboxERA;
15919 3A87 3E 08        	ld a, 8
15920 3A89              ; 180         a |= vboxUMP;
15921 3A89 F6 04        	or 4
15922 3A8B              ; 181         vboxCall();
15923 3A8B CD 90 3A     	call vboxcall
15924 3A8E F1           	pop af
15925 3A8F C9           	ret
15926 3A90              ; 182     }
15927 3A90              ; 183 }
15928 3A90              ; 184
15929 3A90              ; 185 void vboxCall() {
15930 3A90              vboxcall:
15931 3A90              ; 186     push_pop(a) {
15932 3A90 F5           	push af
15933 3A91              ; 187         push_pop(bc) {
15934 3A91 C5           	push bc
15935 3A92              ; 188             push_pop(de) {
15936 3A92 D5           	push de
15937 3A93              ; 189                 push_pop(hl) {
15938 3A93 E5           	push hl
15939 3A94              ; 190                     ordos_rnd();
15940 3A94 CD D9 BF     	call ordos_rnd
15941 3A97              ; 191                     push_pop(a) {
15942 3A97 F5           	push af
15943 3A98              ; 192                         validVBOX();
15944 3A98 CD 44 3A     	call validvbox
15945 3A9B F1           	pop af
15946 3A9C              ; 193                     }
15947 3A9C              ; 194                     ordos_wnd();
15948 3A9C CD D6 BF     	call ordos_wnd
15949 3A9F E1           	pop hl
15950 3AA0 D1           	pop de
15951 3AA1 C1           	pop bc
15952 3AA2 F1           	pop af
15953 3AA3              ; 195                 }
15954 3AA3              ; 196             }
15955 3AA3              ; 197         }
15956 3AA3              ; 198     }
15957 3AA3              ; 199     a |= 0x03; //0x03; //0x01; //ADD disk
15958 3AA3 F6 03        	or 3
15959 3AA5              ; 200     goToVBOX();
15960 3AA5 C3 06 01     	jp gotovbox
15961 3AA8              ; 201 }
15962 3AA8              ; 202
15963 3AA8              ; 203 uint8_t vboxFL[] = "VBOX "; // Имя файла
15964 3AA8              vboxfl:
15965 3AA8 56           	db 86
15966 3AA9 42           	db 66
15967 3AAA 4F           	db 79
15968 3AAB 58           	db 88
15969 3AAC 20           	db 32
15970 3AAD 00           	ds 1
15971 3AAE              ; 204 uint16_t vboxAddr = 0xF000;
15972 3AAE              vboxaddr:
15973 3AAE 00 F0        	dw 61440
15974 3AB0              ; 44 uint8_t Net_buffer_len = 0;
15975 3AB0              net_buffer_len:
15976 3AB0 00           	db 0
15977 3AB1              ; 45 uint8_t Net_buffer[1];
15978 3AB1              net_buffer:
15979 3AB1 00           	ds 1
15980 3AB2               savebin "kFTP2.ORD", 0x00f0, 0x3A10
15981 3AB2               savebin "test.ORD", 0x00f0, 0x3A10
15982 3AB2
# file closed: main.asm
